
build/main.elf:     file format elf32-littlearm

Sections:
Idx Name          Size      VMA       LMA       File off  Algn
  0 .text         00004a70  08000000  0c000000  00010000  2**6
                  CONTENTS, ALLOC, LOAD, READONLY, CODE
  1 Stack         00000800  10000000  10000000  00030000  2**0
                  ALLOC
  2 .ram_code     00000000  10000800  10000800  00020460  2**0
                  CONTENTS
  3 PSRAM_DATA    00000000  10000800  10000800  00020460  2**0
                  CONTENTS
  4 PSRAM_BSS     00000000  10000800  10000800  00020460  2**0
                  CONTENTS
  5 .data         00000460  20000000  0c004a70  00020000  2**3
                  CONTENTS, ALLOC, LOAD, DATA
  6 .bss          000006f8  20000460  0c004ed0  00020460  2**2
                  ALLOC
  7 .no_init      00000014  2000ffc0  2000ffc0  0002ffc0  2**2
                  ALLOC
  8 DSRAM2_DATA   00000000  30000000  30000000  00020460  2**0
                  CONTENTS
  9 DSRAM2_BSS    00000e00  30000000  0c004ed0  00030000  2**2
                  ALLOC
 10 .debug_aranges 000007d0  00000000  00000000  00020460  2**0
                  CONTENTS, READONLY, DEBUGGING, OCTETS
 11 .debug_info   00015a0e  00000000  00000000  00020c30  2**0
                  CONTENTS, READONLY, DEBUGGING, OCTETS
 12 .debug_abbrev 00002e2f  00000000  00000000  0003663e  2**0
                  CONTENTS, READONLY, DEBUGGING, OCTETS
 13 .debug_line   0001013d  00000000  00000000  0003946d  2**0
                  CONTENTS, READONLY, DEBUGGING, OCTETS
 14 .debug_frame  00001364  00000000  00000000  000495ac  2**2
                  CONTENTS, READONLY, DEBUGGING, OCTETS
 15 .debug_str    000830b5  00000000  00000000  0004a910  2**0
                  CONTENTS, READONLY, DEBUGGING, OCTETS
 16 .debug_loc    00008a99  00000000  00000000  000cd9c5  2**0
                  CONTENTS, READONLY, DEBUGGING, OCTETS
 17 .debug_ranges 00001358  00000000  00000000  000d645e  2**0
                  CONTENTS, READONLY, DEBUGGING, OCTETS
 18 .build_attributes 000003fe  00000000  00000000  000d77b6  2**0
                  CONTENTS, READONLY
 19 .debug_macro  0001c43d  00000000  00000000  000d7bb4  2**0
                  CONTENTS, READONLY, DEBUGGING, OCTETS

Disassembly of section .text:

08000000 <__Vectors>:
 8000000:	00 08 00 10 01 02 00 08 b1 02 00 08 b1 02 00 08     ................
 8000010:	b1 02 00 08 b1 02 00 08 b1 02 00 08 00 00 00 00     ................
	...
 800002c:	b1 02 00 08 b1 02 00 08 00 00 00 00 b1 02 00 08     ................
 800003c:	d1 0d 00 08 b1 02 00 08 b1 02 00 08 b1 02 00 08     ................
 800004c:	b1 02 00 08 b1 02 00 08 b1 02 00 08 b1 02 00 08     ................
 800005c:	b1 02 00 08 b1 02 00 08 00 00 00 00 00 00 00 00     ................
 800006c:	00 00 00 00 b1 02 00 08 00 00 00 00 b1 02 00 08     ................
 800007c:	b1 02 00 08 b1 02 00 08 b1 02 00 08 b1 02 00 08     ................
 800008c:	b1 02 00 08 b1 02 00 08 b1 02 00 08 b1 02 00 08     ................
 800009c:	b1 02 00 08 b1 02 00 08 b1 02 00 08 b1 02 00 08     ................
 80000ac:	b1 02 00 08 b1 02 00 08 b1 02 00 08 b1 02 00 08     ................
 80000bc:	b1 02 00 08 b1 02 00 08 b1 02 00 08 b1 02 00 08     ................
 80000cc:	b1 02 00 08 b1 02 00 08 b1 02 00 08 b1 02 00 08     ................
 80000dc:	b1 02 00 08 b1 02 00 08 b1 02 00 08 b1 02 00 08     ................
 80000ec:	b1 02 00 08 b1 02 00 08 b1 02 00 08 b1 02 00 08     ................
 80000fc:	b1 02 00 08 b1 02 00 08 b1 02 00 08 b1 02 00 08     ................
 800010c:	b1 02 00 08 b1 02 00 08 b1 02 00 08 b1 02 00 08     ................
 800011c:	b1 02 00 08 b1 02 00 08 b1 02 00 08 b1 02 00 08     ................
 800012c:	b1 02 00 08 b1 02 00 08 b1 02 00 08 b1 02 00 08     ................
 800013c:	b1 02 00 08 b1 02 00 08 b1 02 00 08 b1 02 00 08     ................
 800014c:	b1 02 00 08 b1 02 00 08 b1 02 00 08 b1 02 00 08     ................
 800015c:	b1 02 00 08 00 00 00 00 00 00 00 00 00 00 00 00     ................
 800016c:	00 00 00 00 b1 02 00 08 b1 02 00 08 b1 02 00 08     ................
 800017c:	b1 02 00 08 b1 02 00 08 b1 02 00 08 b1 02 00 08     ................
 800018c:	b1 02 00 08 b1 02 00 08 b1 02 00 08 b1 02 00 08     ................
 800019c:	b1 02 00 08 b1 02 00 08 b1 02 00 08 b1 02 00 08     ................
 80001ac:	b1 02 00 08 b1 02 00 08 b1 02 00 08 b1 02 00 08     ................
 80001bc:	b1 02 00 08 b1 02 00 08 b1 02 00 08 b1 02 00 08     ................
 80001cc:	b1 02 00 08 b1 02 00 08 b1 02 00 08 b1 02 00 08     ................
 80001dc:	00 00 00 00 b1 02 00 08 b1 02 00 08 b1 02 00 08     ................
 80001ec:	19 0f 00 08 b1 02 00 08 00 00 00 00 b1 02 00 08     ................
 80001fc:	00 00 00 00                                         ....

08000200 <Reset_Handler>:
 8000200:	f8df d08c 	ldr.w	sp, [pc, #140]	; 8000290 <__zero_table_end__>
 8000204:	4823      	ldr	r0, [pc, #140]	; (8000294 <__zero_table_end__+0x4>)
 8000206:	4780      	blx	r0
 8000208:	4c23      	ldr	r4, [pc, #140]	; (8000298 <__zero_table_end__+0x8>)
 800020a:	4d24      	ldr	r5, [pc, #144]	; (800029c <__zero_table_end__+0xc>)
 800020c:	42ac      	cmp	r4, r5
 800020e:	da09      	bge.n	8000224 <Reset_Handler+0x24>
 8000210:	6821      	ldr	r1, [r4, #0]
 8000212:	6862      	ldr	r2, [r4, #4]
 8000214:	68a3      	ldr	r3, [r4, #8]
 8000216:	3b04      	subs	r3, #4
 8000218:	bfa2      	ittt	ge
 800021a:	58c8      	ldrge	r0, [r1, r3]
 800021c:	50d0      	strge	r0, [r2, r3]
 800021e:	e7fa      	bge.n	8000216 <Reset_Handler+0x16>
 8000220:	340c      	adds	r4, #12
 8000222:	e7f3      	b.n	800020c <Reset_Handler+0xc>
 8000224:	4b1e      	ldr	r3, [pc, #120]	; (80002a0 <__zero_table_end__+0x10>)
 8000226:	4c1f      	ldr	r4, [pc, #124]	; (80002a4 <__zero_table_end__+0x14>)
 8000228:	42a3      	cmp	r3, r4
 800022a:	da08      	bge.n	800023e <Reset_Handler+0x3e>
 800022c:	6819      	ldr	r1, [r3, #0]
 800022e:	685a      	ldr	r2, [r3, #4]
 8000230:	2000      	movs	r0, #0
 8000232:	3a04      	subs	r2, #4
 8000234:	bfa4      	itt	ge
 8000236:	5088      	strge	r0, [r1, r2]
 8000238:	e7fb      	bge.n	8000232 <Reset_Handler+0x32>
 800023a:	3308      	adds	r3, #8
 800023c:	e7f4      	b.n	8000228 <Reset_Handler+0x28>
 800023e:	481a      	ldr	r0, [pc, #104]	; (80002a8 <__zero_table_end__+0x18>)
 8000240:	4780      	blx	r0
 8000242:	481a      	ldr	r0, [pc, #104]	; (80002ac <__zero_table_end__+0x1c>)
 8000244:	4780      	blx	r0
	...

08000248 <__copy_table_start__>:
 8000248:	0c004a70 	.word	0x0c004a70
 800024c:	20000000 	.word	0x20000000
 8000250:	00000460 	.word	0x00000460
 8000254:	0c004ed0 	.word	0x0c004ed0
 8000258:	30000000 	.word	0x30000000
 800025c:	00000000 	.word	0x00000000
 8000260:	0c004a70 	.word	0x0c004a70
 8000264:	10000800 	.word	0x10000800
 8000268:	00000000 	.word	0x00000000
 800026c:	0c004a70 	.word	0x0c004a70
 8000270:	10000800 	.word	0x10000800
 8000274:	00000000 	.word	0x00000000

08000278 <__copy_table_end__>:
 8000278:	20000460 	.word	0x20000460
 800027c:	000006f8 	.word	0x000006f8
 8000280:	30000000 	.word	0x30000000
 8000284:	00000e00 	.word	0x00000e00
 8000288:	10000800 	.word	0x10000800
 800028c:	00000000 	.word	0x00000000

08000290 <__zero_table_end__>:
 8000290:	10000800 	.word	0x10000800
 8000294:	080045a1 	.word	0x080045a1
 8000298:	08000248 	.word	0x08000248
 800029c:	08000278 	.word	0x08000278
 80002a0:	08000278 	.word	0x08000278
 80002a4:	08000290 	.word	0x08000290
 80002a8:	08004609 	.word	0x08004609
 80002ac:	08000de1 	.word	0x08000de1

080002b0 <BusFault_Handler>:
 80002b0:	e7fe      	b.n	80002b0 <BusFault_Handler>
	...

080002b4 <delay_ms>:
static uint32_t b1_time2 = 0;
static int cnt=0; 


void delay_ms(uint32_t delay){
    delay= delay+ticks;
 80002b4:	4a03      	ldr	r2, [pc, #12]	; (80002c4 <delay_ms+0x10>)
 80002b6:	6813      	ldr	r3, [r2, #0]
 80002b8:	4418      	add	r0, r3
    while(ticks<=delay){
 80002ba:	6813      	ldr	r3, [r2, #0]
 80002bc:	4283      	cmp	r3, r0
 80002be:	d9fc      	bls.n	80002ba <delay_ms+0x6>
        
    }
}
 80002c0:	4770      	bx	lr
 80002c2:	bf00      	nop
 80002c4:	20000460 	.word	0x20000460

080002c8 <display_msg>:

__STATIC_INLINE void XMC_GPIO_ToggleOutput(XMC_GPIO_PORT_t *const port, const uint8_t pin)
{
  XMC_ASSERT("XMC_GPIO_ToggleOutput: Invalid port", XMC_GPIO_CHECK_OUTPUT_PORT(port));

  port->OMR = 0x10001U << pin;
 80002c8:	4a9b      	ldr	r2, [pc, #620]	; (8000538 <display_msg+0x270>)
    delay= delay+ticks;
 80002ca:	4b9c      	ldr	r3, [pc, #624]	; (800053c <display_msg+0x274>)
 80002cc:	f04f 1102 	mov.w	r1, #131074	; 0x20002
 80002d0:	6051      	str	r1, [r2, #4]
 80002d2:	6819      	ldr	r1, [r3, #0]
 80002d4:	3164      	adds	r1, #100	; 0x64
    while(ticks<=delay){
 80002d6:	681a      	ldr	r2, [r3, #0]
 80002d8:	4291      	cmp	r1, r2
 80002da:	d2fc      	bcs.n	80002d6 <display_msg+0xe>
 80002dc:	4a96      	ldr	r2, [pc, #600]	; (8000538 <display_msg+0x270>)
 80002de:	f04f 1102 	mov.w	r1, #131074	; 0x20002
 80002e2:	6051      	str	r1, [r2, #4]
    delay= delay+ticks;
 80002e4:	6819      	ldr	r1, [r3, #0]
 80002e6:	3164      	adds	r1, #100	; 0x64
    while(ticks<=delay){
 80002e8:	681a      	ldr	r2, [r3, #0]
 80002ea:	4291      	cmp	r1, r2
 80002ec:	d2fc      	bcs.n	80002e8 <display_msg+0x20>
 80002ee:	4a92      	ldr	r2, [pc, #584]	; (8000538 <display_msg+0x270>)
 80002f0:	f04f 1102 	mov.w	r1, #131074	; 0x20002
 80002f4:	6051      	str	r1, [r2, #4]
    delay= delay+ticks;
 80002f6:	6819      	ldr	r1, [r3, #0]
 80002f8:	3164      	adds	r1, #100	; 0x64
    while(ticks<=delay){
 80002fa:	681a      	ldr	r2, [r3, #0]
 80002fc:	4291      	cmp	r1, r2
 80002fe:	d2fc      	bcs.n	80002fa <display_msg+0x32>
 8000300:	4a8d      	ldr	r2, [pc, #564]	; (8000538 <display_msg+0x270>)
 8000302:	f04f 1102 	mov.w	r1, #131074	; 0x20002
 8000306:	6051      	str	r1, [r2, #4]
    delay= delay+ticks;
 8000308:	6819      	ldr	r1, [r3, #0]
 800030a:	f501 712f 	add.w	r1, r1, #700	; 0x2bc
    while(ticks<=delay){
 800030e:	681a      	ldr	r2, [r3, #0]
 8000310:	4291      	cmp	r1, r2
 8000312:	d2fc      	bcs.n	800030e <display_msg+0x46>
 8000314:	4a88      	ldr	r2, [pc, #544]	; (8000538 <display_msg+0x270>)
 8000316:	f04f 1102 	mov.w	r1, #131074	; 0x20002
 800031a:	6051      	str	r1, [r2, #4]
    delay= delay+ticks;
 800031c:	6819      	ldr	r1, [r3, #0]
 800031e:	f501 7196 	add.w	r1, r1, #300	; 0x12c
    while(ticks<=delay){
 8000322:	681a      	ldr	r2, [r3, #0]
 8000324:	4291      	cmp	r1, r2
 8000326:	d2fc      	bcs.n	8000322 <display_msg+0x5a>
 8000328:	4a83      	ldr	r2, [pc, #524]	; (8000538 <display_msg+0x270>)
 800032a:	f04f 1102 	mov.w	r1, #131074	; 0x20002
 800032e:	6051      	str	r1, [r2, #4]
    delay= delay+ticks;
 8000330:	6819      	ldr	r1, [r3, #0]
 8000332:	3164      	adds	r1, #100	; 0x64
    while(ticks<=delay){
 8000334:	681a      	ldr	r2, [r3, #0]
 8000336:	4291      	cmp	r1, r2
 8000338:	d2fc      	bcs.n	8000334 <display_msg+0x6c>
 800033a:	4a7f      	ldr	r2, [pc, #508]	; (8000538 <display_msg+0x270>)
 800033c:	f04f 1102 	mov.w	r1, #131074	; 0x20002
 8000340:	6051      	str	r1, [r2, #4]
    delay= delay+ticks;
 8000342:	6819      	ldr	r1, [r3, #0]
 8000344:	3164      	adds	r1, #100	; 0x64
    while(ticks<=delay){
 8000346:	681a      	ldr	r2, [r3, #0]
 8000348:	4291      	cmp	r1, r2
 800034a:	d2fc      	bcs.n	8000346 <display_msg+0x7e>
 800034c:	4a7a      	ldr	r2, [pc, #488]	; (8000538 <display_msg+0x270>)
 800034e:	f04f 1102 	mov.w	r1, #131074	; 0x20002
 8000352:	6051      	str	r1, [r2, #4]
    delay= delay+ticks;
 8000354:	6819      	ldr	r1, [r3, #0]
 8000356:	3164      	adds	r1, #100	; 0x64
    while(ticks<=delay){
 8000358:	681a      	ldr	r2, [r3, #0]
 800035a:	4291      	cmp	r1, r2
 800035c:	d2fc      	bcs.n	8000358 <display_msg+0x90>
 800035e:	4a76      	ldr	r2, [pc, #472]	; (8000538 <display_msg+0x270>)
 8000360:	f04f 1102 	mov.w	r1, #131074	; 0x20002
 8000364:	6051      	str	r1, [r2, #4]
    delay= delay+ticks;
 8000366:	6819      	ldr	r1, [r3, #0]
 8000368:	f501 7196 	add.w	r1, r1, #300	; 0x12c
    while(ticks<=delay){
 800036c:	681a      	ldr	r2, [r3, #0]
 800036e:	4291      	cmp	r1, r2
 8000370:	d2fc      	bcs.n	800036c <display_msg+0xa4>
 8000372:	4a71      	ldr	r2, [pc, #452]	; (8000538 <display_msg+0x270>)
 8000374:	f04f 1102 	mov.w	r1, #131074	; 0x20002
 8000378:	6051      	str	r1, [r2, #4]
    delay= delay+ticks;
 800037a:	6819      	ldr	r1, [r3, #0]
 800037c:	3164      	adds	r1, #100	; 0x64
    while(ticks<=delay){
 800037e:	681a      	ldr	r2, [r3, #0]
 8000380:	4291      	cmp	r1, r2
 8000382:	d2fc      	bcs.n	800037e <display_msg+0xb6>
 8000384:	4a6c      	ldr	r2, [pc, #432]	; (8000538 <display_msg+0x270>)
 8000386:	f04f 1102 	mov.w	r1, #131074	; 0x20002
 800038a:	6051      	str	r1, [r2, #4]
    delay= delay+ticks;
 800038c:	6819      	ldr	r1, [r3, #0]
 800038e:	3164      	adds	r1, #100	; 0x64
    while(ticks<=delay){
 8000390:	681a      	ldr	r2, [r3, #0]
 8000392:	4291      	cmp	r1, r2
 8000394:	d2fc      	bcs.n	8000390 <display_msg+0xc8>
 8000396:	4a68      	ldr	r2, [pc, #416]	; (8000538 <display_msg+0x270>)
 8000398:	f04f 1102 	mov.w	r1, #131074	; 0x20002
 800039c:	6051      	str	r1, [r2, #4]
    delay= delay+ticks;
 800039e:	6819      	ldr	r1, [r3, #0]
 80003a0:	f501 7196 	add.w	r1, r1, #300	; 0x12c
    while(ticks<=delay){
 80003a4:	681a      	ldr	r2, [r3, #0]
 80003a6:	4291      	cmp	r1, r2
 80003a8:	d2fc      	bcs.n	80003a4 <display_msg+0xdc>
 80003aa:	4a63      	ldr	r2, [pc, #396]	; (8000538 <display_msg+0x270>)
 80003ac:	f04f 1102 	mov.w	r1, #131074	; 0x20002
 80003b0:	6051      	str	r1, [r2, #4]
    delay= delay+ticks;
 80003b2:	6819      	ldr	r1, [r3, #0]
 80003b4:	3164      	adds	r1, #100	; 0x64
    while(ticks<=delay){
 80003b6:	681a      	ldr	r2, [r3, #0]
 80003b8:	4291      	cmp	r1, r2
 80003ba:	d2fc      	bcs.n	80003b6 <display_msg+0xee>
 80003bc:	4a5e      	ldr	r2, [pc, #376]	; (8000538 <display_msg+0x270>)
 80003be:	f04f 1102 	mov.w	r1, #131074	; 0x20002
 80003c2:	6051      	str	r1, [r2, #4]
    delay= delay+ticks;
 80003c4:	6819      	ldr	r1, [r3, #0]
 80003c6:	3164      	adds	r1, #100	; 0x64
    while(ticks<=delay){
 80003c8:	681a      	ldr	r2, [r3, #0]
 80003ca:	4291      	cmp	r1, r2
 80003cc:	d2fc      	bcs.n	80003c8 <display_msg+0x100>
 80003ce:	4a5a      	ldr	r2, [pc, #360]	; (8000538 <display_msg+0x270>)
 80003d0:	f04f 1102 	mov.w	r1, #131074	; 0x20002
 80003d4:	6051      	str	r1, [r2, #4]
    delay= delay+ticks;
 80003d6:	6819      	ldr	r1, [r3, #0]
 80003d8:	f501 7196 	add.w	r1, r1, #300	; 0x12c
    while(ticks<=delay){
 80003dc:	681a      	ldr	r2, [r3, #0]
 80003de:	4291      	cmp	r1, r2
 80003e0:	d2fc      	bcs.n	80003dc <display_msg+0x114>
 80003e2:	4a55      	ldr	r2, [pc, #340]	; (8000538 <display_msg+0x270>)
 80003e4:	f04f 1102 	mov.w	r1, #131074	; 0x20002
 80003e8:	6051      	str	r1, [r2, #4]
    delay= delay+ticks;
 80003ea:	6819      	ldr	r1, [r3, #0]
 80003ec:	f501 7196 	add.w	r1, r1, #300	; 0x12c
    while(ticks<=delay){
 80003f0:	681a      	ldr	r2, [r3, #0]
 80003f2:	4291      	cmp	r1, r2
 80003f4:	d2fc      	bcs.n	80003f0 <display_msg+0x128>
 80003f6:	4a50      	ldr	r2, [pc, #320]	; (8000538 <display_msg+0x270>)
 80003f8:	f04f 1102 	mov.w	r1, #131074	; 0x20002
 80003fc:	6051      	str	r1, [r2, #4]
    delay= delay+ticks;
 80003fe:	6819      	ldr	r1, [r3, #0]
 8000400:	f501 7196 	add.w	r1, r1, #300	; 0x12c
    while(ticks<=delay){
 8000404:	681a      	ldr	r2, [r3, #0]
 8000406:	4291      	cmp	r1, r2
 8000408:	d2fc      	bcs.n	8000404 <display_msg+0x13c>
 800040a:	4a4b      	ldr	r2, [pc, #300]	; (8000538 <display_msg+0x270>)
 800040c:	f04f 1102 	mov.w	r1, #131074	; 0x20002
 8000410:	6051      	str	r1, [r2, #4]
    delay= delay+ticks;
 8000412:	6819      	ldr	r1, [r3, #0]
 8000414:	3164      	adds	r1, #100	; 0x64
    while(ticks<=delay){
 8000416:	681a      	ldr	r2, [r3, #0]
 8000418:	4291      	cmp	r1, r2
 800041a:	d2fc      	bcs.n	8000416 <display_msg+0x14e>
 800041c:	4a46      	ldr	r2, [pc, #280]	; (8000538 <display_msg+0x270>)
 800041e:	f04f 1102 	mov.w	r1, #131074	; 0x20002
 8000422:	6051      	str	r1, [r2, #4]
    delay= delay+ticks;
 8000424:	6819      	ldr	r1, [r3, #0]
 8000426:	3164      	adds	r1, #100	; 0x64
    while(ticks<=delay){
 8000428:	681a      	ldr	r2, [r3, #0]
 800042a:	4291      	cmp	r1, r2
 800042c:	d2fc      	bcs.n	8000428 <display_msg+0x160>
 800042e:	4a42      	ldr	r2, [pc, #264]	; (8000538 <display_msg+0x270>)
 8000430:	f04f 1102 	mov.w	r1, #131074	; 0x20002
 8000434:	6051      	str	r1, [r2, #4]
    delay= delay+ticks;
 8000436:	6819      	ldr	r1, [r3, #0]
 8000438:	f501 712f 	add.w	r1, r1, #700	; 0x2bc
    while(ticks<=delay){
 800043c:	681a      	ldr	r2, [r3, #0]
 800043e:	4291      	cmp	r1, r2
 8000440:	d2fc      	bcs.n	800043c <display_msg+0x174>
 8000442:	4a3d      	ldr	r2, [pc, #244]	; (8000538 <display_msg+0x270>)
 8000444:	f04f 1102 	mov.w	r1, #131074	; 0x20002
 8000448:	6051      	str	r1, [r2, #4]
    delay= delay+ticks;
 800044a:	6819      	ldr	r1, [r3, #0]
 800044c:	f501 7196 	add.w	r1, r1, #300	; 0x12c
    while(ticks<=delay){
 8000450:	681a      	ldr	r2, [r3, #0]
 8000452:	4291      	cmp	r1, r2
 8000454:	d2fc      	bcs.n	8000450 <display_msg+0x188>
 8000456:	4a38      	ldr	r2, [pc, #224]	; (8000538 <display_msg+0x270>)
 8000458:	f04f 1102 	mov.w	r1, #131074	; 0x20002
 800045c:	6051      	str	r1, [r2, #4]
    delay= delay+ticks;
 800045e:	6819      	ldr	r1, [r3, #0]
 8000460:	3164      	adds	r1, #100	; 0x64
    while(ticks<=delay){
 8000462:	681a      	ldr	r2, [r3, #0]
 8000464:	4291      	cmp	r1, r2
 8000466:	d2fc      	bcs.n	8000462 <display_msg+0x19a>
 8000468:	4a33      	ldr	r2, [pc, #204]	; (8000538 <display_msg+0x270>)
 800046a:	f04f 1102 	mov.w	r1, #131074	; 0x20002
 800046e:	6051      	str	r1, [r2, #4]
    delay= delay+ticks;
 8000470:	6819      	ldr	r1, [r3, #0]
 8000472:	f501 7196 	add.w	r1, r1, #300	; 0x12c
    while(ticks<=delay){
 8000476:	681a      	ldr	r2, [r3, #0]
 8000478:	4291      	cmp	r1, r2
 800047a:	d2fc      	bcs.n	8000476 <display_msg+0x1ae>
 800047c:	4a2e      	ldr	r2, [pc, #184]	; (8000538 <display_msg+0x270>)
 800047e:	f04f 1102 	mov.w	r1, #131074	; 0x20002
 8000482:	6051      	str	r1, [r2, #4]
    delay= delay+ticks;
 8000484:	6819      	ldr	r1, [r3, #0]
 8000486:	f501 7196 	add.w	r1, r1, #300	; 0x12c
    while(ticks<=delay){
 800048a:	681a      	ldr	r2, [r3, #0]
 800048c:	4291      	cmp	r1, r2
 800048e:	d2fc      	bcs.n	800048a <display_msg+0x1c2>
 8000490:	4a29      	ldr	r2, [pc, #164]	; (8000538 <display_msg+0x270>)
 8000492:	f04f 1102 	mov.w	r1, #131074	; 0x20002
 8000496:	6051      	str	r1, [r2, #4]
    delay= delay+ticks;
 8000498:	6819      	ldr	r1, [r3, #0]
 800049a:	f501 7196 	add.w	r1, r1, #300	; 0x12c
    while(ticks<=delay){
 800049e:	681a      	ldr	r2, [r3, #0]
 80004a0:	4291      	cmp	r1, r2
 80004a2:	d2fc      	bcs.n	800049e <display_msg+0x1d6>
 80004a4:	4a24      	ldr	r2, [pc, #144]	; (8000538 <display_msg+0x270>)
 80004a6:	f04f 1102 	mov.w	r1, #131074	; 0x20002
 80004aa:	6051      	str	r1, [r2, #4]
    delay= delay+ticks;
 80004ac:	6819      	ldr	r1, [r3, #0]
 80004ae:	3164      	adds	r1, #100	; 0x64
    while(ticks<=delay){
 80004b0:	681a      	ldr	r2, [r3, #0]
 80004b2:	4291      	cmp	r1, r2
 80004b4:	d2fc      	bcs.n	80004b0 <display_msg+0x1e8>
 80004b6:	4a20      	ldr	r2, [pc, #128]	; (8000538 <display_msg+0x270>)
 80004b8:	f04f 1102 	mov.w	r1, #131074	; 0x20002
 80004bc:	6051      	str	r1, [r2, #4]
    delay= delay+ticks;
 80004be:	6819      	ldr	r1, [r3, #0]
 80004c0:	f501 7196 	add.w	r1, r1, #300	; 0x12c
    while(ticks<=delay){
 80004c4:	681a      	ldr	r2, [r3, #0]
 80004c6:	4291      	cmp	r1, r2
 80004c8:	d2fc      	bcs.n	80004c4 <display_msg+0x1fc>
 80004ca:	4a1b      	ldr	r2, [pc, #108]	; (8000538 <display_msg+0x270>)
 80004cc:	f04f 1102 	mov.w	r1, #131074	; 0x20002
 80004d0:	6051      	str	r1, [r2, #4]
    delay= delay+ticks;
 80004d2:	6819      	ldr	r1, [r3, #0]
 80004d4:	3164      	adds	r1, #100	; 0x64
    while(ticks<=delay){
 80004d6:	681a      	ldr	r2, [r3, #0]
 80004d8:	4291      	cmp	r1, r2
 80004da:	d2fc      	bcs.n	80004d6 <display_msg+0x20e>
 80004dc:	4a16      	ldr	r2, [pc, #88]	; (8000538 <display_msg+0x270>)
 80004de:	f04f 1102 	mov.w	r1, #131074	; 0x20002
 80004e2:	6051      	str	r1, [r2, #4]
    delay= delay+ticks;
 80004e4:	6819      	ldr	r1, [r3, #0]
 80004e6:	f501 7196 	add.w	r1, r1, #300	; 0x12c
    while(ticks<=delay){
 80004ea:	681a      	ldr	r2, [r3, #0]
 80004ec:	4291      	cmp	r1, r2
 80004ee:	d2fc      	bcs.n	80004ea <display_msg+0x222>
 80004f0:	4a11      	ldr	r2, [pc, #68]	; (8000538 <display_msg+0x270>)
 80004f2:	f04f 1102 	mov.w	r1, #131074	; 0x20002
 80004f6:	6051      	str	r1, [r2, #4]
    delay= delay+ticks;
 80004f8:	6819      	ldr	r1, [r3, #0]
 80004fa:	f501 7196 	add.w	r1, r1, #300	; 0x12c
    while(ticks<=delay){
 80004fe:	681a      	ldr	r2, [r3, #0]
 8000500:	4291      	cmp	r1, r2
 8000502:	d2fc      	bcs.n	80004fe <display_msg+0x236>
 8000504:	4a0c      	ldr	r2, [pc, #48]	; (8000538 <display_msg+0x270>)
 8000506:	f04f 1102 	mov.w	r1, #131074	; 0x20002
 800050a:	6051      	str	r1, [r2, #4]
    delay= delay+ticks;
 800050c:	6819      	ldr	r1, [r3, #0]
 800050e:	3164      	adds	r1, #100	; 0x64
    while(ticks<=delay){
 8000510:	681a      	ldr	r2, [r3, #0]
 8000512:	4291      	cmp	r1, r2
 8000514:	d2fc      	bcs.n	8000510 <display_msg+0x248>
 8000516:	4a08      	ldr	r2, [pc, #32]	; (8000538 <display_msg+0x270>)
 8000518:	f04f 1102 	mov.w	r1, #131074	; 0x20002
 800051c:	6051      	str	r1, [r2, #4]
    delay= delay+ticks;
 800051e:	6819      	ldr	r1, [r3, #0]
 8000520:	3164      	adds	r1, #100	; 0x64
    while(ticks<=delay){
 8000522:	681a      	ldr	r2, [r3, #0]
 8000524:	4291      	cmp	r1, r2
 8000526:	d2fc      	bcs.n	8000522 <display_msg+0x25a>
 8000528:	4a03      	ldr	r2, [pc, #12]	; (8000538 <display_msg+0x270>)
 800052a:	f04f 1102 	mov.w	r1, #131074	; 0x20002
 800052e:	6051      	str	r1, [r2, #4]
    delay= delay+ticks;
 8000530:	6819      	ldr	r1, [r3, #0]
 8000532:	f501 7196 	add.w	r1, r1, #300	; 0x12c
 8000536:	e003      	b.n	8000540 <display_msg+0x278>
 8000538:	48028100 	.word	0x48028100
 800053c:	20000460 	.word	0x20000460
    while(ticks<=delay){
 8000540:	681a      	ldr	r2, [r3, #0]
 8000542:	4291      	cmp	r1, r2
 8000544:	d2fc      	bcs.n	8000540 <display_msg+0x278>
 8000546:	4a34      	ldr	r2, [pc, #208]	; (8000618 <display_msg+0x350>)
 8000548:	f04f 1102 	mov.w	r1, #131074	; 0x20002
 800054c:	6051      	str	r1, [r2, #4]
    delay= delay+ticks;
 800054e:	6819      	ldr	r1, [r3, #0]
 8000550:	3164      	adds	r1, #100	; 0x64
    while(ticks<=delay){
 8000552:	681a      	ldr	r2, [r3, #0]
 8000554:	4291      	cmp	r1, r2
 8000556:	d2fc      	bcs.n	8000552 <display_msg+0x28a>
 8000558:	4a2f      	ldr	r2, [pc, #188]	; (8000618 <display_msg+0x350>)
 800055a:	f04f 1102 	mov.w	r1, #131074	; 0x20002
 800055e:	6051      	str	r1, [r2, #4]
    delay= delay+ticks;
 8000560:	6819      	ldr	r1, [r3, #0]
 8000562:	3164      	adds	r1, #100	; 0x64
    while(ticks<=delay){
 8000564:	681a      	ldr	r2, [r3, #0]
 8000566:	4291      	cmp	r1, r2
 8000568:	d2fc      	bcs.n	8000564 <display_msg+0x29c>
 800056a:	4a2b      	ldr	r2, [pc, #172]	; (8000618 <display_msg+0x350>)
 800056c:	f04f 1102 	mov.w	r1, #131074	; 0x20002
 8000570:	6051      	str	r1, [r2, #4]
    delay= delay+ticks;
 8000572:	6819      	ldr	r1, [r3, #0]
 8000574:	f501 7196 	add.w	r1, r1, #300	; 0x12c
    while(ticks<=delay){
 8000578:	681a      	ldr	r2, [r3, #0]
 800057a:	4291      	cmp	r1, r2
 800057c:	d2fc      	bcs.n	8000578 <display_msg+0x2b0>
 800057e:	4a26      	ldr	r2, [pc, #152]	; (8000618 <display_msg+0x350>)
 8000580:	f04f 1102 	mov.w	r1, #131074	; 0x20002
 8000584:	6051      	str	r1, [r2, #4]
    delay= delay+ticks;
 8000586:	6819      	ldr	r1, [r3, #0]
 8000588:	3164      	adds	r1, #100	; 0x64
    while(ticks<=delay){
 800058a:	681a      	ldr	r2, [r3, #0]
 800058c:	4291      	cmp	r1, r2
 800058e:	d2fc      	bcs.n	800058a <display_msg+0x2c2>
 8000590:	4a21      	ldr	r2, [pc, #132]	; (8000618 <display_msg+0x350>)
 8000592:	f04f 1102 	mov.w	r1, #131074	; 0x20002
 8000596:	6051      	str	r1, [r2, #4]
    delay= delay+ticks;
 8000598:	6819      	ldr	r1, [r3, #0]
 800059a:	3164      	adds	r1, #100	; 0x64
    while(ticks<=delay){
 800059c:	681a      	ldr	r2, [r3, #0]
 800059e:	4291      	cmp	r1, r2
 80005a0:	d2fc      	bcs.n	800059c <display_msg+0x2d4>
 80005a2:	4a1d      	ldr	r2, [pc, #116]	; (8000618 <display_msg+0x350>)
 80005a4:	f04f 1102 	mov.w	r1, #131074	; 0x20002
 80005a8:	6051      	str	r1, [r2, #4]
    delay= delay+ticks;
 80005aa:	6819      	ldr	r1, [r3, #0]
 80005ac:	3164      	adds	r1, #100	; 0x64
    while(ticks<=delay){
 80005ae:	681a      	ldr	r2, [r3, #0]
 80005b0:	4291      	cmp	r1, r2
 80005b2:	d2fc      	bcs.n	80005ae <display_msg+0x2e6>
 80005b4:	4a18      	ldr	r2, [pc, #96]	; (8000618 <display_msg+0x350>)
 80005b6:	f04f 1102 	mov.w	r1, #131074	; 0x20002
 80005ba:	6051      	str	r1, [r2, #4]
    delay= delay+ticks;
 80005bc:	6819      	ldr	r1, [r3, #0]
 80005be:	3164      	adds	r1, #100	; 0x64
    while(ticks<=delay){
 80005c0:	681a      	ldr	r2, [r3, #0]
 80005c2:	4291      	cmp	r1, r2
 80005c4:	d2fc      	bcs.n	80005c0 <display_msg+0x2f8>
 80005c6:	4a14      	ldr	r2, [pc, #80]	; (8000618 <display_msg+0x350>)
 80005c8:	f04f 1102 	mov.w	r1, #131074	; 0x20002
 80005cc:	6051      	str	r1, [r2, #4]
    delay= delay+ticks;
 80005ce:	6819      	ldr	r1, [r3, #0]
 80005d0:	3164      	adds	r1, #100	; 0x64
    while(ticks<=delay){
 80005d2:	681a      	ldr	r2, [r3, #0]
 80005d4:	4291      	cmp	r1, r2
 80005d6:	d2fc      	bcs.n	80005d2 <display_msg+0x30a>
 80005d8:	4a0f      	ldr	r2, [pc, #60]	; (8000618 <display_msg+0x350>)
 80005da:	f04f 1102 	mov.w	r1, #131074	; 0x20002
 80005de:	6051      	str	r1, [r2, #4]
    delay= delay+ticks;
 80005e0:	6819      	ldr	r1, [r3, #0]
 80005e2:	f501 7196 	add.w	r1, r1, #300	; 0x12c
    while(ticks<=delay){
 80005e6:	681a      	ldr	r2, [r3, #0]
 80005e8:	4291      	cmp	r1, r2
 80005ea:	d2fc      	bcs.n	80005e6 <display_msg+0x31e>
 80005ec:	4a0a      	ldr	r2, [pc, #40]	; (8000618 <display_msg+0x350>)
 80005ee:	f04f 1102 	mov.w	r1, #131074	; 0x20002
 80005f2:	6051      	str	r1, [r2, #4]
    delay= delay+ticks;
 80005f4:	6819      	ldr	r1, [r3, #0]
 80005f6:	3164      	adds	r1, #100	; 0x64
    while(ticks<=delay){
 80005f8:	681a      	ldr	r2, [r3, #0]
 80005fa:	4291      	cmp	r1, r2
 80005fc:	d2fc      	bcs.n	80005f8 <display_msg+0x330>
 80005fe:	4a06      	ldr	r2, [pc, #24]	; (8000618 <display_msg+0x350>)
 8000600:	f04f 1102 	mov.w	r1, #131074	; 0x20002
 8000604:	6051      	str	r1, [r2, #4]
    delay= delay+ticks;
 8000606:	6819      	ldr	r1, [r3, #0]
 8000608:	f501 519c 	add.w	r1, r1, #4992	; 0x1380
 800060c:	3108      	adds	r1, #8
    while(ticks<=delay){
 800060e:	681a      	ldr	r2, [r3, #0]
 8000610:	4291      	cmp	r1, r2
 8000612:	d2fc      	bcs.n	800060e <display_msg+0x346>
  delay_ms(DOT);  
  //"END"
  XMC_GPIO_ToggleOutput(GPIO_LED1);//1
  delay_ms(REST);
  
}
 8000614:	4770      	bx	lr
 8000616:	bf00      	nop
 8000618:	48028100 	.word	0x48028100

0800061c <display_number>:



void display_number(uint32_t number){
    
    switch(number) {
 800061c:	2809      	cmp	r0, #9
 800061e:	d86b      	bhi.n	80006f8 <display_number+0xdc>
 8000620:	e8df f010 	tbh	[pc, r0, lsl #1]
 8000624:	00cd006b 	.word	0x00cd006b
 8000628:	018f0252 	.word	0x018f0252
 800062c:	01320310 	.word	0x01320310
 8000630:	01ee02b2 	.word	0x01ee02b2
 8000634:	000a0372 	.word	0x000a0372
 8000638:	4a91      	ldr	r2, [pc, #580]	; (8000880 <display_number+0x264>)
    delay= delay+ticks;
 800063a:	4b92      	ldr	r3, [pc, #584]	; (8000884 <display_number+0x268>)
 800063c:	f04f 1102 	mov.w	r1, #131074	; 0x20002
 8000640:	6051      	str	r1, [r2, #4]
 8000642:	6819      	ldr	r1, [r3, #0]
 8000644:	f501 7196 	add.w	r1, r1, #300	; 0x12c
    while(ticks<=delay){
 8000648:	681a      	ldr	r2, [r3, #0]
 800064a:	4291      	cmp	r1, r2
 800064c:	d2fc      	bcs.n	8000648 <display_number+0x2c>
 800064e:	4a8c      	ldr	r2, [pc, #560]	; (8000880 <display_number+0x264>)
 8000650:	f04f 1102 	mov.w	r1, #131074	; 0x20002
 8000654:	6051      	str	r1, [r2, #4]
    delay= delay+ticks;
 8000656:	6819      	ldr	r1, [r3, #0]
 8000658:	3164      	adds	r1, #100	; 0x64
    while(ticks<=delay){
 800065a:	681a      	ldr	r2, [r3, #0]
 800065c:	4291      	cmp	r1, r2
 800065e:	d2fc      	bcs.n	800065a <display_number+0x3e>
 8000660:	4a87      	ldr	r2, [pc, #540]	; (8000880 <display_number+0x264>)
 8000662:	f04f 1102 	mov.w	r1, #131074	; 0x20002
 8000666:	6051      	str	r1, [r2, #4]
    delay= delay+ticks;
 8000668:	6819      	ldr	r1, [r3, #0]
 800066a:	f501 7196 	add.w	r1, r1, #300	; 0x12c
    while(ticks<=delay){
 800066e:	681a      	ldr	r2, [r3, #0]
 8000670:	4291      	cmp	r1, r2
 8000672:	d2fc      	bcs.n	800066e <display_number+0x52>
 8000674:	4a82      	ldr	r2, [pc, #520]	; (8000880 <display_number+0x264>)
 8000676:	f04f 1102 	mov.w	r1, #131074	; 0x20002
 800067a:	6051      	str	r1, [r2, #4]
    delay= delay+ticks;
 800067c:	6819      	ldr	r1, [r3, #0]
 800067e:	3164      	adds	r1, #100	; 0x64
    while(ticks<=delay){
 8000680:	681a      	ldr	r2, [r3, #0]
 8000682:	4291      	cmp	r1, r2
 8000684:	d2fc      	bcs.n	8000680 <display_number+0x64>
 8000686:	4a7e      	ldr	r2, [pc, #504]	; (8000880 <display_number+0x264>)
 8000688:	f04f 1102 	mov.w	r1, #131074	; 0x20002
 800068c:	6051      	str	r1, [r2, #4]
    delay= delay+ticks;
 800068e:	6819      	ldr	r1, [r3, #0]
 8000690:	f501 7196 	add.w	r1, r1, #300	; 0x12c
    while(ticks<=delay){
 8000694:	681a      	ldr	r2, [r3, #0]
 8000696:	4291      	cmp	r1, r2
 8000698:	d2fc      	bcs.n	8000694 <display_number+0x78>
 800069a:	4a79      	ldr	r2, [pc, #484]	; (8000880 <display_number+0x264>)
 800069c:	f04f 1102 	mov.w	r1, #131074	; 0x20002
 80006a0:	6051      	str	r1, [r2, #4]
    delay= delay+ticks;
 80006a2:	6819      	ldr	r1, [r3, #0]
 80006a4:	3164      	adds	r1, #100	; 0x64
    while(ticks<=delay){
 80006a6:	681a      	ldr	r2, [r3, #0]
 80006a8:	4291      	cmp	r1, r2
 80006aa:	d2fc      	bcs.n	80006a6 <display_number+0x8a>
 80006ac:	4a74      	ldr	r2, [pc, #464]	; (8000880 <display_number+0x264>)
 80006ae:	f04f 1102 	mov.w	r1, #131074	; 0x20002
 80006b2:	6051      	str	r1, [r2, #4]
    delay= delay+ticks;
 80006b4:	6819      	ldr	r1, [r3, #0]
 80006b6:	f501 7196 	add.w	r1, r1, #300	; 0x12c
    while(ticks<=delay){
 80006ba:	681a      	ldr	r2, [r3, #0]
 80006bc:	4291      	cmp	r1, r2
 80006be:	d2fc      	bcs.n	80006ba <display_number+0x9e>
 80006c0:	4a6f      	ldr	r2, [pc, #444]	; (8000880 <display_number+0x264>)
 80006c2:	f04f 1102 	mov.w	r1, #131074	; 0x20002
 80006c6:	6051      	str	r1, [r2, #4]
    delay= delay+ticks;
 80006c8:	6819      	ldr	r1, [r3, #0]
 80006ca:	3164      	adds	r1, #100	; 0x64
    while(ticks<=delay){
 80006cc:	681a      	ldr	r2, [r3, #0]
 80006ce:	4291      	cmp	r1, r2
 80006d0:	d2fc      	bcs.n	80006cc <display_number+0xb0>
 80006d2:	4a6b      	ldr	r2, [pc, #428]	; (8000880 <display_number+0x264>)
 80006d4:	f04f 1102 	mov.w	r1, #131074	; 0x20002
 80006d8:	6051      	str	r1, [r2, #4]
    delay= delay+ticks;
 80006da:	6819      	ldr	r1, [r3, #0]
 80006dc:	3164      	adds	r1, #100	; 0x64
    while(ticks<=delay){
 80006de:	681a      	ldr	r2, [r3, #0]
 80006e0:	4291      	cmp	r1, r2
 80006e2:	d2fc      	bcs.n	80006de <display_number+0xc2>
 80006e4:	4a66      	ldr	r2, [pc, #408]	; (8000880 <display_number+0x264>)
 80006e6:	f04f 1102 	mov.w	r1, #131074	; 0x20002
 80006ea:	6051      	str	r1, [r2, #4]
    delay= delay+ticks;
 80006ec:	6819      	ldr	r1, [r3, #0]
 80006ee:	f501 7196 	add.w	r1, r1, #300	; 0x12c
    while(ticks<=delay){
 80006f2:	681a      	ldr	r2, [r3, #0]
 80006f4:	4291      	cmp	r1, r2
 80006f6:	d2fc      	bcs.n	80006f2 <display_number+0xd6>
  default:
    // code block
    break;
}
    
}
 80006f8:	4770      	bx	lr
 80006fa:	4a61      	ldr	r2, [pc, #388]	; (8000880 <display_number+0x264>)
    delay= delay+ticks;
 80006fc:	4b61      	ldr	r3, [pc, #388]	; (8000884 <display_number+0x268>)
 80006fe:	f04f 1102 	mov.w	r1, #131074	; 0x20002
 8000702:	6051      	str	r1, [r2, #4]
 8000704:	6819      	ldr	r1, [r3, #0]
 8000706:	f501 7196 	add.w	r1, r1, #300	; 0x12c
    while(ticks<=delay){
 800070a:	681a      	ldr	r2, [r3, #0]
 800070c:	4291      	cmp	r1, r2
 800070e:	d2fc      	bcs.n	800070a <display_number+0xee>
 8000710:	4a5b      	ldr	r2, [pc, #364]	; (8000880 <display_number+0x264>)
 8000712:	f04f 1102 	mov.w	r1, #131074	; 0x20002
 8000716:	6051      	str	r1, [r2, #4]
    delay= delay+ticks;
 8000718:	6819      	ldr	r1, [r3, #0]
 800071a:	3164      	adds	r1, #100	; 0x64
    while(ticks<=delay){
 800071c:	681a      	ldr	r2, [r3, #0]
 800071e:	4291      	cmp	r1, r2
 8000720:	d2fc      	bcs.n	800071c <display_number+0x100>
 8000722:	4a57      	ldr	r2, [pc, #348]	; (8000880 <display_number+0x264>)
 8000724:	f04f 1102 	mov.w	r1, #131074	; 0x20002
 8000728:	6051      	str	r1, [r2, #4]
    delay= delay+ticks;
 800072a:	6819      	ldr	r1, [r3, #0]
 800072c:	f501 7196 	add.w	r1, r1, #300	; 0x12c
    while(ticks<=delay){
 8000730:	681a      	ldr	r2, [r3, #0]
 8000732:	4291      	cmp	r1, r2
 8000734:	d2fc      	bcs.n	8000730 <display_number+0x114>
 8000736:	4a52      	ldr	r2, [pc, #328]	; (8000880 <display_number+0x264>)
 8000738:	f04f 1102 	mov.w	r1, #131074	; 0x20002
 800073c:	6051      	str	r1, [r2, #4]
    delay= delay+ticks;
 800073e:	6819      	ldr	r1, [r3, #0]
 8000740:	3164      	adds	r1, #100	; 0x64
    while(ticks<=delay){
 8000742:	681a      	ldr	r2, [r3, #0]
 8000744:	4291      	cmp	r1, r2
 8000746:	d2fc      	bcs.n	8000742 <display_number+0x126>
 8000748:	4a4d      	ldr	r2, [pc, #308]	; (8000880 <display_number+0x264>)
 800074a:	f04f 1102 	mov.w	r1, #131074	; 0x20002
 800074e:	6051      	str	r1, [r2, #4]
    delay= delay+ticks;
 8000750:	6819      	ldr	r1, [r3, #0]
 8000752:	f501 7196 	add.w	r1, r1, #300	; 0x12c
    while(ticks<=delay){
 8000756:	681a      	ldr	r2, [r3, #0]
 8000758:	4291      	cmp	r1, r2
 800075a:	d2fc      	bcs.n	8000756 <display_number+0x13a>
 800075c:	4a48      	ldr	r2, [pc, #288]	; (8000880 <display_number+0x264>)
 800075e:	f04f 1102 	mov.w	r1, #131074	; 0x20002
 8000762:	6051      	str	r1, [r2, #4]
    delay= delay+ticks;
 8000764:	6819      	ldr	r1, [r3, #0]
 8000766:	3164      	adds	r1, #100	; 0x64
    while(ticks<=delay){
 8000768:	681a      	ldr	r2, [r3, #0]
 800076a:	4291      	cmp	r1, r2
 800076c:	d2fc      	bcs.n	8000768 <display_number+0x14c>
 800076e:	4a44      	ldr	r2, [pc, #272]	; (8000880 <display_number+0x264>)
 8000770:	f04f 1102 	mov.w	r1, #131074	; 0x20002
 8000774:	6051      	str	r1, [r2, #4]
    delay= delay+ticks;
 8000776:	6819      	ldr	r1, [r3, #0]
 8000778:	f501 7196 	add.w	r1, r1, #300	; 0x12c
    while(ticks<=delay){
 800077c:	681a      	ldr	r2, [r3, #0]
 800077e:	4291      	cmp	r1, r2
 8000780:	d2fc      	bcs.n	800077c <display_number+0x160>
 8000782:	4a3f      	ldr	r2, [pc, #252]	; (8000880 <display_number+0x264>)
 8000784:	f04f 1102 	mov.w	r1, #131074	; 0x20002
 8000788:	6051      	str	r1, [r2, #4]
    delay= delay+ticks;
 800078a:	6819      	ldr	r1, [r3, #0]
 800078c:	3164      	adds	r1, #100	; 0x64
    while(ticks<=delay){
 800078e:	681a      	ldr	r2, [r3, #0]
 8000790:	4291      	cmp	r1, r2
 8000792:	d2fc      	bcs.n	800078e <display_number+0x172>
 8000794:	4a3a      	ldr	r2, [pc, #232]	; (8000880 <display_number+0x264>)
 8000796:	f04f 1102 	mov.w	r1, #131074	; 0x20002
 800079a:	6051      	str	r1, [r2, #4]
    delay= delay+ticks;
 800079c:	6819      	ldr	r1, [r3, #0]
 800079e:	f501 7196 	add.w	r1, r1, #300	; 0x12c
    while(ticks<=delay){
 80007a2:	681a      	ldr	r2, [r3, #0]
 80007a4:	4291      	cmp	r1, r2
 80007a6:	d2fc      	bcs.n	80007a2 <display_number+0x186>
 80007a8:	4a35      	ldr	r2, [pc, #212]	; (8000880 <display_number+0x264>)
 80007aa:	f04f 1102 	mov.w	r1, #131074	; 0x20002
 80007ae:	6051      	str	r1, [r2, #4]
    delay= delay+ticks;
 80007b0:	6819      	ldr	r1, [r3, #0]
 80007b2:	f501 7196 	add.w	r1, r1, #300	; 0x12c
    while(ticks<=delay){
 80007b6:	681a      	ldr	r2, [r3, #0]
 80007b8:	4291      	cmp	r1, r2
 80007ba:	d2fc      	bcs.n	80007b6 <display_number+0x19a>
 80007bc:	4770      	bx	lr
 80007be:	4a30      	ldr	r2, [pc, #192]	; (8000880 <display_number+0x264>)
    delay= delay+ticks;
 80007c0:	4b30      	ldr	r3, [pc, #192]	; (8000884 <display_number+0x268>)
 80007c2:	f04f 1102 	mov.w	r1, #131074	; 0x20002
 80007c6:	6051      	str	r1, [r2, #4]
 80007c8:	6819      	ldr	r1, [r3, #0]
 80007ca:	3164      	adds	r1, #100	; 0x64
    while(ticks<=delay){
 80007cc:	681a      	ldr	r2, [r3, #0]
 80007ce:	4291      	cmp	r1, r2
 80007d0:	d2fc      	bcs.n	80007cc <display_number+0x1b0>
 80007d2:	4a2b      	ldr	r2, [pc, #172]	; (8000880 <display_number+0x264>)
 80007d4:	f04f 1102 	mov.w	r1, #131074	; 0x20002
 80007d8:	6051      	str	r1, [r2, #4]
    delay= delay+ticks;
 80007da:	6819      	ldr	r1, [r3, #0]
 80007dc:	3164      	adds	r1, #100	; 0x64
    while(ticks<=delay){
 80007de:	681a      	ldr	r2, [r3, #0]
 80007e0:	4291      	cmp	r1, r2
 80007e2:	d2fc      	bcs.n	80007de <display_number+0x1c2>
 80007e4:	4a26      	ldr	r2, [pc, #152]	; (8000880 <display_number+0x264>)
 80007e6:	f04f 1102 	mov.w	r1, #131074	; 0x20002
 80007ea:	6051      	str	r1, [r2, #4]
    delay= delay+ticks;
 80007ec:	6819      	ldr	r1, [r3, #0]
 80007ee:	f501 7196 	add.w	r1, r1, #300	; 0x12c
    while(ticks<=delay){
 80007f2:	681a      	ldr	r2, [r3, #0]
 80007f4:	4291      	cmp	r1, r2
 80007f6:	d2fc      	bcs.n	80007f2 <display_number+0x1d6>
 80007f8:	4a21      	ldr	r2, [pc, #132]	; (8000880 <display_number+0x264>)
 80007fa:	f04f 1102 	mov.w	r1, #131074	; 0x20002
 80007fe:	6051      	str	r1, [r2, #4]
    delay= delay+ticks;
 8000800:	6819      	ldr	r1, [r3, #0]
 8000802:	3164      	adds	r1, #100	; 0x64
    while(ticks<=delay){
 8000804:	681a      	ldr	r2, [r3, #0]
 8000806:	4291      	cmp	r1, r2
 8000808:	d2fc      	bcs.n	8000804 <display_number+0x1e8>
 800080a:	4a1d      	ldr	r2, [pc, #116]	; (8000880 <display_number+0x264>)
 800080c:	f04f 1102 	mov.w	r1, #131074	; 0x20002
 8000810:	6051      	str	r1, [r2, #4]
    delay= delay+ticks;
 8000812:	6819      	ldr	r1, [r3, #0]
 8000814:	f501 7196 	add.w	r1, r1, #300	; 0x12c
    while(ticks<=delay){
 8000818:	681a      	ldr	r2, [r3, #0]
 800081a:	4291      	cmp	r1, r2
 800081c:	d2fc      	bcs.n	8000818 <display_number+0x1fc>
 800081e:	4a18      	ldr	r2, [pc, #96]	; (8000880 <display_number+0x264>)
 8000820:	f04f 1102 	mov.w	r1, #131074	; 0x20002
 8000824:	6051      	str	r1, [r2, #4]
    delay= delay+ticks;
 8000826:	6819      	ldr	r1, [r3, #0]
 8000828:	3164      	adds	r1, #100	; 0x64
    while(ticks<=delay){
 800082a:	681a      	ldr	r2, [r3, #0]
 800082c:	4291      	cmp	r1, r2
 800082e:	d2fc      	bcs.n	800082a <display_number+0x20e>
 8000830:	4a13      	ldr	r2, [pc, #76]	; (8000880 <display_number+0x264>)
 8000832:	f04f 1102 	mov.w	r1, #131074	; 0x20002
 8000836:	6051      	str	r1, [r2, #4]
    delay= delay+ticks;
 8000838:	6819      	ldr	r1, [r3, #0]
 800083a:	f501 7196 	add.w	r1, r1, #300	; 0x12c
    while(ticks<=delay){
 800083e:	681a      	ldr	r2, [r3, #0]
 8000840:	4291      	cmp	r1, r2
 8000842:	d2fc      	bcs.n	800083e <display_number+0x222>
 8000844:	4a0e      	ldr	r2, [pc, #56]	; (8000880 <display_number+0x264>)
 8000846:	f04f 1102 	mov.w	r1, #131074	; 0x20002
 800084a:	6051      	str	r1, [r2, #4]
    delay= delay+ticks;
 800084c:	6819      	ldr	r1, [r3, #0]
 800084e:	3164      	adds	r1, #100	; 0x64
    while(ticks<=delay){
 8000850:	681a      	ldr	r2, [r3, #0]
 8000852:	4291      	cmp	r1, r2
 8000854:	d2fc      	bcs.n	8000850 <display_number+0x234>
 8000856:	4a0a      	ldr	r2, [pc, #40]	; (8000880 <display_number+0x264>)
 8000858:	f04f 1102 	mov.w	r1, #131074	; 0x20002
 800085c:	6051      	str	r1, [r2, #4]
    delay= delay+ticks;
 800085e:	6819      	ldr	r1, [r3, #0]
 8000860:	f501 7196 	add.w	r1, r1, #300	; 0x12c
    while(ticks<=delay){
 8000864:	681a      	ldr	r2, [r3, #0]
 8000866:	4291      	cmp	r1, r2
 8000868:	d2fc      	bcs.n	8000864 <display_number+0x248>
 800086a:	4a05      	ldr	r2, [pc, #20]	; (8000880 <display_number+0x264>)
 800086c:	f04f 1102 	mov.w	r1, #131074	; 0x20002
 8000870:	6051      	str	r1, [r2, #4]
    delay= delay+ticks;
 8000872:	6819      	ldr	r1, [r3, #0]
 8000874:	f501 7196 	add.w	r1, r1, #300	; 0x12c
    while(ticks<=delay){
 8000878:	681a      	ldr	r2, [r3, #0]
 800087a:	4291      	cmp	r1, r2
 800087c:	d2fc      	bcs.n	8000878 <display_number+0x25c>
 800087e:	4770      	bx	lr
 8000880:	48028100 	.word	0x48028100
 8000884:	20000460 	.word	0x20000460
 8000888:	4a8d      	ldr	r2, [pc, #564]	; (8000ac0 <display_number+0x4a4>)
    delay= delay+ticks;
 800088a:	4b8e      	ldr	r3, [pc, #568]	; (8000ac4 <display_number+0x4a8>)
 800088c:	f04f 1102 	mov.w	r1, #131074	; 0x20002
 8000890:	6051      	str	r1, [r2, #4]
 8000892:	6819      	ldr	r1, [r3, #0]
 8000894:	3164      	adds	r1, #100	; 0x64
    while(ticks<=delay){
 8000896:	681a      	ldr	r2, [r3, #0]
 8000898:	4291      	cmp	r1, r2
 800089a:	d2fc      	bcs.n	8000896 <display_number+0x27a>
 800089c:	4a88      	ldr	r2, [pc, #544]	; (8000ac0 <display_number+0x4a4>)
 800089e:	f04f 1102 	mov.w	r1, #131074	; 0x20002
 80008a2:	6051      	str	r1, [r2, #4]
    delay= delay+ticks;
 80008a4:	6819      	ldr	r1, [r3, #0]
 80008a6:	3164      	adds	r1, #100	; 0x64
    while(ticks<=delay){
 80008a8:	681a      	ldr	r2, [r3, #0]
 80008aa:	4291      	cmp	r1, r2
 80008ac:	d2fc      	bcs.n	80008a8 <display_number+0x28c>
 80008ae:	4a84      	ldr	r2, [pc, #528]	; (8000ac0 <display_number+0x4a4>)
 80008b0:	f04f 1102 	mov.w	r1, #131074	; 0x20002
 80008b4:	6051      	str	r1, [r2, #4]
    delay= delay+ticks;
 80008b6:	6819      	ldr	r1, [r3, #0]
 80008b8:	3164      	adds	r1, #100	; 0x64
    while(ticks<=delay){
 80008ba:	681a      	ldr	r2, [r3, #0]
 80008bc:	4291      	cmp	r1, r2
 80008be:	d2fc      	bcs.n	80008ba <display_number+0x29e>
 80008c0:	4a7f      	ldr	r2, [pc, #508]	; (8000ac0 <display_number+0x4a4>)
 80008c2:	f04f 1102 	mov.w	r1, #131074	; 0x20002
 80008c6:	6051      	str	r1, [r2, #4]
    delay= delay+ticks;
 80008c8:	6819      	ldr	r1, [r3, #0]
 80008ca:	3164      	adds	r1, #100	; 0x64
    while(ticks<=delay){
 80008cc:	681a      	ldr	r2, [r3, #0]
 80008ce:	4291      	cmp	r1, r2
 80008d0:	d2fc      	bcs.n	80008cc <display_number+0x2b0>
 80008d2:	4a7b      	ldr	r2, [pc, #492]	; (8000ac0 <display_number+0x4a4>)
 80008d4:	f04f 1102 	mov.w	r1, #131074	; 0x20002
 80008d8:	6051      	str	r1, [r2, #4]
    delay= delay+ticks;
 80008da:	6819      	ldr	r1, [r3, #0]
 80008dc:	3164      	adds	r1, #100	; 0x64
    while(ticks<=delay){
 80008de:	681a      	ldr	r2, [r3, #0]
 80008e0:	4291      	cmp	r1, r2
 80008e2:	d2fc      	bcs.n	80008de <display_number+0x2c2>
 80008e4:	4a76      	ldr	r2, [pc, #472]	; (8000ac0 <display_number+0x4a4>)
 80008e6:	f04f 1102 	mov.w	r1, #131074	; 0x20002
 80008ea:	6051      	str	r1, [r2, #4]
    delay= delay+ticks;
 80008ec:	6819      	ldr	r1, [r3, #0]
 80008ee:	3164      	adds	r1, #100	; 0x64
    while(ticks<=delay){
 80008f0:	681a      	ldr	r2, [r3, #0]
 80008f2:	4291      	cmp	r1, r2
 80008f4:	d2fc      	bcs.n	80008f0 <display_number+0x2d4>
 80008f6:	4a72      	ldr	r2, [pc, #456]	; (8000ac0 <display_number+0x4a4>)
 80008f8:	f04f 1102 	mov.w	r1, #131074	; 0x20002
 80008fc:	6051      	str	r1, [r2, #4]
    delay= delay+ticks;
 80008fe:	6819      	ldr	r1, [r3, #0]
 8000900:	3164      	adds	r1, #100	; 0x64
    while(ticks<=delay){
 8000902:	681a      	ldr	r2, [r3, #0]
 8000904:	4291      	cmp	r1, r2
 8000906:	d2fc      	bcs.n	8000902 <display_number+0x2e6>
 8000908:	4a6d      	ldr	r2, [pc, #436]	; (8000ac0 <display_number+0x4a4>)
 800090a:	f04f 1102 	mov.w	r1, #131074	; 0x20002
 800090e:	6051      	str	r1, [r2, #4]
    delay= delay+ticks;
 8000910:	6819      	ldr	r1, [r3, #0]
 8000912:	3164      	adds	r1, #100	; 0x64
    while(ticks<=delay){
 8000914:	681a      	ldr	r2, [r3, #0]
 8000916:	4291      	cmp	r1, r2
 8000918:	d2fc      	bcs.n	8000914 <display_number+0x2f8>
 800091a:	4a69      	ldr	r2, [pc, #420]	; (8000ac0 <display_number+0x4a4>)
 800091c:	f04f 1102 	mov.w	r1, #131074	; 0x20002
 8000920:	6051      	str	r1, [r2, #4]
    delay= delay+ticks;
 8000922:	6819      	ldr	r1, [r3, #0]
 8000924:	3164      	adds	r1, #100	; 0x64
    while(ticks<=delay){
 8000926:	681a      	ldr	r2, [r3, #0]
 8000928:	4291      	cmp	r1, r2
 800092a:	d2fc      	bcs.n	8000926 <display_number+0x30a>
 800092c:	4a64      	ldr	r2, [pc, #400]	; (8000ac0 <display_number+0x4a4>)
 800092e:	f04f 1102 	mov.w	r1, #131074	; 0x20002
 8000932:	6051      	str	r1, [r2, #4]
    delay= delay+ticks;
 8000934:	6819      	ldr	r1, [r3, #0]
 8000936:	f501 7196 	add.w	r1, r1, #300	; 0x12c
    while(ticks<=delay){
 800093a:	681a      	ldr	r2, [r3, #0]
 800093c:	4291      	cmp	r1, r2
 800093e:	d2fc      	bcs.n	800093a <display_number+0x31e>
 8000940:	4770      	bx	lr
 8000942:	4a5f      	ldr	r2, [pc, #380]	; (8000ac0 <display_number+0x4a4>)
    delay= delay+ticks;
 8000944:	4b5f      	ldr	r3, [pc, #380]	; (8000ac4 <display_number+0x4a8>)
 8000946:	f04f 1102 	mov.w	r1, #131074	; 0x20002
 800094a:	6051      	str	r1, [r2, #4]
 800094c:	6819      	ldr	r1, [r3, #0]
 800094e:	3164      	adds	r1, #100	; 0x64
    while(ticks<=delay){
 8000950:	681a      	ldr	r2, [r3, #0]
 8000952:	4291      	cmp	r1, r2
 8000954:	d2fc      	bcs.n	8000950 <display_number+0x334>
 8000956:	4a5a      	ldr	r2, [pc, #360]	; (8000ac0 <display_number+0x4a4>)
 8000958:	f04f 1102 	mov.w	r1, #131074	; 0x20002
 800095c:	6051      	str	r1, [r2, #4]
    delay= delay+ticks;
 800095e:	6819      	ldr	r1, [r3, #0]
 8000960:	3164      	adds	r1, #100	; 0x64
    while(ticks<=delay){
 8000962:	681a      	ldr	r2, [r3, #0]
 8000964:	4291      	cmp	r1, r2
 8000966:	d2fc      	bcs.n	8000962 <display_number+0x346>
 8000968:	4a55      	ldr	r2, [pc, #340]	; (8000ac0 <display_number+0x4a4>)
 800096a:	f04f 1102 	mov.w	r1, #131074	; 0x20002
 800096e:	6051      	str	r1, [r2, #4]
    delay= delay+ticks;
 8000970:	6819      	ldr	r1, [r3, #0]
 8000972:	3164      	adds	r1, #100	; 0x64
    while(ticks<=delay){
 8000974:	681a      	ldr	r2, [r3, #0]
 8000976:	4291      	cmp	r1, r2
 8000978:	d2fc      	bcs.n	8000974 <display_number+0x358>
 800097a:	4a51      	ldr	r2, [pc, #324]	; (8000ac0 <display_number+0x4a4>)
 800097c:	f04f 1102 	mov.w	r1, #131074	; 0x20002
 8000980:	6051      	str	r1, [r2, #4]
    delay= delay+ticks;
 8000982:	6819      	ldr	r1, [r3, #0]
 8000984:	3164      	adds	r1, #100	; 0x64
    while(ticks<=delay){
 8000986:	681a      	ldr	r2, [r3, #0]
 8000988:	4291      	cmp	r1, r2
 800098a:	d2fc      	bcs.n	8000986 <display_number+0x36a>
 800098c:	4a4c      	ldr	r2, [pc, #304]	; (8000ac0 <display_number+0x4a4>)
 800098e:	f04f 1102 	mov.w	r1, #131074	; 0x20002
 8000992:	6051      	str	r1, [r2, #4]
    delay= delay+ticks;
 8000994:	6819      	ldr	r1, [r3, #0]
 8000996:	3164      	adds	r1, #100	; 0x64
    while(ticks<=delay){
 8000998:	681a      	ldr	r2, [r3, #0]
 800099a:	4291      	cmp	r1, r2
 800099c:	d2fc      	bcs.n	8000998 <display_number+0x37c>
 800099e:	4a48      	ldr	r2, [pc, #288]	; (8000ac0 <display_number+0x4a4>)
 80009a0:	f04f 1102 	mov.w	r1, #131074	; 0x20002
 80009a4:	6051      	str	r1, [r2, #4]
    delay= delay+ticks;
 80009a6:	6819      	ldr	r1, [r3, #0]
 80009a8:	3164      	adds	r1, #100	; 0x64
    while(ticks<=delay){
 80009aa:	681a      	ldr	r2, [r3, #0]
 80009ac:	4291      	cmp	r1, r2
 80009ae:	d2fc      	bcs.n	80009aa <display_number+0x38e>
 80009b0:	4a43      	ldr	r2, [pc, #268]	; (8000ac0 <display_number+0x4a4>)
 80009b2:	f04f 1102 	mov.w	r1, #131074	; 0x20002
 80009b6:	6051      	str	r1, [r2, #4]
    delay= delay+ticks;
 80009b8:	6819      	ldr	r1, [r3, #0]
 80009ba:	f501 7196 	add.w	r1, r1, #300	; 0x12c
    while(ticks<=delay){
 80009be:	681a      	ldr	r2, [r3, #0]
 80009c0:	4291      	cmp	r1, r2
 80009c2:	d2fc      	bcs.n	80009be <display_number+0x3a2>
 80009c4:	4a3e      	ldr	r2, [pc, #248]	; (8000ac0 <display_number+0x4a4>)
 80009c6:	f04f 1102 	mov.w	r1, #131074	; 0x20002
 80009ca:	6051      	str	r1, [r2, #4]
    delay= delay+ticks;
 80009cc:	6819      	ldr	r1, [r3, #0]
 80009ce:	3164      	adds	r1, #100	; 0x64
    while(ticks<=delay){
 80009d0:	681a      	ldr	r2, [r3, #0]
 80009d2:	4291      	cmp	r1, r2
 80009d4:	d2fc      	bcs.n	80009d0 <display_number+0x3b4>
 80009d6:	4a3a      	ldr	r2, [pc, #232]	; (8000ac0 <display_number+0x4a4>)
 80009d8:	f04f 1102 	mov.w	r1, #131074	; 0x20002
 80009dc:	6051      	str	r1, [r2, #4]
    delay= delay+ticks;
 80009de:	6819      	ldr	r1, [r3, #0]
 80009e0:	f501 7196 	add.w	r1, r1, #300	; 0x12c
    while(ticks<=delay){
 80009e4:	681a      	ldr	r2, [r3, #0]
 80009e6:	4291      	cmp	r1, r2
 80009e8:	d2fc      	bcs.n	80009e4 <display_number+0x3c8>
 80009ea:	4a35      	ldr	r2, [pc, #212]	; (8000ac0 <display_number+0x4a4>)
 80009ec:	f04f 1102 	mov.w	r1, #131074	; 0x20002
 80009f0:	6051      	str	r1, [r2, #4]
    delay= delay+ticks;
 80009f2:	6819      	ldr	r1, [r3, #0]
 80009f4:	f501 7196 	add.w	r1, r1, #300	; 0x12c
    while(ticks<=delay){
 80009f8:	681a      	ldr	r2, [r3, #0]
 80009fa:	4291      	cmp	r1, r2
 80009fc:	d2fc      	bcs.n	80009f8 <display_number+0x3dc>
 80009fe:	4770      	bx	lr
 8000a00:	4a2f      	ldr	r2, [pc, #188]	; (8000ac0 <display_number+0x4a4>)
    delay= delay+ticks;
 8000a02:	4b30      	ldr	r3, [pc, #192]	; (8000ac4 <display_number+0x4a8>)
 8000a04:	f04f 1102 	mov.w	r1, #131074	; 0x20002
 8000a08:	6051      	str	r1, [r2, #4]
 8000a0a:	6819      	ldr	r1, [r3, #0]
 8000a0c:	f501 7196 	add.w	r1, r1, #300	; 0x12c
    while(ticks<=delay){
 8000a10:	681a      	ldr	r2, [r3, #0]
 8000a12:	4291      	cmp	r1, r2
 8000a14:	d2fc      	bcs.n	8000a10 <display_number+0x3f4>
 8000a16:	4a2a      	ldr	r2, [pc, #168]	; (8000ac0 <display_number+0x4a4>)
 8000a18:	f04f 1102 	mov.w	r1, #131074	; 0x20002
 8000a1c:	6051      	str	r1, [r2, #4]
    delay= delay+ticks;
 8000a1e:	6819      	ldr	r1, [r3, #0]
 8000a20:	3164      	adds	r1, #100	; 0x64
    while(ticks<=delay){
 8000a22:	681a      	ldr	r2, [r3, #0]
 8000a24:	4291      	cmp	r1, r2
 8000a26:	d2fc      	bcs.n	8000a22 <display_number+0x406>
 8000a28:	4a25      	ldr	r2, [pc, #148]	; (8000ac0 <display_number+0x4a4>)
 8000a2a:	f04f 1102 	mov.w	r1, #131074	; 0x20002
 8000a2e:	6051      	str	r1, [r2, #4]
    delay= delay+ticks;
 8000a30:	6819      	ldr	r1, [r3, #0]
 8000a32:	f501 7196 	add.w	r1, r1, #300	; 0x12c
    while(ticks<=delay){
 8000a36:	681a      	ldr	r2, [r3, #0]
 8000a38:	4291      	cmp	r1, r2
 8000a3a:	d2fc      	bcs.n	8000a36 <display_number+0x41a>
 8000a3c:	4a20      	ldr	r2, [pc, #128]	; (8000ac0 <display_number+0x4a4>)
 8000a3e:	f04f 1102 	mov.w	r1, #131074	; 0x20002
 8000a42:	6051      	str	r1, [r2, #4]
    delay= delay+ticks;
 8000a44:	6819      	ldr	r1, [r3, #0]
 8000a46:	3164      	adds	r1, #100	; 0x64
    while(ticks<=delay){
 8000a48:	681a      	ldr	r2, [r3, #0]
 8000a4a:	4291      	cmp	r1, r2
 8000a4c:	d2fc      	bcs.n	8000a48 <display_number+0x42c>
 8000a4e:	4a1c      	ldr	r2, [pc, #112]	; (8000ac0 <display_number+0x4a4>)
 8000a50:	f04f 1102 	mov.w	r1, #131074	; 0x20002
 8000a54:	6051      	str	r1, [r2, #4]
    delay= delay+ticks;
 8000a56:	6819      	ldr	r1, [r3, #0]
 8000a58:	3164      	adds	r1, #100	; 0x64
    while(ticks<=delay){
 8000a5a:	681a      	ldr	r2, [r3, #0]
 8000a5c:	4291      	cmp	r1, r2
 8000a5e:	d2fc      	bcs.n	8000a5a <display_number+0x43e>
 8000a60:	4a17      	ldr	r2, [pc, #92]	; (8000ac0 <display_number+0x4a4>)
 8000a62:	f04f 1102 	mov.w	r1, #131074	; 0x20002
 8000a66:	6051      	str	r1, [r2, #4]
    delay= delay+ticks;
 8000a68:	6819      	ldr	r1, [r3, #0]
 8000a6a:	3164      	adds	r1, #100	; 0x64
    while(ticks<=delay){
 8000a6c:	681a      	ldr	r2, [r3, #0]
 8000a6e:	4291      	cmp	r1, r2
 8000a70:	d2fc      	bcs.n	8000a6c <display_number+0x450>
 8000a72:	4a13      	ldr	r2, [pc, #76]	; (8000ac0 <display_number+0x4a4>)
 8000a74:	f04f 1102 	mov.w	r1, #131074	; 0x20002
 8000a78:	6051      	str	r1, [r2, #4]
    delay= delay+ticks;
 8000a7a:	6819      	ldr	r1, [r3, #0]
 8000a7c:	3164      	adds	r1, #100	; 0x64
    while(ticks<=delay){
 8000a7e:	681a      	ldr	r2, [r3, #0]
 8000a80:	4291      	cmp	r1, r2
 8000a82:	d2fc      	bcs.n	8000a7e <display_number+0x462>
 8000a84:	4a0e      	ldr	r2, [pc, #56]	; (8000ac0 <display_number+0x4a4>)
 8000a86:	f04f 1102 	mov.w	r1, #131074	; 0x20002
 8000a8a:	6051      	str	r1, [r2, #4]
    delay= delay+ticks;
 8000a8c:	6819      	ldr	r1, [r3, #0]
 8000a8e:	3164      	adds	r1, #100	; 0x64
    while(ticks<=delay){
 8000a90:	681a      	ldr	r2, [r3, #0]
 8000a92:	4291      	cmp	r1, r2
 8000a94:	d2fc      	bcs.n	8000a90 <display_number+0x474>
 8000a96:	4a0a      	ldr	r2, [pc, #40]	; (8000ac0 <display_number+0x4a4>)
 8000a98:	f04f 1102 	mov.w	r1, #131074	; 0x20002
 8000a9c:	6051      	str	r1, [r2, #4]
    delay= delay+ticks;
 8000a9e:	6819      	ldr	r1, [r3, #0]
 8000aa0:	3164      	adds	r1, #100	; 0x64
    while(ticks<=delay){
 8000aa2:	681a      	ldr	r2, [r3, #0]
 8000aa4:	4291      	cmp	r1, r2
 8000aa6:	d2fc      	bcs.n	8000aa2 <display_number+0x486>
 8000aa8:	4a05      	ldr	r2, [pc, #20]	; (8000ac0 <display_number+0x4a4>)
 8000aaa:	f04f 1102 	mov.w	r1, #131074	; 0x20002
 8000aae:	6051      	str	r1, [r2, #4]
    delay= delay+ticks;
 8000ab0:	6819      	ldr	r1, [r3, #0]
 8000ab2:	f501 7196 	add.w	r1, r1, #300	; 0x12c
    while(ticks<=delay){
 8000ab6:	681a      	ldr	r2, [r3, #0]
 8000ab8:	4291      	cmp	r1, r2
 8000aba:	d2fc      	bcs.n	8000ab6 <display_number+0x49a>
 8000abc:	4770      	bx	lr
 8000abe:	bf00      	nop
 8000ac0:	48028100 	.word	0x48028100
 8000ac4:	20000460 	.word	0x20000460
 8000ac8:	4a8d      	ldr	r2, [pc, #564]	; (8000d00 <display_number+0x6e4>)
    delay= delay+ticks;
 8000aca:	4b8e      	ldr	r3, [pc, #568]	; (8000d04 <display_number+0x6e8>)
 8000acc:	f04f 1102 	mov.w	r1, #131074	; 0x20002
 8000ad0:	6051      	str	r1, [r2, #4]
 8000ad2:	6819      	ldr	r1, [r3, #0]
 8000ad4:	3164      	adds	r1, #100	; 0x64
    while(ticks<=delay){
 8000ad6:	681a      	ldr	r2, [r3, #0]
 8000ad8:	4291      	cmp	r1, r2
 8000ada:	d2fc      	bcs.n	8000ad6 <display_number+0x4ba>
 8000adc:	4a88      	ldr	r2, [pc, #544]	; (8000d00 <display_number+0x6e4>)
 8000ade:	f04f 1102 	mov.w	r1, #131074	; 0x20002
 8000ae2:	6051      	str	r1, [r2, #4]
    delay= delay+ticks;
 8000ae4:	6819      	ldr	r1, [r3, #0]
 8000ae6:	3164      	adds	r1, #100	; 0x64
    while(ticks<=delay){
 8000ae8:	681a      	ldr	r2, [r3, #0]
 8000aea:	4291      	cmp	r1, r2
 8000aec:	d2fc      	bcs.n	8000ae8 <display_number+0x4cc>
 8000aee:	4a84      	ldr	r2, [pc, #528]	; (8000d00 <display_number+0x6e4>)
 8000af0:	f04f 1102 	mov.w	r1, #131074	; 0x20002
 8000af4:	6051      	str	r1, [r2, #4]
    delay= delay+ticks;
 8000af6:	6819      	ldr	r1, [r3, #0]
 8000af8:	3164      	adds	r1, #100	; 0x64
    while(ticks<=delay){
 8000afa:	681a      	ldr	r2, [r3, #0]
 8000afc:	4291      	cmp	r1, r2
 8000afe:	d2fc      	bcs.n	8000afa <display_number+0x4de>
 8000b00:	4a7f      	ldr	r2, [pc, #508]	; (8000d00 <display_number+0x6e4>)
 8000b02:	f04f 1102 	mov.w	r1, #131074	; 0x20002
 8000b06:	6051      	str	r1, [r2, #4]
    delay= delay+ticks;
 8000b08:	6819      	ldr	r1, [r3, #0]
 8000b0a:	3164      	adds	r1, #100	; 0x64
    while(ticks<=delay){
 8000b0c:	681a      	ldr	r2, [r3, #0]
 8000b0e:	4291      	cmp	r1, r2
 8000b10:	d2fc      	bcs.n	8000b0c <display_number+0x4f0>
 8000b12:	4a7b      	ldr	r2, [pc, #492]	; (8000d00 <display_number+0x6e4>)
 8000b14:	f04f 1102 	mov.w	r1, #131074	; 0x20002
 8000b18:	6051      	str	r1, [r2, #4]
    delay= delay+ticks;
 8000b1a:	6819      	ldr	r1, [r3, #0]
 8000b1c:	f501 7196 	add.w	r1, r1, #300	; 0x12c
    while(ticks<=delay){
 8000b20:	681a      	ldr	r2, [r3, #0]
 8000b22:	4291      	cmp	r1, r2
 8000b24:	d2fc      	bcs.n	8000b20 <display_number+0x504>
 8000b26:	4a76      	ldr	r2, [pc, #472]	; (8000d00 <display_number+0x6e4>)
 8000b28:	f04f 1102 	mov.w	r1, #131074	; 0x20002
 8000b2c:	6051      	str	r1, [r2, #4]
    delay= delay+ticks;
 8000b2e:	6819      	ldr	r1, [r3, #0]
 8000b30:	3164      	adds	r1, #100	; 0x64
    while(ticks<=delay){
 8000b32:	681a      	ldr	r2, [r3, #0]
 8000b34:	4291      	cmp	r1, r2
 8000b36:	d2fc      	bcs.n	8000b32 <display_number+0x516>
 8000b38:	4a71      	ldr	r2, [pc, #452]	; (8000d00 <display_number+0x6e4>)
 8000b3a:	f04f 1102 	mov.w	r1, #131074	; 0x20002
 8000b3e:	6051      	str	r1, [r2, #4]
    delay= delay+ticks;
 8000b40:	6819      	ldr	r1, [r3, #0]
 8000b42:	f501 7196 	add.w	r1, r1, #300	; 0x12c
    while(ticks<=delay){
 8000b46:	681a      	ldr	r2, [r3, #0]
 8000b48:	4291      	cmp	r1, r2
 8000b4a:	d2fc      	bcs.n	8000b46 <display_number+0x52a>
 8000b4c:	4a6c      	ldr	r2, [pc, #432]	; (8000d00 <display_number+0x6e4>)
 8000b4e:	f04f 1102 	mov.w	r1, #131074	; 0x20002
 8000b52:	6051      	str	r1, [r2, #4]
    delay= delay+ticks;
 8000b54:	6819      	ldr	r1, [r3, #0]
 8000b56:	3164      	adds	r1, #100	; 0x64
    while(ticks<=delay){
 8000b58:	681a      	ldr	r2, [r3, #0]
 8000b5a:	4291      	cmp	r1, r2
 8000b5c:	d2fc      	bcs.n	8000b58 <display_number+0x53c>
 8000b5e:	4a68      	ldr	r2, [pc, #416]	; (8000d00 <display_number+0x6e4>)
 8000b60:	f04f 1102 	mov.w	r1, #131074	; 0x20002
 8000b64:	6051      	str	r1, [r2, #4]
    delay= delay+ticks;
 8000b66:	6819      	ldr	r1, [r3, #0]
 8000b68:	f501 7196 	add.w	r1, r1, #300	; 0x12c
    while(ticks<=delay){
 8000b6c:	681a      	ldr	r2, [r3, #0]
 8000b6e:	4291      	cmp	r1, r2
 8000b70:	d2fc      	bcs.n	8000b6c <display_number+0x550>
 8000b72:	4a63      	ldr	r2, [pc, #396]	; (8000d00 <display_number+0x6e4>)
 8000b74:	f04f 1102 	mov.w	r1, #131074	; 0x20002
 8000b78:	6051      	str	r1, [r2, #4]
    delay= delay+ticks;
 8000b7a:	6819      	ldr	r1, [r3, #0]
 8000b7c:	f501 7196 	add.w	r1, r1, #300	; 0x12c
    while(ticks<=delay){
 8000b80:	681a      	ldr	r2, [r3, #0]
 8000b82:	4291      	cmp	r1, r2
 8000b84:	d2fc      	bcs.n	8000b80 <display_number+0x564>
 8000b86:	4770      	bx	lr
 8000b88:	4a5d      	ldr	r2, [pc, #372]	; (8000d00 <display_number+0x6e4>)
    delay= delay+ticks;
 8000b8a:	4b5e      	ldr	r3, [pc, #376]	; (8000d04 <display_number+0x6e8>)
 8000b8c:	f04f 1102 	mov.w	r1, #131074	; 0x20002
 8000b90:	6051      	str	r1, [r2, #4]
 8000b92:	6819      	ldr	r1, [r3, #0]
 8000b94:	f501 7196 	add.w	r1, r1, #300	; 0x12c
    while(ticks<=delay){
 8000b98:	681a      	ldr	r2, [r3, #0]
 8000b9a:	4291      	cmp	r1, r2
 8000b9c:	d2fc      	bcs.n	8000b98 <display_number+0x57c>
 8000b9e:	4a58      	ldr	r2, [pc, #352]	; (8000d00 <display_number+0x6e4>)
 8000ba0:	f04f 1102 	mov.w	r1, #131074	; 0x20002
 8000ba4:	6051      	str	r1, [r2, #4]
    delay= delay+ticks;
 8000ba6:	6819      	ldr	r1, [r3, #0]
 8000ba8:	3164      	adds	r1, #100	; 0x64
    while(ticks<=delay){
 8000baa:	681a      	ldr	r2, [r3, #0]
 8000bac:	4291      	cmp	r1, r2
 8000bae:	d2fc      	bcs.n	8000baa <display_number+0x58e>
 8000bb0:	4a53      	ldr	r2, [pc, #332]	; (8000d00 <display_number+0x6e4>)
 8000bb2:	f04f 1102 	mov.w	r1, #131074	; 0x20002
 8000bb6:	6051      	str	r1, [r2, #4]
    delay= delay+ticks;
 8000bb8:	6819      	ldr	r1, [r3, #0]
 8000bba:	3164      	adds	r1, #100	; 0x64
    while(ticks<=delay){
 8000bbc:	681a      	ldr	r2, [r3, #0]
 8000bbe:	4291      	cmp	r1, r2
 8000bc0:	d2fc      	bcs.n	8000bbc <display_number+0x5a0>
 8000bc2:	4a4f      	ldr	r2, [pc, #316]	; (8000d00 <display_number+0x6e4>)
 8000bc4:	f04f 1102 	mov.w	r1, #131074	; 0x20002
 8000bc8:	6051      	str	r1, [r2, #4]
    delay= delay+ticks;
 8000bca:	6819      	ldr	r1, [r3, #0]
 8000bcc:	3164      	adds	r1, #100	; 0x64
    while(ticks<=delay){
 8000bce:	681a      	ldr	r2, [r3, #0]
 8000bd0:	4291      	cmp	r1, r2
 8000bd2:	d2fc      	bcs.n	8000bce <display_number+0x5b2>
 8000bd4:	4a4a      	ldr	r2, [pc, #296]	; (8000d00 <display_number+0x6e4>)
 8000bd6:	f04f 1102 	mov.w	r1, #131074	; 0x20002
 8000bda:	6051      	str	r1, [r2, #4]
    delay= delay+ticks;
 8000bdc:	6819      	ldr	r1, [r3, #0]
 8000bde:	3164      	adds	r1, #100	; 0x64
    while(ticks<=delay){
 8000be0:	681a      	ldr	r2, [r3, #0]
 8000be2:	4291      	cmp	r1, r2
 8000be4:	d2fc      	bcs.n	8000be0 <display_number+0x5c4>
 8000be6:	4a46      	ldr	r2, [pc, #280]	; (8000d00 <display_number+0x6e4>)
 8000be8:	f04f 1102 	mov.w	r1, #131074	; 0x20002
 8000bec:	6051      	str	r1, [r2, #4]
    delay= delay+ticks;
 8000bee:	6819      	ldr	r1, [r3, #0]
 8000bf0:	3164      	adds	r1, #100	; 0x64
    while(ticks<=delay){
 8000bf2:	681a      	ldr	r2, [r3, #0]
 8000bf4:	4291      	cmp	r1, r2
 8000bf6:	d2fc      	bcs.n	8000bf2 <display_number+0x5d6>
 8000bf8:	4a41      	ldr	r2, [pc, #260]	; (8000d00 <display_number+0x6e4>)
 8000bfa:	f04f 1102 	mov.w	r1, #131074	; 0x20002
 8000bfe:	6051      	str	r1, [r2, #4]
    delay= delay+ticks;
 8000c00:	6819      	ldr	r1, [r3, #0]
 8000c02:	3164      	adds	r1, #100	; 0x64
    while(ticks<=delay){
 8000c04:	681a      	ldr	r2, [r3, #0]
 8000c06:	4291      	cmp	r1, r2
 8000c08:	d2fc      	bcs.n	8000c04 <display_number+0x5e8>
 8000c0a:	4a3d      	ldr	r2, [pc, #244]	; (8000d00 <display_number+0x6e4>)
 8000c0c:	f04f 1102 	mov.w	r1, #131074	; 0x20002
 8000c10:	6051      	str	r1, [r2, #4]
    delay= delay+ticks;
 8000c12:	6819      	ldr	r1, [r3, #0]
 8000c14:	3164      	adds	r1, #100	; 0x64
    while(ticks<=delay){
 8000c16:	681a      	ldr	r2, [r3, #0]
 8000c18:	4291      	cmp	r1, r2
 8000c1a:	d2fc      	bcs.n	8000c16 <display_number+0x5fa>
 8000c1c:	4a38      	ldr	r2, [pc, #224]	; (8000d00 <display_number+0x6e4>)
 8000c1e:	f04f 1102 	mov.w	r1, #131074	; 0x20002
 8000c22:	6051      	str	r1, [r2, #4]
    delay= delay+ticks;
 8000c24:	6819      	ldr	r1, [r3, #0]
 8000c26:	3164      	adds	r1, #100	; 0x64
    while(ticks<=delay){
 8000c28:	681a      	ldr	r2, [r3, #0]
 8000c2a:	4291      	cmp	r1, r2
 8000c2c:	d2fc      	bcs.n	8000c28 <display_number+0x60c>
 8000c2e:	4a34      	ldr	r2, [pc, #208]	; (8000d00 <display_number+0x6e4>)
 8000c30:	f04f 1102 	mov.w	r1, #131074	; 0x20002
 8000c34:	6051      	str	r1, [r2, #4]
    delay= delay+ticks;
 8000c36:	6819      	ldr	r1, [r3, #0]
 8000c38:	f501 7196 	add.w	r1, r1, #300	; 0x12c
    while(ticks<=delay){
 8000c3c:	681a      	ldr	r2, [r3, #0]
 8000c3e:	4291      	cmp	r1, r2
 8000c40:	d2fc      	bcs.n	8000c3c <display_number+0x620>
 8000c42:	4770      	bx	lr
 8000c44:	4a2e      	ldr	r2, [pc, #184]	; (8000d00 <display_number+0x6e4>)
    delay= delay+ticks;
 8000c46:	4b2f      	ldr	r3, [pc, #188]	; (8000d04 <display_number+0x6e8>)
 8000c48:	f04f 1102 	mov.w	r1, #131074	; 0x20002
 8000c4c:	6051      	str	r1, [r2, #4]
 8000c4e:	6819      	ldr	r1, [r3, #0]
 8000c50:	3164      	adds	r1, #100	; 0x64
    while(ticks<=delay){
 8000c52:	681a      	ldr	r2, [r3, #0]
 8000c54:	4291      	cmp	r1, r2
 8000c56:	d2fc      	bcs.n	8000c52 <display_number+0x636>
 8000c58:	4a29      	ldr	r2, [pc, #164]	; (8000d00 <display_number+0x6e4>)
 8000c5a:	f04f 1102 	mov.w	r1, #131074	; 0x20002
 8000c5e:	6051      	str	r1, [r2, #4]
    delay= delay+ticks;
 8000c60:	6819      	ldr	r1, [r3, #0]
 8000c62:	3164      	adds	r1, #100	; 0x64
    while(ticks<=delay){
 8000c64:	681a      	ldr	r2, [r3, #0]
 8000c66:	4291      	cmp	r1, r2
 8000c68:	d2fc      	bcs.n	8000c64 <display_number+0x648>
 8000c6a:	4a25      	ldr	r2, [pc, #148]	; (8000d00 <display_number+0x6e4>)
 8000c6c:	f04f 1102 	mov.w	r1, #131074	; 0x20002
 8000c70:	6051      	str	r1, [r2, #4]
    delay= delay+ticks;
 8000c72:	6819      	ldr	r1, [r3, #0]
 8000c74:	3164      	adds	r1, #100	; 0x64
    while(ticks<=delay){
 8000c76:	681a      	ldr	r2, [r3, #0]
 8000c78:	4291      	cmp	r1, r2
 8000c7a:	d2fc      	bcs.n	8000c76 <display_number+0x65a>
 8000c7c:	4a20      	ldr	r2, [pc, #128]	; (8000d00 <display_number+0x6e4>)
 8000c7e:	f04f 1102 	mov.w	r1, #131074	; 0x20002
 8000c82:	6051      	str	r1, [r2, #4]
    delay= delay+ticks;
 8000c84:	6819      	ldr	r1, [r3, #0]
 8000c86:	3164      	adds	r1, #100	; 0x64
    while(ticks<=delay){
 8000c88:	681a      	ldr	r2, [r3, #0]
 8000c8a:	4291      	cmp	r1, r2
 8000c8c:	d2fc      	bcs.n	8000c88 <display_number+0x66c>
 8000c8e:	4a1c      	ldr	r2, [pc, #112]	; (8000d00 <display_number+0x6e4>)
 8000c90:	f04f 1102 	mov.w	r1, #131074	; 0x20002
 8000c94:	6051      	str	r1, [r2, #4]
    delay= delay+ticks;
 8000c96:	6819      	ldr	r1, [r3, #0]
 8000c98:	3164      	adds	r1, #100	; 0x64
    while(ticks<=delay){
 8000c9a:	681a      	ldr	r2, [r3, #0]
 8000c9c:	4291      	cmp	r1, r2
 8000c9e:	d2fc      	bcs.n	8000c9a <display_number+0x67e>
 8000ca0:	4a17      	ldr	r2, [pc, #92]	; (8000d00 <display_number+0x6e4>)
 8000ca2:	f04f 1102 	mov.w	r1, #131074	; 0x20002
 8000ca6:	6051      	str	r1, [r2, #4]
    delay= delay+ticks;
 8000ca8:	6819      	ldr	r1, [r3, #0]
 8000caa:	3164      	adds	r1, #100	; 0x64
    while(ticks<=delay){
 8000cac:	681a      	ldr	r2, [r3, #0]
 8000cae:	4291      	cmp	r1, r2
 8000cb0:	d2fc      	bcs.n	8000cac <display_number+0x690>
 8000cb2:	4a13      	ldr	r2, [pc, #76]	; (8000d00 <display_number+0x6e4>)
 8000cb4:	f04f 1102 	mov.w	r1, #131074	; 0x20002
 8000cb8:	6051      	str	r1, [r2, #4]
    delay= delay+ticks;
 8000cba:	6819      	ldr	r1, [r3, #0]
 8000cbc:	3164      	adds	r1, #100	; 0x64
    while(ticks<=delay){
 8000cbe:	681a      	ldr	r2, [r3, #0]
 8000cc0:	4291      	cmp	r1, r2
 8000cc2:	d2fc      	bcs.n	8000cbe <display_number+0x6a2>
 8000cc4:	4a0e      	ldr	r2, [pc, #56]	; (8000d00 <display_number+0x6e4>)
 8000cc6:	f04f 1102 	mov.w	r1, #131074	; 0x20002
 8000cca:	6051      	str	r1, [r2, #4]
    delay= delay+ticks;
 8000ccc:	6819      	ldr	r1, [r3, #0]
 8000cce:	3164      	adds	r1, #100	; 0x64
    while(ticks<=delay){
 8000cd0:	681a      	ldr	r2, [r3, #0]
 8000cd2:	4291      	cmp	r1, r2
 8000cd4:	d2fc      	bcs.n	8000cd0 <display_number+0x6b4>
 8000cd6:	4a0a      	ldr	r2, [pc, #40]	; (8000d00 <display_number+0x6e4>)
 8000cd8:	f04f 1102 	mov.w	r1, #131074	; 0x20002
 8000cdc:	6051      	str	r1, [r2, #4]
    delay= delay+ticks;
 8000cde:	6819      	ldr	r1, [r3, #0]
 8000ce0:	f501 7196 	add.w	r1, r1, #300	; 0x12c
    while(ticks<=delay){
 8000ce4:	681a      	ldr	r2, [r3, #0]
 8000ce6:	4291      	cmp	r1, r2
 8000ce8:	d2fc      	bcs.n	8000ce4 <display_number+0x6c8>
 8000cea:	4a05      	ldr	r2, [pc, #20]	; (8000d00 <display_number+0x6e4>)
 8000cec:	f04f 1102 	mov.w	r1, #131074	; 0x20002
 8000cf0:	6051      	str	r1, [r2, #4]
    delay= delay+ticks;
 8000cf2:	6819      	ldr	r1, [r3, #0]
 8000cf4:	f501 7196 	add.w	r1, r1, #300	; 0x12c
    while(ticks<=delay){
 8000cf8:	681a      	ldr	r2, [r3, #0]
 8000cfa:	4291      	cmp	r1, r2
 8000cfc:	d2fc      	bcs.n	8000cf8 <display_number+0x6dc>
 8000cfe:	4770      	bx	lr
 8000d00:	48028100 	.word	0x48028100
 8000d04:	20000460 	.word	0x20000460
 8000d08:	4a2f      	ldr	r2, [pc, #188]	; (8000dc8 <display_number+0x7ac>)
    delay= delay+ticks;
 8000d0a:	4b30      	ldr	r3, [pc, #192]	; (8000dcc <display_number+0x7b0>)
 8000d0c:	f04f 1102 	mov.w	r1, #131074	; 0x20002
 8000d10:	6051      	str	r1, [r2, #4]
 8000d12:	6819      	ldr	r1, [r3, #0]
 8000d14:	f501 7196 	add.w	r1, r1, #300	; 0x12c
    while(ticks<=delay){
 8000d18:	681a      	ldr	r2, [r3, #0]
 8000d1a:	4291      	cmp	r1, r2
 8000d1c:	d2fc      	bcs.n	8000d18 <display_number+0x6fc>
 8000d1e:	4a2a      	ldr	r2, [pc, #168]	; (8000dc8 <display_number+0x7ac>)
 8000d20:	f04f 1102 	mov.w	r1, #131074	; 0x20002
 8000d24:	6051      	str	r1, [r2, #4]
    delay= delay+ticks;
 8000d26:	6819      	ldr	r1, [r3, #0]
 8000d28:	3164      	adds	r1, #100	; 0x64
    while(ticks<=delay){
 8000d2a:	681a      	ldr	r2, [r3, #0]
 8000d2c:	4291      	cmp	r1, r2
 8000d2e:	d2fc      	bcs.n	8000d2a <display_number+0x70e>
 8000d30:	4a25      	ldr	r2, [pc, #148]	; (8000dc8 <display_number+0x7ac>)
 8000d32:	f04f 1102 	mov.w	r1, #131074	; 0x20002
 8000d36:	6051      	str	r1, [r2, #4]
    delay= delay+ticks;
 8000d38:	6819      	ldr	r1, [r3, #0]
 8000d3a:	f501 7196 	add.w	r1, r1, #300	; 0x12c
    while(ticks<=delay){
 8000d3e:	681a      	ldr	r2, [r3, #0]
 8000d40:	4291      	cmp	r1, r2
 8000d42:	d2fc      	bcs.n	8000d3e <display_number+0x722>
 8000d44:	4a20      	ldr	r2, [pc, #128]	; (8000dc8 <display_number+0x7ac>)
 8000d46:	f04f 1102 	mov.w	r1, #131074	; 0x20002
 8000d4a:	6051      	str	r1, [r2, #4]
    delay= delay+ticks;
 8000d4c:	6819      	ldr	r1, [r3, #0]
 8000d4e:	3164      	adds	r1, #100	; 0x64
    while(ticks<=delay){
 8000d50:	681a      	ldr	r2, [r3, #0]
 8000d52:	4291      	cmp	r1, r2
 8000d54:	d2fc      	bcs.n	8000d50 <display_number+0x734>
 8000d56:	4a1c      	ldr	r2, [pc, #112]	; (8000dc8 <display_number+0x7ac>)
 8000d58:	f04f 1102 	mov.w	r1, #131074	; 0x20002
 8000d5c:	6051      	str	r1, [r2, #4]
    delay= delay+ticks;
 8000d5e:	6819      	ldr	r1, [r3, #0]
 8000d60:	f501 7196 	add.w	r1, r1, #300	; 0x12c
    while(ticks<=delay){
 8000d64:	681a      	ldr	r2, [r3, #0]
 8000d66:	4291      	cmp	r1, r2
 8000d68:	d2fc      	bcs.n	8000d64 <display_number+0x748>
 8000d6a:	4a17      	ldr	r2, [pc, #92]	; (8000dc8 <display_number+0x7ac>)
 8000d6c:	f04f 1102 	mov.w	r1, #131074	; 0x20002
 8000d70:	6051      	str	r1, [r2, #4]
    delay= delay+ticks;
 8000d72:	6819      	ldr	r1, [r3, #0]
 8000d74:	3164      	adds	r1, #100	; 0x64
    while(ticks<=delay){
 8000d76:	681a      	ldr	r2, [r3, #0]
 8000d78:	4291      	cmp	r1, r2
 8000d7a:	d2fc      	bcs.n	8000d76 <display_number+0x75a>
 8000d7c:	4a12      	ldr	r2, [pc, #72]	; (8000dc8 <display_number+0x7ac>)
 8000d7e:	f04f 1102 	mov.w	r1, #131074	; 0x20002
 8000d82:	6051      	str	r1, [r2, #4]
    delay= delay+ticks;
 8000d84:	6819      	ldr	r1, [r3, #0]
 8000d86:	3164      	adds	r1, #100	; 0x64
    while(ticks<=delay){
 8000d88:	681a      	ldr	r2, [r3, #0]
 8000d8a:	4291      	cmp	r1, r2
 8000d8c:	d2fc      	bcs.n	8000d88 <display_number+0x76c>
 8000d8e:	4a0e      	ldr	r2, [pc, #56]	; (8000dc8 <display_number+0x7ac>)
 8000d90:	f04f 1102 	mov.w	r1, #131074	; 0x20002
 8000d94:	6051      	str	r1, [r2, #4]
    delay= delay+ticks;
 8000d96:	6819      	ldr	r1, [r3, #0]
 8000d98:	3164      	adds	r1, #100	; 0x64
    while(ticks<=delay){
 8000d9a:	681a      	ldr	r2, [r3, #0]
 8000d9c:	4291      	cmp	r1, r2
 8000d9e:	d2fc      	bcs.n	8000d9a <display_number+0x77e>
 8000da0:	4a09      	ldr	r2, [pc, #36]	; (8000dc8 <display_number+0x7ac>)
 8000da2:	f04f 1102 	mov.w	r1, #131074	; 0x20002
 8000da6:	6051      	str	r1, [r2, #4]
    delay= delay+ticks;
 8000da8:	6819      	ldr	r1, [r3, #0]
 8000daa:	3164      	adds	r1, #100	; 0x64
    while(ticks<=delay){
 8000dac:	681a      	ldr	r2, [r3, #0]
 8000dae:	4291      	cmp	r1, r2
 8000db0:	d2fc      	bcs.n	8000dac <display_number+0x790>
 8000db2:	4a05      	ldr	r2, [pc, #20]	; (8000dc8 <display_number+0x7ac>)
 8000db4:	f04f 1102 	mov.w	r1, #131074	; 0x20002
 8000db8:	6051      	str	r1, [r2, #4]
    delay= delay+ticks;
 8000dba:	6819      	ldr	r1, [r3, #0]
 8000dbc:	f501 7196 	add.w	r1, r1, #300	; 0x12c
    while(ticks<=delay){
 8000dc0:	681a      	ldr	r2, [r3, #0]
 8000dc2:	4291      	cmp	r1, r2
 8000dc4:	d2fc      	bcs.n	8000dc0 <display_number+0x7a4>
 8000dc6:	4770      	bx	lr
 8000dc8:	48028100 	.word	0x48028100
 8000dcc:	20000460 	.word	0x20000460

08000dd0 <SysTick_Handler>:


void SysTick_Handler(void)
{
  ticks++;
 8000dd0:	4a02      	ldr	r2, [pc, #8]	; (8000ddc <SysTick_Handler+0xc>)
 8000dd2:	6813      	ldr	r3, [r2, #0]
 8000dd4:	3301      	adds	r3, #1
 8000dd6:	6013      	str	r3, [r2, #0]
    XMC_GPIO_ToggleOutput(LED1);
    ticks = 0;
    
  }*/
  
}
 8000dd8:	4770      	bx	lr
 8000dda:	bf00      	nop
 8000ddc:	20000460 	.word	0x20000460

08000de0 <main>:
       .output_level=XMC_GPIO_OUTPUT_LEVEL_LOW,\
       .output_strength=XMC_GPIO_OUTPUT_STRENGTH_STRONG_SHARP_EDGE};

       
int main(void)
{
 8000de0:	e92d 4ff8 	stmdb	sp!, {r3, r4, r5, r6, r7, r8, r9, sl, fp, lr}
  /*GPIO CONFIG IN VOID*/
  XMC_GPIO_Init(GPIO_LED1,     &out_config);
 8000de4:	4a43      	ldr	r2, [pc, #268]	; (8000ef4 <main+0x114>)
 8000de6:	4844      	ldr	r0, [pc, #272]	; (8000ef8 <main+0x118>)
 8000de8:	2101      	movs	r1, #1
 8000dea:	f003 fa29 	bl	8004240 <XMC_GPIO_Init>
  XMC_GPIO_Init(GPIO_LED2,     &out_config);
 8000dee:	4a41      	ldr	r2, [pc, #260]	; (8000ef4 <main+0x114>)
 8000df0:	4841      	ldr	r0, [pc, #260]	; (8000ef8 <main+0x118>)
 8000df2:	2100      	movs	r1, #0
 8000df4:	f003 fa24 	bl	8004240 <XMC_GPIO_Init>
  XMC_GPIO_Init(GPIO_BUTTON1,  &in_config);
 8000df8:	4a40      	ldr	r2, [pc, #256]	; (8000efc <main+0x11c>)
 8000dfa:	483f      	ldr	r0, [pc, #252]	; (8000ef8 <main+0x118>)
 8000dfc:	210e      	movs	r1, #14
 8000dfe:	f003 fa1f 	bl	8004240 <XMC_GPIO_Init>
  XMC_GPIO_Init(GPIO_BUTTON2,  &in_config);
 8000e02:	4a3e      	ldr	r2, [pc, #248]	; (8000efc <main+0x11c>)
 8000e04:	483c      	ldr	r0, [pc, #240]	; (8000ef8 <main+0x118>)
 8000e06:	210f      	movs	r1, #15
 8000e08:	f003 fa1a 	bl	8004240 <XMC_GPIO_Init>
  /* System timer configuration */
  SysTick_Config(SystemCoreClock / TICKS_PER_SECOND);
 8000e0c:	4b3c      	ldr	r3, [pc, #240]	; (8000f00 <main+0x120>)
 8000e0e:	4a3d      	ldr	r2, [pc, #244]	; (8000f04 <main+0x124>)
 8000e10:	681b      	ldr	r3, [r3, #0]
 8000e12:	fba2 2303 	umull	r2, r3, r2, r3
 8000e16:	099b      	lsrs	r3, r3, #6
           function <b>SysTick_Config</b> is not included. In this case, the file <b><i>device</i>.h</b>
           must contain a vendor-specific implementation of this function.
 */
__STATIC_INLINE uint32_t SysTick_Config(uint32_t ticks)
{
  if ((ticks - 1UL) > SysTick_LOAD_RELOAD_Msk)
 8000e18:	3b01      	subs	r3, #1
 8000e1a:	f1b3 7f80 	cmp.w	r3, #16777216	; 0x1000000
 8000e1e:	d20a      	bcs.n	8000e36 <main+0x56>
  {
    return (1UL);                                                   /* Reload value impossible */
  }

  SysTick->LOAD  = (uint32_t)(ticks - 1UL);                         /* set reload register */
 8000e20:	f04f 22e0 	mov.w	r2, #3758153728	; 0xe000e000
    SCB->SHP[(((uint32_t)(int32_t)IRQn) & 0xFUL)-4UL] = (uint8_t)((priority << (8U - __NVIC_PRIO_BITS)) & (uint32_t)0xFFUL);
 8000e24:	4838      	ldr	r0, [pc, #224]	; (8000f08 <main+0x128>)
  SysTick->LOAD  = (uint32_t)(ticks - 1UL);                         /* set reload register */
 8000e26:	6153      	str	r3, [r2, #20]
    SCB->SHP[(((uint32_t)(int32_t)IRQn) & 0xFUL)-4UL] = (uint8_t)((priority << (8U - __NVIC_PRIO_BITS)) & (uint32_t)0xFFUL);
 8000e28:	24fc      	movs	r4, #252	; 0xfc
  NVIC_SetPriority (SysTick_IRQn, (1UL << __NVIC_PRIO_BITS) - 1UL); /* set Priority for Systick Interrupt */
  SysTick->VAL   = 0UL;                                             /* Load the SysTick Counter Value */
 8000e2a:	2100      	movs	r1, #0
  SysTick->CTRL  = SysTick_CTRL_CLKSOURCE_Msk |
 8000e2c:	2307      	movs	r3, #7
    SCB->SHP[(((uint32_t)(int32_t)IRQn) & 0xFUL)-4UL] = (uint8_t)((priority << (8U - __NVIC_PRIO_BITS)) & (uint32_t)0xFFUL);
 8000e2e:	f880 4023 	strb.w	r4, [r0, #35]	; 0x23
  SysTick->VAL   = 0UL;                                             /* Load the SysTick Counter Value */
 8000e32:	6191      	str	r1, [r2, #24]
  SysTick->CTRL  = SysTick_CTRL_CLKSOURCE_Msk |
 8000e34:	6113      	str	r3, [r2, #16]
                   SysTick_CTRL_TICKINT_Msk   |
                   SysTick_CTRL_ENABLE_Msk;                         /* Enable SysTick IRQ and SysTick Timer */
  return (0UL);                                                     /* Function successful */
 8000e36:	f8df a0d8 	ldr.w	sl, [pc, #216]	; 8000f10 <main+0x130>

__STATIC_INLINE uint32_t XMC_GPIO_GetInput(XMC_GPIO_PORT_t *const port, const uint8_t pin)
{
  XMC_ASSERT("XMC_GPIO_GetInput: Invalid port", XMC_GPIO_CHECK_PORT(port));

  return (((port->IN) >> pin) & 0x1U);
 8000e3a:	f8df 80bc 	ldr.w	r8, [pc, #188]	; 8000ef8 <main+0x118>
            if(cnt==0){
                display_number(0);//FUNCTION TO SEND "0"
            }else{
                //FUNCTION (b1_time2-b1_time1)
                diff=b1_time2-b1_time1;
                i=100000000;
 8000e3e:	f8df 90d4 	ldr.w	r9, [pc, #212]	; 8000f14 <main+0x134>
		        }else{
		        	flag=1;
		        	display_number(aux);
		        }              
		        	diff= diff - (aux*i);
		        	i=i/10;
 8000e42:	4f32      	ldr	r7, [pc, #200]	; (8000f0c <main+0x12c>)
 8000e44:	f8d8 3024 	ldr.w	r3, [r8, #36]	; 0x24
    while(XMC_GPIO_GetInput(GPIO_BUTTON1) == 0) {//BUTTON 1 IS PRESSED AND LOCKS OUT BUTTON 2 UNTIL RELEASED
 8000e48:	0459      	lsls	r1, r3, #17
 8000e4a:	d40a      	bmi.n	8000e62 <main+0x82>
        if(button_1_flag==0){//ONLY DOES ONCE, WHEN PRESSED DOWN
 8000e4c:	f89a 3004 	ldrb.w	r3, [sl, #4]
 8000e50:	2b00      	cmp	r3, #0
 8000e52:	d042      	beq.n	8000eda <main+0xfa>
      button_1_flag=1;      
 8000e54:	2301      	movs	r3, #1
 8000e56:	f88a 3004 	strb.w	r3, [sl, #4]
 8000e5a:	f8d8 3024 	ldr.w	r3, [r8, #36]	; 0x24
    while(XMC_GPIO_GetInput(GPIO_BUTTON1) == 0) {//BUTTON 1 IS PRESSED AND LOCKS OUT BUTTON 2 UNTIL RELEASED
 8000e5e:	0459      	lsls	r1, r3, #17
 8000e60:	d5f4      	bpl.n	8000e4c <main+0x6c>
 8000e62:	f8d8 3024 	ldr.w	r3, [r8, #36]	; 0x24
    button_1_flag=0;
 8000e66:	2200      	movs	r2, #0
 8000e68:	f88a 2004 	strb.w	r2, [sl, #4]
    while(XMC_GPIO_GetInput(GPIO_BUTTON2) == 0) {//BUTTON 2 IS PRESSED AND LOCKS OUT BUTTON 1 UNTIL RELEASED
 8000e6c:	041a      	lsls	r2, r3, #16
 8000e6e:	d410      	bmi.n	8000e92 <main+0xb2>
        if(button_2_flag==0){//ONLY DOES ONCE, WHEN PRESSED DOWN
 8000e70:	f89a b014 	ldrb.w	fp, [sl, #20]
 8000e74:	f1bb 0f00 	cmp.w	fp, #0
 8000e78:	d104      	bne.n	8000e84 <main+0xa4>
            if(cnt==0){
 8000e7a:	f8da 0010 	ldr.w	r0, [sl, #16]
 8000e7e:	b960      	cbnz	r0, 8000e9a <main+0xba>
                display_number(0);//FUNCTION TO SEND "0"
 8000e80:	f7ff fbcc 	bl	800061c <display_number>
                }
                                
            }
            
        }
        button_2_flag=1;
 8000e84:	2201      	movs	r2, #1
 8000e86:	f8d8 3024 	ldr.w	r3, [r8, #36]	; 0x24
 8000e8a:	f88a 2014 	strb.w	r2, [sl, #20]
    while(XMC_GPIO_GetInput(GPIO_BUTTON2) == 0) {//BUTTON 2 IS PRESSED AND LOCKS OUT BUTTON 1 UNTIL RELEASED
 8000e8e:	041b      	lsls	r3, r3, #16
 8000e90:	d5f9      	bpl.n	8000e86 <main+0xa6>
    }
    button_2_flag=0;
 8000e92:	2300      	movs	r3, #0
 8000e94:	f88a 3014 	strb.w	r3, [sl, #20]
    while(XMC_GPIO_GetInput(GPIO_BUTTON1) == 0) {//BUTTON 1 IS PRESSED AND LOCKS OUT BUTTON 2 UNTIL RELEASED
 8000e98:	e7d4      	b.n	8000e44 <main+0x64>
                diff=b1_time2-b1_time1;
 8000e9a:	e9da 3502 	ldrd	r3, r5, [sl, #8]
 8000e9e:	2609      	movs	r6, #9
 8000ea0:	1aed      	subs	r5, r5, r3
                i=100000000;
 8000ea2:	464c      	mov	r4, r9
 8000ea4:	e00c      	b.n	8000ec0 <main+0xe0>
		        	if(flag==1){
 8000ea6:	f1bb 0f01 	cmp.w	fp, #1
 8000eaa:	d012      	beq.n	8000ed2 <main+0xf2>
 8000eac:	fbb5 f0f4 	udiv	r0, r5, r4
		        	i=i/10;
 8000eb0:	fba7 2304 	umull	r2, r3, r7, r4
                while(i>0){
 8000eb4:	3e01      	subs	r6, #1
 8000eb6:	fb04 5510 	mls	r5, r4, r0, r5
		        	i=i/10;
 8000eba:	ea4f 04d3 	mov.w	r4, r3, lsr #3
                while(i>0){
 8000ebe:	d0e1      	beq.n	8000e84 <main+0xa4>
		        if(aux==0){
 8000ec0:	42ac      	cmp	r4, r5
 8000ec2:	d8f0      	bhi.n	8000ea6 <main+0xc6>
		        aux=diff/i;
 8000ec4:	fbb5 f0f4 	udiv	r0, r5, r4
		        	display_number(aux);
 8000ec8:	f7ff fba8 	bl	800061c <display_number>
		        	flag=1;
 8000ecc:	f04f 0b01 	mov.w	fp, #1
 8000ed0:	e7ee      	b.n	8000eb0 <main+0xd0>
		          		display_number(0);
 8000ed2:	2000      	movs	r0, #0
 8000ed4:	f7ff fba2 	bl	800061c <display_number>
 8000ed8:	e7e8      	b.n	8000eac <main+0xcc>
            b1_time1=b1_time2;
 8000eda:	e9da 1303 	ldrd	r1, r3, [sl, #12]
            b1_time2=ticks;
 8000ede:	f8da 2000 	ldr.w	r2, [sl]
            cnt++;
 8000ee2:	3301      	adds	r3, #1
            b1_time2=ticks;
 8000ee4:	e9ca 1202 	strd	r1, r2, [sl, #8]
            cnt++;
 8000ee8:	f8ca 3010 	str.w	r3, [sl, #16]
            display_msg();//CALL "I CAN MORSE" FUNCTION        
 8000eec:	f7ff f9ec 	bl	80002c8 <display_msg>
 8000ef0:	e7b0      	b.n	8000e54 <main+0x74>
 8000ef2:	bf00      	nop
 8000ef4:	0800491c 	.word	0x0800491c
 8000ef8:	48028100 	.word	0x48028100
 8000efc:	08004928 	.word	0x08004928
 8000f00:	2000ffc0 	.word	0x2000ffc0
 8000f04:	10624dd3 	.word	0x10624dd3
 8000f08:	e000ed00 	.word	0xe000ed00
 8000f0c:	cccccccd 	.word	0xcccccccd
 8000f10:	20000460 	.word	0x20000460
 8000f14:	05f5e100 	.word	0x05f5e100

08000f18 <USB0_0_IRQHandler>:
**                     Public Function Definitions                            **
*******************************************************************************/

void USB0_0_IRQHandler(void)
{
  XMC_USBD_IRQHandler(&USB_runtime);
 8000f18:	4801      	ldr	r0, [pc, #4]	; (8000f20 <USB0_0_IRQHandler+0x8>)
 8000f1a:	f001 b8bd 	b.w	8002098 <XMC_USBD_IRQHandler>
 8000f1e:	bf00      	nop
 8000f20:	20000000 	.word	0x20000000

08000f24 <USB_Init>:
}

/*The function initializes the USB core layer and register call backs. */
void USB_Init(void)
{
 8000f24:	b510      	push	{r4, lr}
  USBD_Initialize(&USB_runtime);
 8000f26:	4815      	ldr	r0, [pc, #84]	; (8000f7c <USB_Init+0x58>)
 8000f28:	f000 fb88 	bl	800163c <USBD_Initialize>
  return ((uint32_t)((SCB->AIRCR & SCB_AIRCR_PRIGROUP_Msk) >> SCB_AIRCR_PRIGROUP_Pos));
 8000f2c:	4b14      	ldr	r3, [pc, #80]	; (8000f80 <USB_Init+0x5c>)
 8000f2e:	68da      	ldr	r2, [r3, #12]
 8000f30:	f3c2 2202 	ubfx	r2, r2, #8, #3
  PreemptPriorityBits = ((7UL - PriorityGroupTmp) > (uint32_t)(__NVIC_PRIO_BITS)) ? (uint32_t)(__NVIC_PRIO_BITS) : (uint32_t)(7UL - PriorityGroupTmp);
 8000f34:	f1c2 0107 	rsb	r1, r2, #7
 8000f38:	2906      	cmp	r1, #6
 8000f3a:	bf28      	it	cs
 8000f3c:	2106      	movcs	r1, #6
  SubPriorityBits     = ((PriorityGroupTmp + (uint32_t)(__NVIC_PRIO_BITS)) < (uint32_t)7UL) ? (uint32_t)0UL : (uint32_t)((PriorityGroupTmp - 7UL) + (uint32_t)(__NVIC_PRIO_BITS));
 8000f3e:	b102      	cbz	r2, 8000f42 <USB_Init+0x1e>
 8000f40:	3a01      	subs	r2, #1
           ((PreemptPriority & (uint32_t)((1UL << (PreemptPriorityBits)) - 1UL)) << SubPriorityBits) |
 8000f42:	f04f 33ff 	mov.w	r3, #4294967295	; 0xffffffff
 8000f46:	408b      	lsls	r3, r1
 8000f48:	43db      	mvns	r3, r3
 8000f4a:	4093      	lsls	r3, r2
    NVIC->IP[((uint32_t)(int32_t)IRQn)]               = (uint8_t)((priority << (8U - __NVIC_PRIO_BITS)) & (uint32_t)0xFFUL);
 8000f4c:	009b      	lsls	r3, r3, #2
 8000f4e:	4a0d      	ldr	r2, [pc, #52]	; (8000f84 <USB_Init+0x60>)
			 *  register and despite the datasheet making no mention of its requirement in host mode.
			 */
			static inline void USB_Attach(void) ATTR_ALWAYS_INLINE;
			static inline void USB_Attach(void)
			{
				device.Driver->DeviceConnect();
 8000f50:	480d      	ldr	r0, [pc, #52]	; (8000f88 <USB_Init+0x64>)
 8000f52:	b2db      	uxtb	r3, r3
 8000f54:	f882 336b 	strb.w	r3, [r2, #875]	; 0x36b
    NVIC->ICPR[(((uint32_t)(int32_t)IRQn) >> 5UL)] = (uint32_t)(1UL << (((uint32_t)(int32_t)IRQn) & 0x1FUL));
 8000f58:	f44f 6100 	mov.w	r1, #2048	; 0x800
  NVIC_SetPriority(USB0_0_IRQn, NVIC_EncodePriority(NVIC_GetPriorityGrouping(), 63, 0));
  NVIC_ClearPendingIRQ(USB0_0_IRQn);
  NVIC_EnableIRQ(USB0_0_IRQn);

  /* LUFA Class Line Encoding*/
  VirtualSerial_CDC_Interface.State.LineEncoding.BaudRateBPS = 9600;
 8000f5c:	4b07      	ldr	r3, [pc, #28]	; (8000f7c <USB_Init+0x58>)
 8000f5e:	f8c2 118c 	str.w	r1, [r2, #396]	; 0x18c
    NVIC->ISER[(((uint32_t)(int32_t)IRQn) >> 5UL)] = (uint32_t)(1UL << (((uint32_t)(int32_t)IRQn) & 0x1FUL));
 8000f62:	60d1      	str	r1, [r2, #12]
 8000f64:	6802      	ldr	r2, [r0, #0]
  VirtualSerial_CDC_Interface.State.LineEncoding.DataBits = 8;
 8000f66:	2008      	movs	r0, #8
 8000f68:	f883 002e 	strb.w	r0, [r3, #46]	; 0x2e
  VirtualSerial_CDC_Interface.State.LineEncoding.BaudRateBPS = 9600;
 8000f6c:	f44f 5116 	mov.w	r1, #9600	; 0x2580
 8000f70:	68d2      	ldr	r2, [r2, #12]
 8000f72:	6299      	str	r1, [r3, #40]	; 0x28

  /* USB Connection*/
  USB_Attach();
	
}
 8000f74:	e8bd 4010 	ldmia.w	sp!, {r4, lr}
 8000f78:	4710      	bx	r2
 8000f7a:	bf00      	nop
 8000f7c:	20000000 	.word	0x20000000
 8000f80:	e000ed00 	.word	0xe000ed00
 8000f84:	e000e100 	.word	0xe000e100
 8000f88:	20000538 	.word	0x20000538

08000f8c <EVENT_USB_Device_Connect>:

/** Event handler for the library USB Connection event. */
void EVENT_USB_Device_Connect(void)
{
}
 8000f8c:	4770      	bx	lr
 8000f8e:	bf00      	nop

08000f90 <EVENT_USB_Device_Disconnect>:
 8000f90:	4770      	bx	lr
 8000f92:	bf00      	nop

08000f94 <EVENT_USB_Device_Reset>:
{
}

/** Event handler for the library USB Disconnection event. */
void EVENT_USB_Device_Reset(void)
{
 8000f94:	b510      	push	{r4, lr}
  if(device.IsConfigured)
 8000f96:	4c07      	ldr	r4, [pc, #28]	; (8000fb4 <EVENT_USB_Device_Reset+0x20>)
 8000f98:	f894 313e 	ldrb.w	r3, [r4, #318]	; 0x13e
 8000f9c:	07db      	lsls	r3, r3, #31
 8000f9e:	d400      	bmi.n	8000fa2 <EVENT_USB_Device_Reset+0xe>
  {
    USB_Init();
    device.IsConfigured=0;
  }
}
 8000fa0:	bd10      	pop	{r4, pc}
    USB_Init();
 8000fa2:	f7ff ffbf 	bl	8000f24 <USB_Init>
    device.IsConfigured=0;
 8000fa6:	f894 313e 	ldrb.w	r3, [r4, #318]	; 0x13e
 8000faa:	f36f 0300 	bfc	r3, #0, #1
 8000fae:	f884 313e 	strb.w	r3, [r4, #318]	; 0x13e
}
 8000fb2:	bd10      	pop	{r4, pc}
 8000fb4:	20000538 	.word	0x20000538

08000fb8 <EVENT_USB_Device_ConfigurationChanged>:

/* Event handler for the library USB Configuration Changed event. */
void EVENT_USB_Device_ConfigurationChanged(void)
{
 8000fb8:	b510      	push	{r4, lr}
  USBD_SetEndpointBuffer(CDC_NOTIFICATION_EPADDR, ep2_buf, 64);
 8000fba:	4c0e      	ldr	r4, [pc, #56]	; (8000ff4 <EVENT_USB_Device_ConfigurationChanged+0x3c>)
 8000fbc:	2240      	movs	r2, #64	; 0x40
 8000fbe:	4621      	mov	r1, r4
 8000fc0:	2081      	movs	r0, #129	; 0x81
 8000fc2:	f000 fb7b 	bl	80016bc <USBD_SetEndpointBuffer>
  USBD_SetEndpointBuffer(CDC_TX_EPADDR, ep3_buf, 64);
 8000fc6:	2240      	movs	r2, #64	; 0x40
 8000fc8:	18a1      	adds	r1, r4, r2
 8000fca:	2082      	movs	r0, #130	; 0x82
 8000fcc:	f000 fb76 	bl	80016bc <USBD_SetEndpointBuffer>
  USBD_SetEndpointBuffer(CDC_RX_EPADDR, ep4_buf, 64);
 8000fd0:	2240      	movs	r2, #64	; 0x40
 8000fd2:	f104 0180 	add.w	r1, r4, #128	; 0x80
 8000fd6:	2003      	movs	r0, #3
 8000fd8:	f000 fb70 	bl	80016bc <USBD_SetEndpointBuffer>
  CDC_Device_ConfigureEndpoints(&VirtualSerial_CDC_Interface);
 8000fdc:	4806      	ldr	r0, [pc, #24]	; (8000ff8 <EVENT_USB_Device_ConfigurationChanged+0x40>)
 8000fde:	f001 fb95 	bl	800270c <CDC_Device_ConfigureEndpoints>

  device.IsConfigured = 1;
 8000fe2:	4a06      	ldr	r2, [pc, #24]	; (8000ffc <EVENT_USB_Device_ConfigurationChanged+0x44>)
 8000fe4:	f892 313e 	ldrb.w	r3, [r2, #318]	; 0x13e
 8000fe8:	f043 0301 	orr.w	r3, r3, #1
 8000fec:	f882 313e 	strb.w	r3, [r2, #318]	; 0x13e
}
 8000ff0:	bd10      	pop	{r4, pc}
 8000ff2:	bf00      	nop
 8000ff4:	20000478 	.word	0x20000478
 8000ff8:	20000010 	.word	0x20000010
 8000ffc:	20000538 	.word	0x20000538

08001000 <EVENT_USB_Device_ControlRequest>:

/* Event handler for the library USB Control Request reception event. */
void EVENT_USB_Device_ControlRequest()
{
  CDC_Device_ProcessControlRequest(&VirtualSerial_CDC_Interface);
 8001000:	4801      	ldr	r0, [pc, #4]	; (8001008 <EVENT_USB_Device_ControlRequest+0x8>)
 8001002:	f001 bd1f 	b.w	8002a44 <CDC_Device_ProcessControlRequest>
 8001006:	bf00      	nop
 8001008:	20000010 	.word	0x20000010

0800100c <EVENT_USB_Device_StartOfFrame>:
 800100c:	4770      	bx	lr
 800100e:	bf00      	nop

08001010 <EVENT_USB_Device_WakeUp>:
 8001010:	4770      	bx	lr
 8001012:	bf00      	nop

08001014 <EVENT_USB_Device_Suspend>:
 8001014:	4770      	bx	lr
 8001016:	bf00      	nop

08001018 <CALLBACK_USB_GetDescriptor>:
 */
uint16_t CALLBACK_USB_GetDescriptor(const uint16_t wValue,
                                    const uint8_t wIndex,
                                    const void** const DescriptorAddress)
{
	const uint8_t  DescriptorType   = (wValue >> 8);
 8001018:	0a01      	lsrs	r1, r0, #8
	const uint8_t  DescriptorNumber = (wValue & 0xFF);

	const void* Address = NULL;
	uint16_t    Size    = NO_DESCRIPTOR;

	switch (DescriptorType)
 800101a:	2902      	cmp	r1, #2
 800101c:	d018      	beq.n	8001050 <CALLBACK_USB_GetDescriptor+0x38>
 800101e:	2903      	cmp	r1, #3
 8001020:	d009      	beq.n	8001036 <CALLBACK_USB_GetDescriptor+0x1e>
 8001022:	2901      	cmp	r1, #1
 8001024:	d003      	beq.n	800102e <CALLBACK_USB_GetDescriptor+0x16>
	const uint8_t  DescriptorNumber = (wValue & 0xFF);
 8001026:	2000      	movs	r0, #0
 8001028:	4603      	mov	r3, r0
					break;
			}
			break;
	}

	*DescriptorAddress = Address;
 800102a:	6013      	str	r3, [r2, #0]
	return Size;
}
 800102c:	4770      	bx	lr
	switch (DescriptorType)
 800102e:	4b0a      	ldr	r3, [pc, #40]	; (8001058 <CALLBACK_USB_GetDescriptor+0x40>)
	*DescriptorAddress = Address;
 8001030:	6013      	str	r3, [r2, #0]
	switch (DescriptorType)
 8001032:	2012      	movs	r0, #18
}
 8001034:	4770      	bx	lr
	const uint8_t  DescriptorNumber = (wValue & 0xFF);
 8001036:	b2c0      	uxtb	r0, r0
			switch (DescriptorNumber)
 8001038:	2802      	cmp	r0, #2
 800103a:	d8f4      	bhi.n	8001026 <CALLBACK_USB_GetDescriptor+0xe>
 800103c:	4b07      	ldr	r3, [pc, #28]	; (800105c <CALLBACK_USB_GetDescriptor+0x44>)
 800103e:	eb03 0180 	add.w	r1, r3, r0, lsl #2
 8001042:	eb03 0040 	add.w	r0, r3, r0, lsl #1
 8001046:	6d4b      	ldr	r3, [r1, #84]	; 0x54
 8001048:	f8b0 0060 	ldrh.w	r0, [r0, #96]	; 0x60
	*DescriptorAddress = Address;
 800104c:	6013      	str	r3, [r2, #0]
}
 800104e:	4770      	bx	lr
			Address = &ConfigurationDescriptor;
 8001050:	4b02      	ldr	r3, [pc, #8]	; (800105c <CALLBACK_USB_GetDescriptor+0x44>)
	*DescriptorAddress = Address;
 8001052:	6013      	str	r3, [r2, #0]
			Size    = sizeof(USB_Descriptor_Configuration_t);
 8001054:	203e      	movs	r0, #62	; 0x3e
}
 8001056:	4770      	bx	lr
 8001058:	08004974 	.word	0x08004974
 800105c:	08004934 	.word	0x08004934

08001060 <USBD_HandleEP0_Stall>:
/**
 * \brief Handle protocol stall on EP0
 *
 * Stalls EP0 and then restarts a new transfer including setting state to \ref IDLE.
 */
void USBD_HandleEP0_Stall() {
 8001060:	b510      	push	{r4, lr}
	/* When we stall ep0 as protocol stall, we go back into idle state and start a new read */
	device.Driver->EndpointStall(ENDPOINT_DIR_IN | 0,1);
 8001062:	4c08      	ldr	r4, [pc, #32]	; (8001084 <USBD_HandleEP0_Stall+0x24>)
 8001064:	6823      	ldr	r3, [r4, #0]
 8001066:	2101      	movs	r1, #1
 8001068:	6a5b      	ldr	r3, [r3, #36]	; 0x24
 800106a:	2080      	movs	r0, #128	; 0x80
 800106c:	4798      	blx	r3
	device.EP0_State = IDLE;
	device.Driver->EndpointReadStart(0,24);
 800106e:	6823      	ldr	r3, [r4, #0]
	device.EP0_State = IDLE;
 8001070:	2201      	movs	r2, #1
 8001072:	f884 213b 	strb.w	r2, [r4, #315]	; 0x13b
	device.Driver->EndpointReadStart(0,24);
 8001076:	6a9b      	ldr	r3, [r3, #40]	; 0x28
}
 8001078:	e8bd 4010 	ldmia.w	sp!, {r4, lr}
	device.Driver->EndpointReadStart(0,24);
 800107c:	2118      	movs	r1, #24
 800107e:	2000      	movs	r0, #0
 8001080:	4718      	bx	r3
 8001082:	bf00      	nop
 8001084:	20000538 	.word	0x20000538

08001088 <USB_Device_ProcessControlRequest>:
 * \ref EVENT_USB_Device_ControlRequest function. There the user has the chance to complete
 * some custom request or override the handling of this function. If the user has handled the
 * request, he has to call \ref Endpoint_ClearSETUP.
 *
 */
void USB_Device_ProcessControlRequest() {
 8001088:	b570      	push	{r4, r5, r6, lr}
	uint16_t status = 0;
	void *buffer;
	uint8_t Value;
	uint16_t Index;

	Value = USB_ControlRequest.wValue & 0x00FF;
 800108a:	4d9a      	ldr	r5, [pc, #616]	; (80012f4 <USB_Device_ProcessControlRequest+0x26c>)

	/* Handling of descriptors */
	EVENT_USB_Device_ControlRequest();
	if (!device.IsSetupRecieved)
 800108c:	4c9a      	ldr	r4, [pc, #616]	; (80012f8 <USB_Device_ProcessControlRequest+0x270>)
	Value = USB_ControlRequest.wValue & 0x00FF;
 800108e:	886e      	ldrh	r6, [r5, #2]
void USB_Device_ProcessControlRequest() {
 8001090:	b082      	sub	sp, #8
	uint16_t status = 0;
 8001092:	2300      	movs	r3, #0
 8001094:	f8ad 3002 	strh.w	r3, [sp, #2]
	EVENT_USB_Device_ControlRequest();
 8001098:	f7ff ffb2 	bl	8001000 <EVENT_USB_Device_ControlRequest>
	if (!device.IsSetupRecieved)
 800109c:	f894 313e 	ldrb.w	r3, [r4, #318]	; 0x13e
 80010a0:	079b      	lsls	r3, r3, #30
 80010a2:	d529      	bpl.n	80010f8 <USB_Device_ProcessControlRequest+0x70>
		return;

	/* default request handling */
	switch (USB_ControlRequest.bRequest) {
 80010a4:	786b      	ldrb	r3, [r5, #1]
	Value = USB_ControlRequest.wValue & 0x00FF;
 80010a6:	b2f6      	uxtb	r6, r6
	switch (USB_ControlRequest.bRequest) {
 80010a8:	2b0c      	cmp	r3, #12
 80010aa:	d812      	bhi.n	80010d2 <USB_Device_ProcessControlRequest+0x4a>
 80010ac:	e8df f003 	tbb	[pc, r3]
 80010b0:	7411992f 	.word	0x7411992f
 80010b4:	11078f11 	.word	0x11078f11
 80010b8:	5426655e 	.word	0x5426655e
 80010bc:	11          	.byte	0x11
 80010bd:	00          	.byte	0x00
	case REQ_GetConfiguration:
		device.Driver->EndpointWrite(0,&device.Configuration,1);
		break;

	case REQ_GetDescriptor:
		length = CALLBACK_USB_GetDescriptor(USB_ControlRequest.wValue,USB_ControlRequest.wIndex,(void*)&buffer);
 80010be:	88a9      	ldrh	r1, [r5, #4]
 80010c0:	8868      	ldrh	r0, [r5, #2]
 80010c2:	aa01      	add	r2, sp, #4
 80010c4:	b2c9      	uxtb	r1, r1
 80010c6:	f7ff ffa7 	bl	8001018 <CALLBACK_USB_GetDescriptor>
		if (length==0)
 80010ca:	4606      	mov	r6, r0
 80010cc:	2800      	cmp	r0, #0
 80010ce:	f040 8097 	bne.w	8001200 <USB_Device_ProcessControlRequest+0x178>
	device.Driver->EndpointStall(ENDPOINT_DIR_IN | 0,1);
 80010d2:	6823      	ldr	r3, [r4, #0]
 80010d4:	2101      	movs	r1, #1
 80010d6:	6a5b      	ldr	r3, [r3, #36]	; 0x24
 80010d8:	2080      	movs	r0, #128	; 0x80
 80010da:	4798      	blx	r3
	device.Driver->EndpointReadStart(0,24);
 80010dc:	6823      	ldr	r3, [r4, #0]
	device.EP0_State = IDLE;
 80010de:	2201      	movs	r2, #1
 80010e0:	f884 213b 	strb.w	r2, [r4, #315]	; 0x13b
	device.Driver->EndpointReadStart(0,24);
 80010e4:	6a9b      	ldr	r3, [r3, #40]	; 0x28
 80010e6:	2118      	movs	r1, #24
 80010e8:	2000      	movs	r0, #0
 80010ea:	4798      	blx	r3
		break;

	default:
		USBD_HandleEP0_Stall();
	}
	device.IsSetupRecieved = 0;
 80010ec:	f894 313e 	ldrb.w	r3, [r4, #318]	; 0x13e
 80010f0:	f36f 0341 	bfc	r3, #1, #1
 80010f4:	f884 313e 	strb.w	r3, [r4, #318]	; 0x13e
}
 80010f8:	b002      	add	sp, #8
 80010fa:	bd70      	pop	{r4, r5, r6, pc}
		if (USB_DeviceState == DEVICE_STATE_Configured) {
 80010fc:	4b7f      	ldr	r3, [pc, #508]	; (80012fc <USB_Device_ProcessControlRequest+0x274>)
 80010fe:	781a      	ldrb	r2, [r3, #0]
 8001100:	2a04      	cmp	r2, #4
 8001102:	f000 80a5 	beq.w	8001250 <USB_Device_ProcessControlRequest+0x1c8>
		if (USB_DeviceState == DEVICE_STATE_Addressed) {
 8001106:	781b      	ldrb	r3, [r3, #0]
 8001108:	2b03      	cmp	r3, #3
 800110a:	d1ef      	bne.n	80010ec <USB_Device_ProcessControlRequest+0x64>
 800110c:	e7e1      	b.n	80010d2 <USB_Device_ProcessControlRequest+0x4a>
		if ((USB_ControlRequest.bmRequestType & 0x3) == REQREC_DEVICE) {
 800110e:	7828      	ldrb	r0, [r5, #0]
 8001110:	f010 0003 	ands.w	r0, r0, #3
 8001114:	f000 808b 	beq.w	800122e <USB_Device_ProcessControlRequest+0x1a6>
		if ((USB_ControlRequest.bmRequestType & 0x3) == REQREC_INTERFACE && USB_DeviceState == DEVICE_STATE_Configured) {
 8001118:	2801      	cmp	r0, #1
 800111a:	f000 80c8 	beq.w	80012ae <USB_Device_ProcessControlRequest+0x226>
		if ((USB_ControlRequest.bmRequestType & 0x3) == REQREC_ENDPOINT) {
 800111e:	2802      	cmp	r0, #2
 8001120:	d1d7      	bne.n	80010d2 <USB_Device_ProcessControlRequest+0x4a>
			if ((USB_DeviceState == DEVICE_STATE_Configured || USB_ControlRequest.wIndex==0) &&
 8001122:	4a76      	ldr	r2, [pc, #472]	; (80012fc <USB_Device_ProcessControlRequest+0x274>)
			Index = USB_ControlRequest.wIndex & 0xFF & ENDPOINT_EPNUM_MASK;
 8001124:	88ab      	ldrh	r3, [r5, #4]
			if ((USB_DeviceState == DEVICE_STATE_Configured || USB_ControlRequest.wIndex==0) &&
 8001126:	7812      	ldrb	r2, [r2, #0]
 8001128:	2a04      	cmp	r2, #4
 800112a:	d001      	beq.n	8001130 <USB_Device_ProcessControlRequest+0xa8>
 800112c:	2b00      	cmp	r3, #0
 800112e:	d1d0      	bne.n	80010d2 <USB_Device_ProcessControlRequest+0x4a>
					device.Endpoints[Index].IsConfigured==1) {
 8001130:	f003 030f 	and.w	r3, r3, #15
 8001134:	222c      	movs	r2, #44	; 0x2c
 8001136:	fb02 4303 	mla	r3, r2, r3, r4
 800113a:	7a1b      	ldrb	r3, [r3, #8]
			if ((USB_DeviceState == DEVICE_STATE_Configured || USB_ControlRequest.wIndex==0) &&
 800113c:	07d8      	lsls	r0, r3, #31
 800113e:	d5c8      	bpl.n	80010d2 <USB_Device_ProcessControlRequest+0x4a>
				device.Driver->EndpointWrite(0,(uint8_t*)&status,2);
 8001140:	6822      	ldr	r2, [r4, #0]
				status = device.Endpoints[Index].IsHalted;
 8001142:	f3c3 0380 	ubfx	r3, r3, #2, #1
				device.Driver->EndpointWrite(0,(uint8_t*)&status,2);
 8001146:	6b15      	ldr	r5, [r2, #48]	; 0x30
				status = device.Endpoints[Index].IsHalted;
 8001148:	f8ad 3002 	strh.w	r3, [sp, #2]
				device.Driver->EndpointWrite(0,(uint8_t*)&status,2);
 800114c:	2202      	movs	r2, #2
 800114e:	eb0d 0102 	add.w	r1, sp, r2
 8001152:	2000      	movs	r0, #0
 8001154:	47a8      	blx	r5
				break;
 8001156:	e7c9      	b.n	80010ec <USB_Device_ProcessControlRequest+0x64>
		if (USB_DeviceState == DEVICE_STATE_Configured) {
 8001158:	4b68      	ldr	r3, [pc, #416]	; (80012fc <USB_Device_ProcessControlRequest+0x274>)
 800115a:	781a      	ldrb	r2, [r3, #0]
 800115c:	2a04      	cmp	r2, #4
 800115e:	d1d2      	bne.n	8001106 <USB_Device_ProcessControlRequest+0x7e>
			device.InterfaceSettings[USB_ControlRequest.wIndex] = USB_ControlRequest.wValue;
 8001160:	88ab      	ldrh	r3, [r5, #4]
 8001162:	886a      	ldrh	r2, [r5, #2]
 8001164:	4423      	add	r3, r4
 8001166:	f883 2138 	strb.w	r2, [r3, #312]	; 0x138
			break;
 800116a:	e7bf      	b.n	80010ec <USB_Device_ProcessControlRequest+0x64>
		device.Driver->EndpointWrite(0,&device.Configuration,1);
 800116c:	6823      	ldr	r3, [r4, #0]
 800116e:	4964      	ldr	r1, [pc, #400]	; (8001300 <USB_Device_ProcessControlRequest+0x278>)
 8001170:	6b1b      	ldr	r3, [r3, #48]	; 0x30
 8001172:	2201      	movs	r2, #1
 8001174:	2000      	movs	r0, #0
 8001176:	4798      	blx	r3
		break;
 8001178:	e7b8      	b.n	80010ec <USB_Device_ProcessControlRequest+0x64>
		device.Configuration = Value;
 800117a:	f884 6139 	strb.w	r6, [r4, #313]	; 0x139
		EVENT_USB_Device_ConfigurationChanged();
 800117e:	f7ff ff1b 	bl	8000fb8 <EVENT_USB_Device_ConfigurationChanged>
		if (Value == 0) {
 8001182:	2e00      	cmp	r6, #0
 8001184:	d04c      	beq.n	8001220 <USB_Device_ProcessControlRequest+0x198>
		if (device.IsConfigured == 1)
 8001186:	f894 313e 	ldrb.w	r3, [r4, #318]	; 0x13e
 800118a:	f013 0501 	ands.w	r5, r3, #1
 800118e:	d0a0      	beq.n	80010d2 <USB_Device_ProcessControlRequest+0x4a>
			USB_DeviceState = DEVICE_STATE_Configured;
 8001190:	4b5a      	ldr	r3, [pc, #360]	; (80012fc <USB_Device_ProcessControlRequest+0x274>)
 8001192:	2204      	movs	r2, #4
 8001194:	701a      	strb	r2, [r3, #0]
 8001196:	e7a9      	b.n	80010ec <USB_Device_ProcessControlRequest+0x64>
		if (Value == FEATURE_SEL_TestMode) {
 8001198:	2e02      	cmp	r6, #2
 800119a:	d09a      	beq.n	80010d2 <USB_Device_ProcessControlRequest+0x4a>
		if (USB_DeviceState == DEVICE_STATE_Configured) {
 800119c:	4b57      	ldr	r3, [pc, #348]	; (80012fc <USB_Device_ProcessControlRequest+0x274>)
 800119e:	781a      	ldrb	r2, [r3, #0]
 80011a0:	2a04      	cmp	r2, #4
 80011a2:	d079      	beq.n	8001298 <USB_Device_ProcessControlRequest+0x210>
		if (USB_DeviceState == DEVICE_STATE_Addressed) {
 80011a4:	781b      	ldrb	r3, [r3, #0]
 80011a6:	2b03      	cmp	r3, #3
 80011a8:	d193      	bne.n	80010d2 <USB_Device_ProcessControlRequest+0x4a>
			if (Value == FEATURE_SEL_EndpointHalt &&
 80011aa:	2e00      	cmp	r6, #0
 80011ac:	d191      	bne.n	80010d2 <USB_Device_ProcessControlRequest+0x4a>
 80011ae:	782b      	ldrb	r3, [r5, #0]
 80011b0:	f003 0303 	and.w	r3, r3, #3
 80011b4:	2b02      	cmp	r3, #2
 80011b6:	d18c      	bne.n	80010d2 <USB_Device_ProcessControlRequest+0x4a>
					(USB_ControlRequest.wIndex & 0x00FF) == 0x0) {
 80011b8:	88ab      	ldrh	r3, [r5, #4]
					(USB_ControlRequest.bmRequestType & 0x3) == REQREC_ENDPOINT &&
 80011ba:	b2db      	uxtb	r3, r3
 80011bc:	2b00      	cmp	r3, #0
 80011be:	d188      	bne.n	80010d2 <USB_Device_ProcessControlRequest+0x4a>
				device.Endpoints[0].IsHalted = 1;
 80011c0:	7a23      	ldrb	r3, [r4, #8]
 80011c2:	f043 0304 	orr.w	r3, r3, #4
 80011c6:	7223      	strb	r3, [r4, #8]
				USBD_HandleEP0_Stall();
 80011c8:	f7ff ff4a 	bl	8001060 <USBD_HandleEP0_Stall>
				break;
 80011cc:	e78e      	b.n	80010ec <USB_Device_ProcessControlRequest+0x64>
			USB_DeviceState = DEVICE_STATE_Default;
 80011ce:	4b4b      	ldr	r3, [pc, #300]	; (80012fc <USB_Device_ProcessControlRequest+0x274>)
		if (Value == 0)
 80011d0:	b356      	cbz	r6, 8001228 <USB_Device_ProcessControlRequest+0x1a0>
			USB_DeviceState = DEVICE_STATE_Addressed;
 80011d2:	2203      	movs	r2, #3
 80011d4:	701a      	strb	r2, [r3, #0]
		device.Driver->DeviceSetAddress(Value,XMC_USBD_SET_ADDRESS_STAGE_SETUP);
 80011d6:	6823      	ldr	r3, [r4, #0]
 80011d8:	2100      	movs	r1, #0
 80011da:	699b      	ldr	r3, [r3, #24]
 80011dc:	4630      	mov	r0, r6
 80011de:	4798      	blx	r3
		break;
 80011e0:	e784      	b.n	80010ec <USB_Device_ProcessControlRequest+0x64>
		if ((USB_ControlRequest.bmRequestType & 0x3) == REQREC_ENDPOINT) {
 80011e2:	782b      	ldrb	r3, [r5, #0]
 80011e4:	f003 0303 	and.w	r3, r3, #3
 80011e8:	2b02      	cmp	r3, #2
 80011ea:	d03b      	beq.n	8001264 <USB_Device_ProcessControlRequest+0x1dc>
		if ((USB_ControlRequest.bmRequestType & 0x3) == REQREC_DEVICE) {
 80011ec:	2b00      	cmp	r3, #0
 80011ee:	f47f af70 	bne.w	80010d2 <USB_Device_ProcessControlRequest+0x4a>
			 device.RemoteWakeUp = 0;
 80011f2:	f894 213e 	ldrb.w	r2, [r4, #318]	; 0x13e
 80011f6:	f363 0282 	bfi	r2, r3, #2, #1
 80011fa:	f884 213e 	strb.w	r2, [r4, #318]	; 0x13e
			 break;
 80011fe:	e775      	b.n	80010ec <USB_Device_ProcessControlRequest+0x64>
			length = length < USB_ControlRequest.wLength ?
 8001200:	88ea      	ldrh	r2, [r5, #6]
			ret = device.Driver->EndpointWrite(0,buffer,length);
 8001202:	6823      	ldr	r3, [r4, #0]
 8001204:	9901      	ldr	r1, [sp, #4]
 8001206:	6b1b      	ldr	r3, [r3, #48]	; 0x30
			length = length < USB_ControlRequest.wLength ?
 8001208:	4290      	cmp	r0, r2
 800120a:	bf28      	it	cs
 800120c:	4616      	movcs	r6, r2
			ret = device.Driver->EndpointWrite(0,buffer,length);
 800120e:	4632      	mov	r2, r6
 8001210:	2000      	movs	r0, #0
 8001212:	4798      	blx	r3
			device.Endpoints[0].InDataBuffer = (uint8_t *)((uint32_t)buffer + ret);
 8001214:	9b01      	ldr	r3, [sp, #4]
			device.Endpoints[0].InDataLeft = length - ret;
 8001216:	1a36      	subs	r6, r6, r0
			device.Endpoints[0].InDataBuffer = (uint8_t *)((uint32_t)buffer + ret);
 8001218:	4418      	add	r0, r3
 800121a:	e9c4 600a 	strd	r6, r0, [r4, #40]	; 0x28
 800121e:	e765      	b.n	80010ec <USB_Device_ProcessControlRequest+0x64>
			USB_DeviceState = DEVICE_STATE_Addressed;
 8001220:	4b36      	ldr	r3, [pc, #216]	; (80012fc <USB_Device_ProcessControlRequest+0x274>)
 8001222:	2203      	movs	r2, #3
 8001224:	701a      	strb	r2, [r3, #0]
			break;
 8001226:	e761      	b.n	80010ec <USB_Device_ProcessControlRequest+0x64>
			USB_DeviceState = DEVICE_STATE_Default;
 8001228:	2202      	movs	r2, #2
 800122a:	701a      	strb	r2, [r3, #0]
 800122c:	e7d3      	b.n	80011d6 <USB_Device_ProcessControlRequest+0x14e>
			status = device.RemoteWakeUp << 1 | device.SelfPowered;
 800122e:	f894 313e 	ldrb.w	r3, [r4, #318]	; 0x13e
 8001232:	f3c3 0280 	ubfx	r2, r3, #2, #1
 8001236:	f3c3 03c0 	ubfx	r3, r3, #3, #1
 800123a:	ea43 0342 	orr.w	r3, r3, r2, lsl #1
			device.Driver->EndpointWrite(0,(uint8_t*)&status,2);
 800123e:	6822      	ldr	r2, [r4, #0]
			status = device.RemoteWakeUp << 1 | device.SelfPowered;
 8001240:	f8ad 3002 	strh.w	r3, [sp, #2]
			device.Driver->EndpointWrite(0,(uint8_t*)&status,2);
 8001244:	6b13      	ldr	r3, [r2, #48]	; 0x30
 8001246:	2202      	movs	r2, #2
 8001248:	eb0d 0102 	add.w	r1, sp, r2
 800124c:	4798      	blx	r3
			break;
 800124e:	e74d      	b.n	80010ec <USB_Device_ProcessControlRequest+0x64>
			device.Driver->EndpointWrite(0,&device.InterfaceSettings[USB_ControlRequest.wIndex],1);
 8001250:	88a9      	ldrh	r1, [r5, #4]
 8001252:	6823      	ldr	r3, [r4, #0]
 8001254:	f501 719c 	add.w	r1, r1, #312	; 0x138
 8001258:	6b1b      	ldr	r3, [r3, #48]	; 0x30
 800125a:	2201      	movs	r2, #1
 800125c:	4421      	add	r1, r4
 800125e:	2000      	movs	r0, #0
 8001260:	4798      	blx	r3
			break;
 8001262:	e743      	b.n	80010ec <USB_Device_ProcessControlRequest+0x64>
			if ((USB_DeviceState == DEVICE_STATE_Configured || USB_ControlRequest.wIndex==0)  &&
 8001264:	4b25      	ldr	r3, [pc, #148]	; (80012fc <USB_Device_ProcessControlRequest+0x274>)
			Index = USB_ControlRequest.wIndex & ENDPOINT_EPNUM_MASK;
 8001266:	88a8      	ldrh	r0, [r5, #4]
			if ((USB_DeviceState == DEVICE_STATE_Configured || USB_ControlRequest.wIndex==0)  &&
 8001268:	781b      	ldrb	r3, [r3, #0]
 800126a:	2b04      	cmp	r3, #4
 800126c:	d002      	beq.n	8001274 <USB_Device_ProcessControlRequest+0x1ec>
 800126e:	2800      	cmp	r0, #0
 8001270:	f47f af2f 	bne.w	80010d2 <USB_Device_ProcessControlRequest+0x4a>
					device.Endpoints[Index].IsConfigured==1) {
 8001274:	222c      	movs	r2, #44	; 0x2c
 8001276:	f000 030f 	and.w	r3, r0, #15
 800127a:	fb02 4303 	mla	r3, r2, r3, r4
 800127e:	7a1a      	ldrb	r2, [r3, #8]
			if ((USB_DeviceState == DEVICE_STATE_Configured || USB_ControlRequest.wIndex==0)  &&
 8001280:	07d5      	lsls	r5, r2, #31
 8001282:	f57f af26 	bpl.w	80010d2 <USB_Device_ProcessControlRequest+0x4a>
				device.Driver->EndpointStall(USB_ControlRequest.wIndex,0);
 8001286:	6821      	ldr	r1, [r4, #0]
				device.Endpoints[Index].IsHalted = 0;
 8001288:	f36f 0282 	bfc	r2, #2, #1
				device.Driver->EndpointStall(USB_ControlRequest.wIndex,0);
 800128c:	6a4d      	ldr	r5, [r1, #36]	; 0x24
				device.Endpoints[Index].IsHalted = 0;
 800128e:	721a      	strb	r2, [r3, #8]
				device.Driver->EndpointStall(USB_ControlRequest.wIndex,0);
 8001290:	2100      	movs	r1, #0
 8001292:	b2c0      	uxtb	r0, r0
 8001294:	47a8      	blx	r5
 8001296:	e729      	b.n	80010ec <USB_Device_ProcessControlRequest+0x64>
			switch (Value) {
 8001298:	b1c6      	cbz	r6, 80012cc <USB_Device_ProcessControlRequest+0x244>
 800129a:	2e01      	cmp	r6, #1
 800129c:	f47f af26 	bne.w	80010ec <USB_Device_ProcessControlRequest+0x64>
				device.RemoteWakeUp = 1;
 80012a0:	f894 313e 	ldrb.w	r3, [r4, #318]	; 0x13e
 80012a4:	f043 0304 	orr.w	r3, r3, #4
 80012a8:	f884 313e 	strb.w	r3, [r4, #318]	; 0x13e
				break;
 80012ac:	e71e      	b.n	80010ec <USB_Device_ProcessControlRequest+0x64>
		if ((USB_ControlRequest.bmRequestType & 0x3) == REQREC_INTERFACE && USB_DeviceState == DEVICE_STATE_Configured) {
 80012ae:	4b13      	ldr	r3, [pc, #76]	; (80012fc <USB_Device_ProcessControlRequest+0x274>)
 80012b0:	781b      	ldrb	r3, [r3, #0]
 80012b2:	2b04      	cmp	r3, #4
 80012b4:	f47f af0d 	bne.w	80010d2 <USB_Device_ProcessControlRequest+0x4a>
			device.Driver->EndpointWrite(0,(uint8_t*)&status,2);
 80012b8:	6823      	ldr	r3, [r4, #0]
 80012ba:	2202      	movs	r2, #2
			status = 0;
 80012bc:	2000      	movs	r0, #0
			device.Driver->EndpointWrite(0,(uint8_t*)&status,2);
 80012be:	6b1b      	ldr	r3, [r3, #48]	; 0x30
			status = 0;
 80012c0:	f8ad 0002 	strh.w	r0, [sp, #2]
			device.Driver->EndpointWrite(0,(uint8_t*)&status,2);
 80012c4:	eb0d 0102 	add.w	r1, sp, r2
 80012c8:	4798      	blx	r3
			break;
 80012ca:	e70f      	b.n	80010ec <USB_Device_ProcessControlRequest+0x64>
				Index = USB_ControlRequest.wIndex & 0xFF & (uint8_t)XMC_USBD_ENDPOINT_NUMBER_MASK;
 80012cc:	88a8      	ldrh	r0, [r5, #4]
				if (device.Endpoints[Index].IsConfigured == 0)
 80012ce:	222c      	movs	r2, #44	; 0x2c
 80012d0:	f000 030f 	and.w	r3, r0, #15
 80012d4:	fb02 4303 	mla	r3, r2, r3, r4
 80012d8:	7a1a      	ldrb	r2, [r3, #8]
 80012da:	07d1      	lsls	r1, r2, #31
 80012dc:	f57f aef9 	bpl.w	80010d2 <USB_Device_ProcessControlRequest+0x4a>
					device.Driver->EndpointStall(USB_ControlRequest.wIndex,1);
 80012e0:	6821      	ldr	r1, [r4, #0]
					device.Endpoints[Index].IsHalted = 1;
 80012e2:	f042 0204 	orr.w	r2, r2, #4
					device.Driver->EndpointStall(USB_ControlRequest.wIndex,1);
 80012e6:	6a4d      	ldr	r5, [r1, #36]	; 0x24
					device.Endpoints[Index].IsHalted = 1;
 80012e8:	721a      	strb	r2, [r3, #8]
					device.Driver->EndpointStall(USB_ControlRequest.wIndex,1);
 80012ea:	2101      	movs	r1, #1
 80012ec:	b2c0      	uxtb	r0, r0
 80012ee:	47a8      	blx	r5
 80012f0:	e6fc      	b.n	80010ec <USB_Device_ProcessControlRequest+0x64>
 80012f2:	bf00      	nop
 80012f4:	20000ac0 	.word	0x20000ac0
 80012f8:	20000538 	.word	0x20000538
 80012fc:	20000abc 	.word	0x20000abc
 8001300:	20000671 	.word	0x20000671

08001304 <USBD_HandleEP0_IN>:
 * \brief Handle complete IN transfer on EP0
 *
 * In \ref IN_DATA state it starts a receive and switches to \ref OUT_STATUS state.
 * In \ref IN_STATUS state its starts a new read of setup packets and switches to \ref IDLE.
 */
void USBD_HandleEP0_IN() {
 8001304:	b510      	push	{r4, lr}
	if (device.EP0_State == IN_DATA) {
 8001306:	4c0c      	ldr	r4, [pc, #48]	; (8001338 <USBD_HandleEP0_IN+0x34>)
 8001308:	f894 313b 	ldrb.w	r3, [r4, #315]	; 0x13b
 800130c:	2b02      	cmp	r3, #2
 800130e:	d00a      	beq.n	8001326 <USBD_HandleEP0_IN+0x22>
		/* Read zero length out data packet */
		device.Driver->EndpointReadStart(0,0);
		device.EP0_State = OUT_STATUS;
	}
	if (device.EP0_State == IN_STATUS) {
 8001310:	2b03      	cmp	r3, #3
 8001312:	d107      	bne.n	8001324 <USBD_HandleEP0_IN+0x20>
		/* Request new setup packet */
		device.Driver->EndpointReadStart(device.Endpoints[0].Address,24);
 8001314:	6823      	ldr	r3, [r4, #0]
 8001316:	7920      	ldrb	r0, [r4, #4]
 8001318:	6a9b      	ldr	r3, [r3, #40]	; 0x28
 800131a:	2118      	movs	r1, #24
 800131c:	4798      	blx	r3
		device.EP0_State = IDLE;
 800131e:	2301      	movs	r3, #1
 8001320:	f884 313b 	strb.w	r3, [r4, #315]	; 0x13b
	}
}
 8001324:	bd10      	pop	{r4, pc}
		device.Driver->EndpointReadStart(0,0);
 8001326:	6823      	ldr	r3, [r4, #0]
 8001328:	2100      	movs	r1, #0
 800132a:	6a9b      	ldr	r3, [r3, #40]	; 0x28
 800132c:	4608      	mov	r0, r1
 800132e:	4798      	blx	r3
		device.EP0_State = OUT_STATUS;
 8001330:	2305      	movs	r3, #5
 8001332:	f884 313b 	strb.w	r3, [r4, #315]	; 0x13b
}
 8001336:	bd10      	pop	{r4, pc}
 8001338:	20000538 	.word	0x20000538

0800133c <USBD_HandleEP0_OUT>:
 * \brief Handle complete OUT transfer on EP0
 *
 * Handles the OUT packet based on the state of endpoint 0. Starts a new read for new SETUP packets, when in \ref OUT_STATUS.
 * When endpoint 0 is in \ref OUT_DATA state, it handles the received data and starts a write transaction for \ref IN_STATUS.
 */
void USBD_HandleEP0_OUT() {
 800133c:	b510      	push	{r4, lr}
	if (device.EP0_State == OUT_DATA) {
 800133e:	4c0e      	ldr	r4, [pc, #56]	; (8001378 <USBD_HandleEP0_OUT+0x3c>)
 8001340:	f894 313b 	ldrb.w	r3, [r4, #315]	; 0x13b
 8001344:	2b04      	cmp	r3, #4
 8001346:	d00b      	beq.n	8001360 <USBD_HandleEP0_OUT+0x24>
		USB_Device_ProcessControlRequest();
		/* Zero length packet for status stage */
		device.Driver->EndpointWrite(ENDPOINT_DIR_MASK & 0,0,0);
		device.EP0_State = IN_STATUS;
	}
	if (device.EP0_State == OUT_STATUS) {
 8001348:	2b05      	cmp	r3, #5
 800134a:	d000      	beq.n	800134e <USBD_HandleEP0_OUT+0x12>
		/* Request new setup packet */
		device.Driver->EndpointReadStart(device.Endpoints[0].Address,24);
		device.EP0_State = IDLE;
	}
}
 800134c:	bd10      	pop	{r4, pc}
		device.Driver->EndpointReadStart(device.Endpoints[0].Address,24);
 800134e:	6823      	ldr	r3, [r4, #0]
 8001350:	7920      	ldrb	r0, [r4, #4]
 8001352:	6a9b      	ldr	r3, [r3, #40]	; 0x28
 8001354:	2118      	movs	r1, #24
 8001356:	4798      	blx	r3
		device.EP0_State = IDLE;
 8001358:	2301      	movs	r3, #1
 800135a:	f884 313b 	strb.w	r3, [r4, #315]	; 0x13b
}
 800135e:	bd10      	pop	{r4, pc}
		USB_Device_ProcessControlRequest();
 8001360:	f7ff fe92 	bl	8001088 <USB_Device_ProcessControlRequest>
		device.Driver->EndpointWrite(ENDPOINT_DIR_MASK & 0,0,0);
 8001364:	6823      	ldr	r3, [r4, #0]
 8001366:	2200      	movs	r2, #0
 8001368:	6b1b      	ldr	r3, [r3, #48]	; 0x30
 800136a:	4611      	mov	r1, r2
 800136c:	4610      	mov	r0, r2
 800136e:	4798      	blx	r3
		device.EP0_State = IN_STATUS;
 8001370:	2303      	movs	r3, #3
 8001372:	f884 313b 	strb.w	r3, [r4, #315]	; 0x13b
}
 8001376:	bd10      	pop	{r4, pc}
 8001378:	20000538 	.word	0x20000538

0800137c <USBD_HandleEP0_SETUP>:
 * Handles the setup package an switches to correct state. If data is send from host to device it switches into \ref OUT_DATA state.
 * When the hosts sends all data within the setup package and \ref wLength equals zero, starts processing the request and sends a
 * in status reponse including the switch to \ref IN_STATUS.
 * When the host expects data from the device, the function processes the control request and switches to \ref IN_DATA state.
 */
void USBD_HandleEP0_SETUP() {
 800137c:	b570      	push	{r4, r5, r6, lr}
	/* read setup package from ep0 */
	int32_t ret_val = device.Driver->EndpointRead(0,(void*)&USB_ControlRequest,8);
 800137e:	4c1a      	ldr	r4, [pc, #104]	; (80013e8 <USBD_HandleEP0_SETUP+0x6c>)
 8001380:	4d1a      	ldr	r5, [pc, #104]	; (80013ec <USBD_HandleEP0_SETUP+0x70>)
 8001382:	6823      	ldr	r3, [r4, #0]
 8001384:	2208      	movs	r2, #8
 8001386:	6adb      	ldr	r3, [r3, #44]	; 0x2c
 8001388:	4629      	mov	r1, r5
 800138a:	2000      	movs	r0, #0
 800138c:	4798      	blx	r3
#if NO_COPY_DRIVER
	MEMCPY(&USB_ControlRequest,device.Endpoints[0].OutBuffer,sizeof(USB_ControlRequest));
#endif
	device.IsSetupRecieved = true;
 800138e:	f894 313e 	ldrb.w	r3, [r4, #318]	; 0x13e
	if (ret_val != 8 )
 8001392:	2808      	cmp	r0, #8
	device.IsSetupRecieved = true;
 8001394:	f043 0302 	orr.w	r3, r3, #2
 8001398:	f884 313e 	strb.w	r3, [r4, #318]	; 0x13e
	if (ret_val != 8 )
 800139c:	d10f      	bne.n	80013be <USBD_HandleEP0_SETUP+0x42>
		return;

	/* preprocess */
	/* if length is zero we have only a in_status phase */
	if (USB_ControlRequest.wLength==0) {
 800139e:	88ee      	ldrh	r6, [r5, #6]
 80013a0:	b176      	cbz	r6, 80013c0 <USBD_HandleEP0_SETUP+0x44>
		device.EP0_State = IN_STATUS;
		USB_Device_ProcessControlRequest();
		device.Driver->EndpointWrite(0,0,0);
	} else {
		if (USB_ControlRequest.bmRequestType & CONTROL_REQTYPE_DIRECTION) {
 80013a2:	f995 3000 	ldrsb.w	r3, [r5]
 80013a6:	2b00      	cmp	r3, #0
 80013a8:	db17      	blt.n	80013da <USBD_HandleEP0_SETUP+0x5e>
			USB_Device_ProcessControlRequest();
		}
		else {
			device.EP0_State = OUT_DATA;
			/* Do not process request here, first read data */
			device.Driver->EndpointReadStart(0,USB_ControlRequest.wLength);
 80013aa:	6823      	ldr	r3, [r4, #0]
			device.EP0_State = OUT_DATA;
 80013ac:	2204      	movs	r2, #4
 80013ae:	f884 213b 	strb.w	r2, [r4, #315]	; 0x13b
			device.Driver->EndpointReadStart(0,USB_ControlRequest.wLength);
 80013b2:	4631      	mov	r1, r6
 80013b4:	6a9b      	ldr	r3, [r3, #40]	; 0x28
		}
	}
}
 80013b6:	e8bd 4070 	ldmia.w	sp!, {r4, r5, r6, lr}
			device.Driver->EndpointReadStart(0,USB_ControlRequest.wLength);
 80013ba:	2000      	movs	r0, #0
 80013bc:	4718      	bx	r3
}
 80013be:	bd70      	pop	{r4, r5, r6, pc}
		device.EP0_State = IN_STATUS;
 80013c0:	2303      	movs	r3, #3
 80013c2:	f884 313b 	strb.w	r3, [r4, #315]	; 0x13b
		USB_Device_ProcessControlRequest();
 80013c6:	f7ff fe5f 	bl	8001088 <USB_Device_ProcessControlRequest>
		device.Driver->EndpointWrite(0,0,0);
 80013ca:	6823      	ldr	r3, [r4, #0]
 80013cc:	4632      	mov	r2, r6
 80013ce:	4631      	mov	r1, r6
 80013d0:	4630      	mov	r0, r6
 80013d2:	6b1b      	ldr	r3, [r3, #48]	; 0x30
}
 80013d4:	e8bd 4070 	ldmia.w	sp!, {r4, r5, r6, lr}
		device.Driver->EndpointWrite(0,0,0);
 80013d8:	4718      	bx	r3
			device.EP0_State = IN_DATA;
 80013da:	2302      	movs	r3, #2
 80013dc:	f884 313b 	strb.w	r3, [r4, #315]	; 0x13b
}
 80013e0:	e8bd 4070 	ldmia.w	sp!, {r4, r5, r6, lr}
			USB_Device_ProcessControlRequest();
 80013e4:	f7ff be50 	b.w	8001088 <USB_Device_ProcessControlRequest>
 80013e8:	20000538 	.word	0x20000538
 80013ec:	20000ac0 	.word	0x20000ac0

080013f0 <USBD_SignalDeviceEventHandler>:
 * The device can have several events, where it notifies the application about.
 *
 * \note Not all events are available on all chip series. (Power Events are only supported on XMC4500)
 * \see USB_USBD_EVENT
 */
void USBD_SignalDeviceEventHandler(XMC_USBD_EVENT_t event) {
 80013f0:	e92d 41f0 	stmdb	sp!, {r4, r5, r6, r7, r8, lr}
 80013f4:	b082      	sub	sp, #8
	int i;
	switch (event) {
 80013f6:	2809      	cmp	r0, #9
 80013f8:	d80b      	bhi.n	8001412 <USBD_SignalDeviceEventHandler+0x22>
 80013fa:	e8df f000 	tbb	[pc, r0]
 80013fe:	360d      	.short	0x360d
 8001400:	0a4d4540 	.word	0x0a4d4540
 8001404:	050a9488 	.word	0x050a9488
		EVENT_USB_Device_Suspend();
		break;
	default:
		return;
	}
}
 8001408:	b002      	add	sp, #8
 800140a:	e8bd 41f0 	ldmia.w	sp!, {r4, r5, r6, r7, r8, lr}
		EVENT_USB_Device_StartOfFrame();
 800140e:	f7ff bdfd 	b.w	800100c <EVENT_USB_Device_StartOfFrame>
}
 8001412:	b002      	add	sp, #8
 8001414:	e8bd 81f0 	ldmia.w	sp!, {r4, r5, r6, r7, r8, pc}
		 memset(&device,0x0,sizeof(USB_Device_t));
 8001418:	4b48      	ldr	r3, [pc, #288]	; (800153c <USBD_SignalDeviceEventHandler+0x14c>)
		 USB_DeviceState = DEVICE_STATE_Powered;
 800141a:	4849      	ldr	r0, [pc, #292]	; (8001540 <USBD_SignalDeviceEventHandler+0x150>)
 800141c:	2401      	movs	r4, #1
 800141e:	7004      	strb	r4, [r0, #0]
		 memset(&device,0x0,sizeof(USB_Device_t));
 8001420:	f44f 72a0 	mov.w	r2, #320	; 0x140
 8001424:	2100      	movs	r1, #0
 8001426:	4618      	mov	r0, r3
 8001428:	f003 f9ac 	bl	8004784 <memset>
		 device.Driver = &Driver_USBD0;
 800142c:	4945      	ldr	r1, [pc, #276]	; (8001544 <USBD_SignalDeviceEventHandler+0x154>)
		 memset(&device,0x0,sizeof(USB_Device_t));
 800142e:	4603      	mov	r3, r0
		 device.Endpoints[0].InBufferLength = 256;
 8001430:	f44f 7280 	mov.w	r2, #256	; 0x100
		 device.Driver = &Driver_USBD0;
 8001434:	6019      	str	r1, [r3, #0]
		 device.Driver->EndpointConfigure(0,XMC_USBD_ENDPOINT_TYPE_CONTROL,
 8001436:	69c9      	ldr	r1, [r1, #28]
 8001438:	9101      	str	r1, [sp, #4]
 800143a:	eddd 7a01 	vldr	s15, [sp, #4]
		 device.Endpoints[0].OutBufferLength = 256;
 800143e:	619a      	str	r2, [r3, #24]
		 device.Endpoints[0].InBuffer = endpoint0_in_buffer;
 8001440:	f500 70a0 	add.w	r0, r0, #320	; 0x140
		 device.Endpoints[0].InBufferLength = 256;
 8001444:	e9c3 0208 	strd	r0, r2, [r3, #32]
		 device.Endpoints[0].OutBuffer = endpoint0_out_buffer;
 8001448:	f503 7110 	add.w	r1, r3, #576	; 0x240
		 device.Endpoints[0].IsConfigured = 1;
 800144c:	f241 0003 	movw	r0, #4099	; 0x1003
		 device.Endpoints[0].OutBuffer = endpoint0_out_buffer;
 8001450:	6159      	str	r1, [r3, #20]
		 device.Endpoints[0].IsConfigured = 1;
 8001452:	8118      	strh	r0, [r3, #8]
		 device.EP0_State = IDLE;
 8001454:	f883 413b 	strb.w	r4, [r3, #315]	; 0x13b
		 device.Driver->EndpointConfigure(0,XMC_USBD_ENDPOINT_TYPE_CONTROL,
 8001458:	2100      	movs	r1, #0
 800145a:	ee17 3a90 	vmov	r3, s15
 800145e:	2240      	movs	r2, #64	; 0x40
 8001460:	4608      	mov	r0, r1
}
 8001462:	b002      	add	sp, #8
 8001464:	e8bd 41f0 	ldmia.w	sp!, {r4, r5, r6, r7, r8, lr}
		 device.Driver->EndpointConfigure(0,XMC_USBD_ENDPOINT_TYPE_CONTROL,
 8001468:	4718      	bx	r3
		 device.Driver->EndpointUnconfigure(0);
 800146a:	4b34      	ldr	r3, [pc, #208]	; (800153c <USBD_SignalDeviceEventHandler+0x14c>)
		 USB_DeviceState = DEVICE_STATE_Unattached;
 800146c:	4a34      	ldr	r2, [pc, #208]	; (8001540 <USBD_SignalDeviceEventHandler+0x150>)
		 device.Driver->EndpointUnconfigure(0);
 800146e:	681b      	ldr	r3, [r3, #0]
 8001470:	6a1b      	ldr	r3, [r3, #32]
		 USB_DeviceState = DEVICE_STATE_Unattached;
 8001472:	2000      	movs	r0, #0
 8001474:	7010      	strb	r0, [r2, #0]
}
 8001476:	b002      	add	sp, #8
 8001478:	e8bd 41f0 	ldmia.w	sp!, {r4, r5, r6, r7, r8, lr}
		 device.Driver->EndpointUnconfigure(0);
 800147c:	4718      	bx	r3
}
 800147e:	b002      	add	sp, #8
 8001480:	e8bd 41f0 	ldmia.w	sp!, {r4, r5, r6, r7, r8, lr}
		EVENT_USB_Device_Connect();
 8001484:	f7ff bd82 	b.w	8000f8c <EVENT_USB_Device_Connect>
		USB_DeviceState = DEVICE_STATE_Powered;
 8001488:	4b2d      	ldr	r3, [pc, #180]	; (8001540 <USBD_SignalDeviceEventHandler+0x150>)
 800148a:	2201      	movs	r2, #1
 800148c:	701a      	strb	r2, [r3, #0]
}
 800148e:	b002      	add	sp, #8
 8001490:	e8bd 41f0 	ldmia.w	sp!, {r4, r5, r6, r7, r8, lr}
		EVENT_USB_Device_Disconnect();
 8001494:	f7ff bd7c 	b.w	8000f90 <EVENT_USB_Device_Disconnect>
		device.EP0_State = IDLE;
 8001498:	4f28      	ldr	r7, [pc, #160]	; (800153c <USBD_SignalDeviceEventHandler+0x14c>)
		USB_DeviceState = DEVICE_STATE_Default;
 800149a:	4a29      	ldr	r2, [pc, #164]	; (8001540 <USBD_SignalDeviceEventHandler+0x150>)
		device.RemoteWakeUp = 0;
 800149c:	f897 313e 	ldrb.w	r3, [r7, #318]	; 0x13e
		device.EP0_State = IDLE;
 80014a0:	2601      	movs	r6, #1
		USB_DeviceState = DEVICE_STATE_Default;
 80014a2:	2102      	movs	r1, #2
		device.RemoteWakeUp = 0;
 80014a4:	f36f 0382 	bfc	r3, #2, #1
		USB_DeviceState = DEVICE_STATE_Default;
 80014a8:	7011      	strb	r1, [r2, #0]
		device.EP0_State = IDLE;
 80014aa:	f887 613b 	strb.w	r6, [r7, #315]	; 0x13b
		device.RemoteWakeUp = 0;
 80014ae:	f887 313e 	strb.w	r3, [r7, #318]	; 0x13e
 80014b2:	2500      	movs	r5, #0
			device.Endpoints[i].InInUse = 0;
 80014b4:	f04f 082c 	mov.w	r8, #44	; 0x2c
 80014b8:	e001      	b.n	80014be <USBD_SignalDeviceEventHandler+0xce>
 80014ba:	3501      	adds	r5, #1
 80014bc:	3601      	adds	r6, #1
 80014be:	fb08 7405 	mla	r4, r8, r5, r7
 80014c2:	8923      	ldrh	r3, [r4, #8]
 80014c4:	f36f 1304 	bfc	r3, #4, #1
 80014c8:	8123      	strh	r3, [r4, #8]
			device.Endpoints[i].OutInUse = 0;
 80014ca:	8923      	ldrh	r3, [r4, #8]
 80014cc:	f36f 03c3 	bfc	r3, #3, #1
 80014d0:	8123      	strh	r3, [r4, #8]
			device.Endpoints[i].IsHalted = 0;
 80014d2:	7a23      	ldrb	r3, [r4, #8]
 80014d4:	f36f 0382 	bfc	r3, #2, #1
 80014d8:	7223      	strb	r3, [r4, #8]
			if (i!=0 && device.Endpoints[i].IsConfigured) {
 80014da:	2d00      	cmp	r5, #0
 80014dc:	d0ed      	beq.n	80014ba <USBD_SignalDeviceEventHandler+0xca>
 80014de:	b2db      	uxtb	r3, r3
 80014e0:	07db      	lsls	r3, r3, #31
 80014e2:	d507      	bpl.n	80014f4 <USBD_SignalDeviceEventHandler+0x104>
				device.Driver->EndpointUnconfigure(device.Endpoints[i].Address);
 80014e4:	683b      	ldr	r3, [r7, #0]
 80014e6:	7920      	ldrb	r0, [r4, #4]
 80014e8:	6a1b      	ldr	r3, [r3, #32]
 80014ea:	4798      	blx	r3
				device.Endpoints[i].IsConfigured = 0;
 80014ec:	7a23      	ldrb	r3, [r4, #8]
 80014ee:	f023 0303 	bic.w	r3, r3, #3
 80014f2:	7223      	strb	r3, [r4, #8]
		for (i=0;i<(uint8_t)XMC_USBD_NUM_EPS; i++) {
 80014f4:	2e07      	cmp	r6, #7
 80014f6:	d1e0      	bne.n	80014ba <USBD_SignalDeviceEventHandler+0xca>
		device.Driver->EndpointReadStart(device.Endpoints[0].Address,24);
 80014f8:	683b      	ldr	r3, [r7, #0]
 80014fa:	7938      	ldrb	r0, [r7, #4]
			device.InterfaceSettings[i] = 0;
 80014fc:	2200      	movs	r2, #0
 80014fe:	f8a7 2138 	strh.w	r2, [r7, #312]	; 0x138
		device.Driver->EndpointReadStart(device.Endpoints[0].Address,24);
 8001502:	6a9b      	ldr	r3, [r3, #40]	; 0x28
 8001504:	2118      	movs	r1, #24
}
 8001506:	b002      	add	sp, #8
 8001508:	e8bd 41f0 	ldmia.w	sp!, {r4, r5, r6, r7, r8, lr}
		device.Driver->EndpointReadStart(device.Endpoints[0].Address,24);
 800150c:	4718      	bx	r3
		device.PreSuspendDeviceState = USB_DeviceState;
 800150e:	4b0c      	ldr	r3, [pc, #48]	; (8001540 <USBD_SignalDeviceEventHandler+0x150>)
 8001510:	490a      	ldr	r1, [pc, #40]	; (800153c <USBD_SignalDeviceEventHandler+0x14c>)
 8001512:	7818      	ldrb	r0, [r3, #0]
 8001514:	f881 013a 	strb.w	r0, [r1, #314]	; 0x13a
		USB_DeviceState = DEVICE_STATE_Suspended;
 8001518:	2205      	movs	r2, #5
 800151a:	701a      	strb	r2, [r3, #0]
}
 800151c:	b002      	add	sp, #8
 800151e:	e8bd 41f0 	ldmia.w	sp!, {r4, r5, r6, r7, r8, lr}
		EVENT_USB_Device_Suspend();
 8001522:	f7ff bd77 	b.w	8001014 <EVENT_USB_Device_Suspend>
		USB_DeviceState = device.PreSuspendDeviceState;
 8001526:	4a05      	ldr	r2, [pc, #20]	; (800153c <USBD_SignalDeviceEventHandler+0x14c>)
 8001528:	4b05      	ldr	r3, [pc, #20]	; (8001540 <USBD_SignalDeviceEventHandler+0x150>)
 800152a:	f892 213a 	ldrb.w	r2, [r2, #314]	; 0x13a
 800152e:	701a      	strb	r2, [r3, #0]
}
 8001530:	b002      	add	sp, #8
 8001532:	e8bd 41f0 	ldmia.w	sp!, {r4, r5, r6, r7, r8, lr}
		EVENT_USB_Device_WakeUp();
 8001536:	f7ff bd6b 	b.w	8001010 <EVENT_USB_Device_WakeUp>
 800153a:	bf00      	nop
 800153c:	20000538 	.word	0x20000538
 8001540:	20000abc 	.word	0x20000abc
 8001544:	08004a24 	.word	0x08004a24

08001548 <USBD_SignalEndpointEvent_Handler>:
 *
 * \param[in] ep_addr Endpoint address
 * \param[in] ep_event Endpoint event type
 *
 */
void USBD_SignalEndpointEvent_Handler (uint8_t ep_addr, XMC_USBD_EP_EVENT_t ep_event) {
 8001548:	b5f8      	push	{r3, r4, r5, r6, r7, lr}
	USBD_Endpoint_t *ep =  &device.Endpoints[ep_addr & ENDPOINT_EPNUM_MASK];
	uint8_t temp_num,temp_dir;
	int32_t data_count;
	/* store CurrentEndpoint and direction for restore after handling */
	temp_num = device.CurrentEndpoint;
 800154a:	4c3a      	ldr	r4, [pc, #232]	; (8001634 <USBD_SignalEndpointEvent_Handler+0xec>)
 800154c:	f000 030f 	and.w	r3, r0, #15
	temp_dir = device.CurrentDirection;
	/* select the given endpoint */
	device.CurrentEndpoint = ep_addr & ENDPOINT_EPNUM_MASK;
	device.CurrentDirection = ep_addr & ENDPOINT_DIR_MASK;
	/* choose what to do based on the event */
	switch (ep_event) {
 8001550:	2901      	cmp	r1, #1
	device.CurrentDirection = ep_addr & ENDPOINT_DIR_MASK;
 8001552:	f020 007f 	bic.w	r0, r0, #127	; 0x7f
	temp_num = device.CurrentEndpoint;
 8001556:	f8b4 713c 	ldrh.w	r7, [r4, #316]	; 0x13c
	device.CurrentDirection = ep_addr & ENDPOINT_DIR_MASK;
 800155a:	f884 013d 	strb.w	r0, [r4, #317]	; 0x13d
	USBD_Endpoint_t *ep =  &device.Endpoints[ep_addr & ENDPOINT_EPNUM_MASK];
 800155e:	461e      	mov	r6, r3
	device.CurrentEndpoint = ep_addr & ENDPOINT_EPNUM_MASK;
 8001560:	f884 313c 	strb.w	r3, [r4, #316]	; 0x13c
	switch (ep_event) {
 8001564:	d005      	beq.n	8001572 <USBD_SignalEndpointEvent_Handler+0x2a>
 8001566:	2902      	cmp	r1, #2
 8001568:	d02e      	beq.n	80015c8 <USBD_SignalEndpointEvent_Handler+0x80>
 800156a:	b309      	cbz	r1, 80015b0 <USBD_SignalEndpointEvent_Handler+0x68>
		default:
			break;
		}
		break;
	}
	device.CurrentEndpoint = temp_num;
 800156c:	f8a4 713c 	strh.w	r7, [r4, #316]	; 0x13c
	device.CurrentDirection = temp_dir;
}
 8001570:	bdf8      	pop	{r3, r4, r5, r6, r7, pc}
		ep->IsOutRecieved = 1;
 8001572:	252c      	movs	r5, #44	; 0x2c
 8001574:	fb05 4503 	mla	r5, r5, r3, r4
 8001578:	892a      	ldrh	r2, [r5, #8]
 800157a:	f042 0220 	orr.w	r2, r2, #32
 800157e:	812a      	strh	r2, [r5, #8]
		if (ep->OutBytesAvailable == 0) {
 8001580:	68ea      	ldr	r2, [r5, #12]
 8001582:	b94a      	cbnz	r2, 8001598 <USBD_SignalEndpointEvent_Handler+0x50>
			ep->OutBytesAvailable = device.Driver->EndpointRead(ep->Address,ep->OutBuffer,ep->OutBufferLength);
 8001584:	6823      	ldr	r3, [r4, #0]
			ep->OutOffset = 0; /* clear offset, new data is there */
 8001586:	612a      	str	r2, [r5, #16]
			ep->OutBytesAvailable = device.Driver->EndpointRead(ep->Address,ep->OutBuffer,ep->OutBufferLength);
 8001588:	6adb      	ldr	r3, [r3, #44]	; 0x2c
 800158a:	7928      	ldrb	r0, [r5, #4]
 800158c:	e9d5 1205 	ldrd	r1, r2, [r5, #20]
 8001590:	4798      	blx	r3
		switch(device.CurrentEndpoint) {
 8001592:	f894 313c 	ldrb.w	r3, [r4, #316]	; 0x13c
			ep->OutBytesAvailable = device.Driver->EndpointRead(ep->Address,ep->OutBuffer,ep->OutBufferLength);
 8001596:	60e8      	str	r0, [r5, #12]
		ep->OutInUse = 0;
 8001598:	222c      	movs	r2, #44	; 0x2c
 800159a:	fb02 4606 	mla	r6, r2, r6, r4
 800159e:	8932      	ldrh	r2, [r6, #8]
 80015a0:	f36f 02c3 	bfc	r2, #3, #1
 80015a4:	8132      	strh	r2, [r6, #8]
		switch(device.CurrentEndpoint) {
 80015a6:	2b00      	cmp	r3, #0
 80015a8:	d1e0      	bne.n	800156c <USBD_SignalEndpointEvent_Handler+0x24>
			USBD_HandleEP0_OUT();
 80015aa:	f7ff fec7 	bl	800133c <USBD_HandleEP0_OUT>
			break;
 80015ae:	e7dd      	b.n	800156c <USBD_SignalEndpointEvent_Handler+0x24>
		ep->OutInUse = 0;
 80015b0:	222c      	movs	r2, #44	; 0x2c
 80015b2:	fb02 4203 	mla	r2, r2, r3, r4
 80015b6:	8910      	ldrh	r0, [r2, #8]
 80015b8:	f361 00c3 	bfi	r0, r1, #3, #1
 80015bc:	8110      	strh	r0, [r2, #8]
		switch(device.CurrentEndpoint) {
 80015be:	2b00      	cmp	r3, #0
 80015c0:	d1d4      	bne.n	800156c <USBD_SignalEndpointEvent_Handler+0x24>
			USBD_HandleEP0_SETUP();
 80015c2:	f7ff fedb 	bl	800137c <USBD_HandleEP0_SETUP>
			break;
 80015c6:	e7d1      	b.n	800156c <USBD_SignalEndpointEvent_Handler+0x24>
		if (ep->InDataLeft> 0) {
 80015c8:	222c      	movs	r2, #44	; 0x2c
 80015ca:	fb02 4503 	mla	r5, r2, r3, r4
 80015ce:	6aaa      	ldr	r2, [r5, #40]	; 0x28
 80015d0:	bb22      	cbnz	r2, 800161c <USBD_SignalEndpointEvent_Handler+0xd4>
		} else if (ep->Number == 0 && ep->InBytesAvailable > 0 && ep->InBytesAvailable!=USB_ControlRequest.wLength && ep->InBytesAvailable % ep->MaxPacketSize == 0) {
 80015d2:	7928      	ldrb	r0, [r5, #4]
 80015d4:	0702      	lsls	r2, r0, #28
 80015d6:	d113      	bne.n	8001600 <USBD_SignalEndpointEvent_Handler+0xb8>
 80015d8:	69ea      	ldr	r2, [r5, #28]
 80015da:	b18a      	cbz	r2, 8001600 <USBD_SignalEndpointEvent_Handler+0xb8>
 80015dc:	4916      	ldr	r1, [pc, #88]	; (8001638 <USBD_SignalEndpointEvent_Handler+0xf0>)
 80015de:	88c9      	ldrh	r1, [r1, #6]
 80015e0:	428a      	cmp	r2, r1
 80015e2:	d00d      	beq.n	8001600 <USBD_SignalEndpointEvent_Handler+0xb8>
 80015e4:	8929      	ldrh	r1, [r5, #8]
 80015e6:	f3c1 1186 	ubfx	r1, r1, #6, #7
 80015ea:	fbb2 f5f1 	udiv	r5, r2, r1
 80015ee:	fb01 2215 	mls	r2, r1, r5, r2
 80015f2:	b92a      	cbnz	r2, 8001600 <USBD_SignalEndpointEvent_Handler+0xb8>
			device.Driver->EndpointWrite(ep->Address,0,0);
 80015f4:	6823      	ldr	r3, [r4, #0]
 80015f6:	4611      	mov	r1, r2
 80015f8:	6b1b      	ldr	r3, [r3, #48]	; 0x30
 80015fa:	4798      	blx	r3
		switch(device.CurrentEndpoint) {
 80015fc:	f894 313c 	ldrb.w	r3, [r4, #316]	; 0x13c
		ep->InBytesAvailable = 0;
 8001600:	222c      	movs	r2, #44	; 0x2c
 8001602:	fb02 4606 	mla	r6, r2, r6, r4
 8001606:	2100      	movs	r1, #0
		ep->InInUse = 0;
 8001608:	8932      	ldrh	r2, [r6, #8]
		ep->InBytesAvailable = 0;
 800160a:	61f1      	str	r1, [r6, #28]
		ep->InInUse = 0;
 800160c:	f361 1204 	bfi	r2, r1, #4, #1
 8001610:	8132      	strh	r2, [r6, #8]
		switch(device.CurrentEndpoint) {
 8001612:	2b00      	cmp	r3, #0
 8001614:	d1aa      	bne.n	800156c <USBD_SignalEndpointEvent_Handler+0x24>
			USBD_HandleEP0_IN();
 8001616:	f7ff fe75 	bl	8001304 <USBD_HandleEP0_IN>
			break;
 800161a:	e7a7      	b.n	800156c <USBD_SignalEndpointEvent_Handler+0x24>
			data_count = device.Driver->EndpointWrite(ep->Address,ep->InDataBuffer,ep->InDataLeft);
 800161c:	6823      	ldr	r3, [r4, #0]
 800161e:	6ae9      	ldr	r1, [r5, #44]	; 0x2c
 8001620:	6b1b      	ldr	r3, [r3, #48]	; 0x30
 8001622:	7928      	ldrb	r0, [r5, #4]
 8001624:	4798      	blx	r3
			ep->InDataBuffer+= data_count;
 8001626:	e9d5 230a 	ldrd	r2, r3, [r5, #40]	; 0x28
			ep->InDataLeft -= data_count;
 800162a:	1a12      	subs	r2, r2, r0
			ep->InDataBuffer+= data_count;
 800162c:	4418      	add	r0, r3
 800162e:	e9c5 200a 	strd	r2, r0, [r5, #40]	; 0x28
}
 8001632:	bdf8      	pop	{r3, r4, r5, r6, r7, pc}
 8001634:	20000538 	.word	0x20000538
 8001638:	20000ac0 	.word	0x20000ac0

0800163c <USBD_Initialize>:
 * \brief Initialize driver core and driver
 *
 * Intializes the USB driver core data structures and sets it into default state. Afterwards
 * it initializes the USB device controller driver and prepare it for connection via \ref USBD_Connect.
 */
int USBD_Initialize(XMC_USBD_t *usb_init) {
 800163c:	b538      	push	{r3, r4, r5, lr}
	int32_t status = 0;
	memset(&device,0x0,sizeof(USB_Device_t));
 800163e:	4c16      	ldr	r4, [pc, #88]	; (8001698 <USBD_Initialize+0x5c>)
int USBD_Initialize(XMC_USBD_t *usb_init) {
 8001640:	4605      	mov	r5, r0
	memset(&device,0x0,sizeof(USB_Device_t));
 8001642:	f44f 72a0 	mov.w	r2, #320	; 0x140
 8001646:	2100      	movs	r1, #0
 8001648:	4620      	mov	r0, r4
 800164a:	f003 f89b 	bl	8004784 <memset>
	USB_DeviceState = DEVICE_STATE_Unattached;
 800164e:	4b13      	ldr	r3, [pc, #76]	; (800169c <USBD_Initialize+0x60>)
	device.Driver = &Driver_USBD0;
 8001650:	4a13      	ldr	r2, [pc, #76]	; (80016a0 <USBD_Initialize+0x64>)
 8001652:	6022      	str	r2, [r4, #0]
	USB_DeviceState = DEVICE_STATE_Unattached;
 8001654:	2100      	movs	r1, #0
 8001656:	7019      	strb	r1, [r3, #0]
	device.EP0_State = IDLE;
 8001658:	2101      	movs	r1, #1
 800165a:	f884 113b 	strb.w	r1, [r4, #315]	; 0x13b
	device.Endpoints[0].InBuffer = endpoint0_in_buffer;
 800165e:	f504 71a0 	add.w	r1, r4, #320	; 0x140
 8001662:	6221      	str	r1, [r4, #32]
	device.Endpoints[0].InBufferLength = 256;
	device.Endpoints[0].OutBuffer = endpoint0_out_buffer;
 8001664:	f504 7110 	add.w	r1, r4, #576	; 0x240
	device.Endpoints[0].InBufferLength = 256;
 8001668:	f44f 7380 	mov.w	r3, #256	; 0x100
	device.Endpoints[0].OutBuffer = endpoint0_out_buffer;
 800166c:	6161      	str	r1, [r4, #20]
	device.Endpoints[0].OutBufferLength = 256;
	device.Endpoints[0].Direction = 0;
	device.Endpoints[0].IsConfigured = 1;
 800166e:	f241 0103 	movw	r1, #4099	; 0x1003
	device.Endpoints[0].IsEnabled = 1;
	device.Endpoints[0].MaxPacketSize = 64;

	/* First initalize the device */
	status = device.Driver->Initialize(usb_init);
 8001672:	6852      	ldr	r2, [r2, #4]
	device.Endpoints[0].InBufferLength = 256;
 8001674:	6263      	str	r3, [r4, #36]	; 0x24
	device.Endpoints[0].OutBufferLength = 256;
 8001676:	61a3      	str	r3, [r4, #24]
	device.Endpoints[0].IsConfigured = 1;
 8001678:	8121      	strh	r1, [r4, #8]
	status = device.Driver->Initialize(usb_init);
 800167a:	4628      	mov	r0, r5
 800167c:	4790      	blx	r2
	if (status != XMC_USBD_STATUS_OK)
 800167e:	b938      	cbnz	r0, 8001690 <USBD_Initialize+0x54>
		return -1;

	/* then configure endpoint 0 */
	device.Driver->EndpointConfigure(0,XMC_USBD_ENDPOINT_TYPE_CONTROL,
 8001680:	6823      	ldr	r3, [r4, #0]
 8001682:	4605      	mov	r5, r0
 8001684:	69db      	ldr	r3, [r3, #28]
 8001686:	2240      	movs	r2, #64	; 0x40
 8001688:	4601      	mov	r1, r0
 800168a:	4798      	blx	r3
	if (status != XMC_USBD_STATUS_OK) {
		device.Driver->Uninitialize();
		return -1;
	}

	return 0;
 800168c:	4628      	mov	r0, r5
}
 800168e:	bd38      	pop	{r3, r4, r5, pc}
		return -1;
 8001690:	f04f 30ff 	mov.w	r0, #4294967295	; 0xffffffff
}
 8001694:	bd38      	pop	{r3, r4, r5, pc}
 8001696:	bf00      	nop
 8001698:	20000538 	.word	0x20000538
 800169c:	20000abc 	.word	0x20000abc
 80016a0:	08004a24 	.word	0x08004a24

080016a4 <USB_IsEnumDone>:
/**
 * \brief Is the enumeration finished?
 *
 * Tell the USB device controller driver if the enumeration interrupt have been reached
 */
int USB_IsEnumDone(void){
 80016a4:	b508      	push	{r3, lr}
	if (device.Driver->IsEnumDone())
 80016a6:	4b04      	ldr	r3, [pc, #16]	; (80016b8 <USB_IsEnumDone+0x14>)
 80016a8:	681b      	ldr	r3, [r3, #0]
 80016aa:	6bdb      	ldr	r3, [r3, #60]	; 0x3c
 80016ac:	4798      	blx	r3
		return 1;
	else
		return 0;
 }
 80016ae:	3800      	subs	r0, #0
 80016b0:	bf18      	it	ne
 80016b2:	2001      	movne	r0, #1
 80016b4:	bd08      	pop	{r3, pc}
 80016b6:	bf00      	nop
 80016b8:	20000538 	.word	0x20000538

080016bc <USBD_SetEndpointBuffer>:
 * \param[in] len Buffer length
 */
void USBD_SetEndpointBuffer(uint8_t addr,uint8_t *buf,uint16_t len) {
	uint8_t number  = addr & ENDPOINT_EPNUM_MASK;
	if (addr & ENDPOINT_DIR_MASK) {
		device.Endpoints[number].InBuffer = buf;
 80016bc:	4b07      	ldr	r3, [pc, #28]	; (80016dc <USBD_SetEndpointBuffer+0x20>)
	if (addr & ENDPOINT_DIR_MASK) {
 80016be:	f010 0f80 	tst.w	r0, #128	; 0x80
	uint8_t number  = addr & ENDPOINT_EPNUM_MASK;
 80016c2:	f000 0c0f 	and.w	ip, r0, #15
		device.Endpoints[number].InBuffer = buf;
 80016c6:	f04f 002c 	mov.w	r0, #44	; 0x2c
 80016ca:	fb00 330c 	mla	r3, r0, ip, r3
		device.Endpoints[number].InBufferLength = len;
 80016ce:	bf14      	ite	ne
 80016d0:	e9c3 1208 	strdne	r1, r2, [r3, #32]
	} else {
		device.Endpoints[number].OutBuffer = buf;
		device.Endpoints[number].OutBufferLength = len;
 80016d4:	e9c3 1205 	strdeq	r1, r2, [r3, #20]
	}
}
 80016d8:	4770      	bx	lr
 80016da:	bf00      	nop
 80016dc:	20000538 	.word	0x20000538

080016e0 <XMC_USBD_lReadFifo>:
 *
 * @arg ep_num the endpoint to read for
 * @arg byte_count the byte count to read
 */
static void XMC_USBD_lReadFifo(const uint32_t ep_num,const uint32_t byte_count) 
{
 80016e0:	e92d 41f0 	stmdb	sp!, {r4, r5, r6, r7, r8, lr}
  uint32_t temp_data;
  uint32_t temp_word_count;
  volatile uint32_t *fifo = xmc_device.fifo[0U];
  uint32_t i;
  depctl_data_t data;
  data.d32 = xmc_device.endpoint_out_register[ep_num]->doepctl;
 80016e4:	4d25      	ldr	r5, [pc, #148]	; (800177c <XMC_USBD_lReadFifo+0x9c>)
 80016e6:	eb05 0380 	add.w	r3, r5, r0, lsl #2
 80016ea:	f8d3 31c4 	ldr.w	r3, [r3, #452]	; 0x1c4
 80016ee:	681b      	ldr	r3, [r3, #0]
  word_count = (byte_count >> 2U );
  temp_word_count = (word_count << 2U);
  /* Check if ep is enabled and has buffer */
  if (!data.b.usbactep)
 80016f0:	041b      	lsls	r3, r3, #16
 80016f2:	d401      	bmi.n	80016f8 <XMC_USBD_lReadFifo+0x18>

    /* save the amount of data */
    ep->xferCount += byte_count;
    ep->xferBuffer += byte_count;
  }
}
 80016f4:	e8bd 81f0 	ldmia.w	sp!, {r4, r5, r6, r7, r8, pc}
  else if (ep->xferBuffer == NULL)
 80016f8:	f04f 0e34 	mov.w	lr, #52	; 0x34
 80016fc:	fb0e 5e00 	mla	lr, lr, r0, r5
 8001700:	f8de 2024 	ldr.w	r2, [lr, #36]	; 0x24
 8001704:	2a00      	cmp	r2, #0
 8001706:	d0f5      	beq.n	80016f4 <XMC_USBD_lReadFifo+0x14>
    for (i = 0U;i < word_count; i++)
 8001708:	ea5f 0891 	movs.w	r8, r1, lsr #2
  volatile uint32_t *fifo = xmc_device.fifo[0U];
 800170c:	f8d5 61e0 	ldr.w	r6, [r5, #480]	; 0x1e0
    for (i = 0U;i < word_count; i++)
 8001710:	d00a      	beq.n	8001728 <XMC_USBD_lReadFifo+0x48>
 8001712:	ea4f 0c88 	mov.w	ip, r8, lsl #2
 8001716:	2300      	movs	r3, #0
 8001718:	e001      	b.n	800171e <XMC_USBD_lReadFifo+0x3e>
      *(((uint32_t*)ep->xferBuffer)+i) = *fifo;
 800171a:	f8de 2024 	ldr.w	r2, [lr, #36]	; 0x24
 800171e:	6834      	ldr	r4, [r6, #0]
 8001720:	50d4      	str	r4, [r2, r3]
    for (i = 0U;i < word_count; i++)
 8001722:	3304      	adds	r3, #4
 8001724:	459c      	cmp	ip, r3
 8001726:	d1f8      	bne.n	800171a <XMC_USBD_lReadFifo+0x3a>
  temp_word_count = (word_count << 2U);
 8001728:	f021 0303 	bic.w	r3, r1, #3
    if (byte_count!=temp_word_count)
 800172c:	4299      	cmp	r1, r3
 800172e:	d019      	beq.n	8001764 <XMC_USBD_lReadFifo+0x84>
      temp_data = *fifo;
 8001730:	6837      	ldr	r7, [r6, #0]
      for (i = 0U;(temp_word_count + i) < byte_count;i++)
 8001732:	d917      	bls.n	8001764 <XMC_USBD_lReadFifo+0x84>
 8001734:	1ace      	subs	r6, r1, r3
        ep->xferBuffer[(word_count << 2)+i] = (uint8_t)((temp_data & ((uint32_t)0xFFU << (i * 8U))) >> (i * 8U));
 8001736:	f04f 0e34 	mov.w	lr, #52	; 0x34
 800173a:	ea4f 0c88 	mov.w	ip, r8, lsl #2
 800173e:	00f6      	lsls	r6, r6, #3
 8001740:	fb0e 5e00 	mla	lr, lr, r0, r5
 8001744:	2200      	movs	r2, #0
 8001746:	f04f 08ff 	mov.w	r8, #255	; 0xff
 800174a:	fa08 f302 	lsl.w	r3, r8, r2
 800174e:	403b      	ands	r3, r7
 8001750:	40d3      	lsrs	r3, r2
 8001752:	f8de 4024 	ldr.w	r4, [lr, #36]	; 0x24
      for (i = 0U;(temp_word_count + i) < byte_count;i++)
 8001756:	3208      	adds	r2, #8
 8001758:	42b2      	cmp	r2, r6
        ep->xferBuffer[(word_count << 2)+i] = (uint8_t)((temp_data & ((uint32_t)0xFFU << (i * 8U))) >> (i * 8U));
 800175a:	f804 300c 	strb.w	r3, [r4, ip]
      for (i = 0U;(temp_word_count + i) < byte_count;i++)
 800175e:	f10c 0c01 	add.w	ip, ip, #1
 8001762:	d1f2      	bne.n	800174a <XMC_USBD_lReadFifo+0x6a>
    ep->xferCount += byte_count;
 8001764:	2334      	movs	r3, #52	; 0x34
 8001766:	fb03 5000 	mla	r0, r3, r0, r5
 800176a:	6ac2      	ldr	r2, [r0, #44]	; 0x2c
    ep->xferBuffer += byte_count;
 800176c:	6a43      	ldr	r3, [r0, #36]	; 0x24
    ep->xferCount += byte_count;
 800176e:	440a      	add	r2, r1
    ep->xferBuffer += byte_count;
 8001770:	4419      	add	r1, r3
    ep->xferCount += byte_count;
 8001772:	62c2      	str	r2, [r0, #44]	; 0x2c
    ep->xferBuffer += byte_count;
 8001774:	6241      	str	r1, [r0, #36]	; 0x24
}
 8001776:	e8bd 81f0 	ldmia.w	sp!, {r4, r5, r6, r7, r8, pc}
 800177a:	bf00      	nop
 800177c:	20000878 	.word	0x20000878

08001780 <XMC_USBD_lStartReadXfer>:
{
  deptsiz_data_t data;
  depctl_data_t epctl;
	
  data.d32 =  0U;
  if ((ep->xferTotal - ep->xferLength) > ep->maxTransferSize)
 8001780:	6a82      	ldr	r2, [r0, #40]	; 0x28
 8001782:	6b03      	ldr	r3, [r0, #48]	; 0x30
 8001784:	6881      	ldr	r1, [r0, #8]
{
 8001786:	b410      	push	{r4}
  if ((ep->xferTotal - ep->xferLength) > ep->maxTransferSize)
 8001788:	f3c1 0112 	ubfx	r1, r1, #0, #19
 800178c:	1a9c      	subs	r4, r3, r2
 800178e:	428c      	cmp	r4, r1
  {
    ep->xferLength += ep->maxTransferSize;
 8001790:	bf88      	it	hi
 8001792:	1852      	addhi	r2, r2, r1
  }
  else
  {
    ep->xferLength = ep->xferTotal;
  }
  if (ep->address_u.address_st.number == 0U)
 8001794:	7801      	ldrb	r1, [r0, #0]
    ep->xferLength = ep->xferTotal;
 8001796:	bf98      	it	ls
 8001798:	461a      	movls	r2, r3
  if (ep->address_u.address_st.number == 0U)
 800179a:	070c      	lsls	r4, r1, #28
 800179c:	6282      	str	r2, [r0, #40]	; 0x28
 800179e:	d11c      	bne.n	80017da <XMC_USBD_lStartReadXfer+0x5a>
	/* Setup the endpoint to receive 3 setup packages and one normal package.*/
	/* Cast the data pointer to use only one variable */
    deptsiz0_data_t *ep0_data = (deptsiz0_data_t*)&data;
    ep0_data->b.pktcnt = 0x1U;
    ep0_data->b.supcnt = 0x3U;
    ep0_data->b.xfersize = (uint8_t)ep->xferTotal;
 80017a0:	f003 037f 	and.w	r3, r3, #127	; 0x7f
 80017a4:	f043 43c0 	orr.w	r3, r3, #1610612736	; 0x60000000
 80017a8:	f443 2300 	orr.w	r3, r3, #524288	; 0x80000
      /* setup endpoint to recive a amount of packages by given size */
      data.b.pktcnt = (uint16_t)(((ep->xferLength - ep->xferCount) + (ep->maxPacketSize -(uint32_t)1U))/ep->maxPacketSize);
      data.b.xfersize =(uint32_t)(ep->xferLength - ep->xferCount);
    }
  }
  if(usbd_init->usbd_transfer_mode == XMC_USBD_USE_DMA)
 80017ac:	4a18      	ldr	r2, [pc, #96]	; (8001810 <XMC_USBD_lStartReadXfer+0x90>)
 80017ae:	f8d2 4208 	ldr.w	r4, [r2, #520]	; 0x208
 80017b2:	7b64      	ldrb	r4, [r4, #13]
  {
    /* Programm dma address if needed */
    xmc_device.endpoint_out_register[ep->address_u.address_st.number]->doepdma = (uint32_t)(ep->xferBuffer);
 80017b4:	f001 010f 	and.w	r1, r1, #15
 80017b8:	eb02 0281 	add.w	r2, r2, r1, lsl #2
  if(usbd_init->usbd_transfer_mode == XMC_USBD_USE_DMA)
 80017bc:	b18c      	cbz	r4, 80017e2 <XMC_USBD_lStartReadXfer+0x62>
    xmc_device.endpoint_out_register[ep->address_u.address_st.number]->doepdma = (uint32_t)(ep->xferBuffer);
 80017be:	f8d2 21c4 	ldr.w	r2, [r2, #452]	; 0x1c4
  }
  /* setup endpoint size and enable endpoint */
  xmc_device.endpoint_out_register[ep->address_u.address_st.number]->doeptsiz = data.d32;
 80017c2:	6113      	str	r3, [r2, #16]
 
  epctl.d32 = xmc_device.endpoint_out_register[ep->address_u.address_st.number]->doepctl;
 80017c4:	6813      	ldr	r3, [r2, #0]
  epctl.b.cnak = 1U;
  epctl.b.epena = 1U;
  xmc_device.endpoint_out_register[ep->address_u.address_st.number]->doepctl = epctl.d32;
}
 80017c6:	f85d 4b04 	ldr.w	r4, [sp], #4
  epctl.b.cnak = 1U;
 80017ca:	f3c3 6107 	ubfx	r1, r3, #24, #8
 80017ce:	f061 017b 	orn	r1, r1, #123	; 0x7b
 80017d2:	f361 631f 	bfi	r3, r1, #24, #8
  xmc_device.endpoint_out_register[ep->address_u.address_st.number]->doepctl = epctl.d32;
 80017d6:	6013      	str	r3, [r2, #0]
}
 80017d8:	4770      	bx	lr
    if (ep->xferLength == 0U)
 80017da:	b93a      	cbnz	r2, 80017ec <XMC_USBD_lStartReadXfer+0x6c>
 80017dc:	f44f 2300 	mov.w	r3, #524288	; 0x80000
 80017e0:	e7e4      	b.n	80017ac <XMC_USBD_lStartReadXfer+0x2c>
    xmc_device.endpoint_out_register[ep->address_u.address_st.number]->doepdma = (uint32_t)(ep->xferBuffer);
 80017e2:	f8d2 21c4 	ldr.w	r2, [r2, #452]	; 0x1c4
 80017e6:	6a41      	ldr	r1, [r0, #36]	; 0x24
 80017e8:	6151      	str	r1, [r2, #20]
 80017ea:	e7ea      	b.n	80017c2 <XMC_USBD_lStartReadXfer+0x42>
      data.b.pktcnt = (uint16_t)(((ep->xferLength - ep->xferCount) + (ep->maxPacketSize -(uint32_t)1U))/ep->maxPacketSize);
 80017ec:	6844      	ldr	r4, [r0, #4]
 80017ee:	6ac3      	ldr	r3, [r0, #44]	; 0x2c
 80017f0:	f3c4 2cc6 	ubfx	ip, r4, #11, #7
 80017f4:	1ad2      	subs	r2, r2, r3
      data.b.xfersize =(uint32_t)(ep->xferLength - ep->xferCount);
 80017f6:	4b07      	ldr	r3, [pc, #28]	; (8001814 <XMC_USBD_lStartReadXfer+0x94>)
      data.b.pktcnt = (uint16_t)(((ep->xferLength - ep->xferCount) + (ep->maxPacketSize -(uint32_t)1U))/ep->maxPacketSize);
 80017f8:	f10c 34ff 	add.w	r4, ip, #4294967295	; 0xffffffff
 80017fc:	4414      	add	r4, r2
      data.b.xfersize =(uint32_t)(ep->xferLength - ep->xferCount);
 80017fe:	f3c2 0212 	ubfx	r2, r2, #0, #19
      data.b.pktcnt = (uint16_t)(((ep->xferLength - ep->xferCount) + (ep->maxPacketSize -(uint32_t)1U))/ep->maxPacketSize);
 8001802:	fbb4 f4fc 	udiv	r4, r4, ip
      data.b.xfersize =(uint32_t)(ep->xferLength - ep->xferCount);
 8001806:	ea03 43c4 	and.w	r3, r3, r4, lsl #19
 800180a:	4313      	orrs	r3, r2
 800180c:	e7ce      	b.n	80017ac <XMC_USBD_lStartReadXfer+0x2c>
 800180e:	bf00      	nop
 8001810:	20000878 	.word	0x20000878
 8001814:	1ff80000 	.word	0x1ff80000

08001818 <XMC_USBD_lStartWriteXfer>:
 * to start a new in transfer
 *
 * @param[in] ep Endpoint to start the transfer
 */
static void XMC_USBD_lStartWriteXfer(XMC_USBD_EP_t *const ep) 
{
 8001818:	b5f0      	push	{r4, r5, r6, r7, lr}
  deptsiz_data_t size;
  depctl_data_t ctl;
	
  size.d32 = 0U;  
  ctl.d32 = xmc_device.endpoint_in_register[ep->address_u.address_st.number]->diepctl;
 800181a:	f890 e000 	ldrb.w	lr, [r0]
 800181e:	4d27      	ldr	r5, [pc, #156]	; (80018bc <XMC_USBD_lStartWriteXfer+0xa4>)

  if ((ep->xferTotal - ep->xferLength)  < ep->maxTransferSize)
 8001820:	6a86      	ldr	r6, [r0, #40]	; 0x28
 8001822:	6882      	ldr	r2, [r0, #8]
  ctl.d32 = xmc_device.endpoint_in_register[ep->address_u.address_st.number]->diepctl;
 8001824:	f00e 0c0f 	and.w	ip, lr, #15
 8001828:	f10c 036a 	add.w	r3, ip, #106	; 0x6a
  if ((ep->xferTotal - ep->xferLength)  < ep->maxTransferSize)
 800182c:	f3c2 0212 	ubfx	r2, r2, #0, #19
  ctl.d32 = xmc_device.endpoint_in_register[ep->address_u.address_st.number]->diepctl;
 8001830:	f855 1023 	ldr.w	r1, [r5, r3, lsl #2]
  if ((ep->xferTotal - ep->xferLength)  < ep->maxTransferSize)
 8001834:	6b03      	ldr	r3, [r0, #48]	; 0x30
  ctl.d32 = xmc_device.endpoint_in_register[ep->address_u.address_st.number]->diepctl;
 8001836:	680c      	ldr	r4, [r1, #0]
  if ((ep->xferTotal - ep->xferLength)  < ep->maxTransferSize)
 8001838:	1b9f      	subs	r7, r3, r6
 800183a:	4297      	cmp	r7, r2
  {
    ep->xferLength = ep->xferTotal;
  }
  else
  {
    ep->xferLength += ep->maxTransferSize;
 800183c:	bf28      	it	cs
 800183e:	18b3      	addcs	r3, r6, r2
 8001840:	6283      	str	r3, [r0, #40]	; 0x28
  }
  if (ep->xferLength == 0U)
 8001842:	b1d3      	cbz	r3, 800187a <XMC_USBD_lStartWriteXfer+0x62>
    size.b.xfersize = 0U;
    size.b.pktcnt = 1U;
  }
  else
  {
    if (ep->address_u.address_st.number == 0U)
 8001844:	f01e 0f0f 	tst.w	lr, #15
 8001848:	d022      	beq.n	8001890 <XMC_USBD_lStartWriteXfer+0x78>
      size.b.xfersize = (uint32_t)(ep->xferLength - ep->xferCount);
    }
    else
    {
      size.b.xfersize =(uint32_t)(ep->xferLength - ep->xferCount);
      size.b.pktcnt = (uint16_t)(((uint16_t)(ep->xferLength - ep->xferCount) + (uint16_t)((uint16_t)ep->maxPacketSize - 1U))/
 800184a:	6846      	ldr	r6, [r0, #4]
      size.b.xfersize =(uint32_t)(ep->xferLength - ep->xferCount);
 800184c:	6ac2      	ldr	r2, [r0, #44]	; 0x2c
      size.b.pktcnt = (uint16_t)(((uint16_t)(ep->xferLength - ep->xferCount) + (uint16_t)((uint16_t)ep->maxPacketSize - 1U))/
 800184e:	f3c6 27c6 	ubfx	r7, r6, #11, #7
 8001852:	1a9b      	subs	r3, r3, r2
 8001854:	1e7e      	subs	r6, r7, #1
      size.b.xfersize =(uint32_t)(ep->xferLength - ep->xferCount);
 8001856:	4a1a      	ldr	r2, [pc, #104]	; (80018c0 <XMC_USBD_lStartWriteXfer+0xa8>)
      size.b.pktcnt = (uint16_t)(((uint16_t)(ep->xferLength - ep->xferCount) + (uint16_t)((uint16_t)ep->maxPacketSize - 1U))/
 8001858:	b2b6      	uxth	r6, r6
 800185a:	fa16 f683 	uxtah	r6, r6, r3
      size.b.xfersize =(uint32_t)(ep->xferLength - ep->xferCount);
 800185e:	f3c3 0312 	ubfx	r3, r3, #0, #19
      size.b.pktcnt = (uint16_t)(((uint16_t)(ep->xferLength - ep->xferCount) + (uint16_t)((uint16_t)ep->maxPacketSize - 1U))/
 8001862:	fbb6 f6f7 	udiv	r6, r6, r7
      size.b.xfersize =(uint32_t)(ep->xferLength - ep->xferCount);
 8001866:	ea02 42c6 	and.w	r2, r2, r6, lsl #19
 800186a:	4313      	orrs	r3, r2
    		 ep->maxPacketSize);
    }
    if(usbd_init->usbd_transfer_mode == XMC_USBD_USE_DMA)
 800186c:	f8d5 2208 	ldr.w	r2, [r5, #520]	; 0x208
 8001870:	7b52      	ldrb	r2, [r2, #13]
 8001872:	b9c2      	cbnz	r2, 80018a6 <XMC_USBD_lStartWriteXfer+0x8e>
    {
      /* Program dma*/
      xmc_device.endpoint_in_register[ep->address_u.address_st.number]->diepdma = (uint32_t)ep->xferBuffer;
 8001874:	6a42      	ldr	r2, [r0, #36]	; 0x24
 8001876:	614a      	str	r2, [r1, #20]
    }
    if(usbd_init->usbd_transfer_mode == XMC_USBD_USE_FIFO)
 8001878:	e001      	b.n	800187e <XMC_USBD_lStartWriteXfer+0x66>
 800187a:	f44f 2300 	mov.w	r3, #524288	; 0x80000
  }

  /* Program size of transfer and enable endpoint */
  xmc_device.endpoint_in_register[ep->address_u.address_st.number]->dieptsiz = size.d32;
  ctl.b.epena = 1U;
  ctl.b.cnak = 1U;
 800187e:	f3c4 6207 	ubfx	r2, r4, #24, #8
 8001882:	f062 027b 	orn	r2, r2, #123	; 0x7b
 8001886:	f362 641f 	bfi	r4, r2, #24, #8
  xmc_device.endpoint_in_register[ep->address_u.address_st.number]->dieptsiz = size.d32;
 800188a:	610b      	str	r3, [r1, #16]
  xmc_device.endpoint_in_register[ep->address_u.address_st.number]->diepctl = ctl.d32;
 800188c:	600c      	str	r4, [r1, #0]
}
 800188e:	bdf0      	pop	{r4, r5, r6, r7, pc}
      size.b.xfersize = (uint32_t)(ep->xferLength - ep->xferCount);
 8001890:	6ac2      	ldr	r2, [r0, #44]	; 0x2c
 8001892:	1a9b      	subs	r3, r3, r2
    if(usbd_init->usbd_transfer_mode == XMC_USBD_USE_DMA)
 8001894:	f8d5 2208 	ldr.w	r2, [r5, #520]	; 0x208
 8001898:	7b52      	ldrb	r2, [r2, #13]
      size.b.xfersize = (uint32_t)(ep->xferLength - ep->xferCount);
 800189a:	f3c3 0312 	ubfx	r3, r3, #0, #19
 800189e:	f443 2300 	orr.w	r3, r3, #524288	; 0x80000
    if(usbd_init->usbd_transfer_mode == XMC_USBD_USE_DMA)
 80018a2:	2a00      	cmp	r2, #0
 80018a4:	d0e6      	beq.n	8001874 <XMC_USBD_lStartWriteXfer+0x5c>
    if(usbd_init->usbd_transfer_mode == XMC_USBD_USE_FIFO)
 80018a6:	2a01      	cmp	r2, #1
 80018a8:	d1e9      	bne.n	800187e <XMC_USBD_lStartWriteXfer+0x66>
			xmc_device.device_register->dtknqr4_fifoemptymsk |= (uint32_t)((uint32_t)1U << (uint8_t)ep->address_u.address_st.number);
 80018aa:	f8d5 01a4 	ldr.w	r0, [r5, #420]	; 0x1a4
 80018ae:	6b45      	ldr	r5, [r0, #52]	; 0x34
 80018b0:	fa02 f20c 	lsl.w	r2, r2, ip
 80018b4:	432a      	orrs	r2, r5
 80018b6:	6342      	str	r2, [r0, #52]	; 0x34
 80018b8:	e7e1      	b.n	800187e <XMC_USBD_lStartWriteXfer+0x66>
 80018ba:	bf00      	nop
 80018bc:	20000878 	.word	0x20000878
 80018c0:	1ff80000 	.word	0x1ff80000

080018c4 <XMC_USBD_GetCapabilities>:
  cap.event_reset = 1U;
  cap.event_resume = 1U;
  cap.event_suspend = 1U;
  cap.reserved = 0U;
  return cap;
}
 80018c4:	f240 10df 	movw	r0, #479	; 0x1df
 80018c8:	4770      	bx	lr
 80018ca:	bf00      	nop

080018cc <XMC_USBD_DeviceConnect>:
 **/
XMC_USBD_STATUS_t XMC_USBD_DeviceConnect() 
{
  /* Just disable softdisconnect */
  dctl_data_t dctl;
	dctl.d32 = xmc_device.device_register->dctl;
 80018cc:	4b04      	ldr	r3, [pc, #16]	; (80018e0 <XMC_USBD_DeviceConnect+0x14>)
 80018ce:	f8d3 21a4 	ldr.w	r2, [r3, #420]	; 0x1a4
 80018d2:	6853      	ldr	r3, [r2, #4]
  dctl.b.sftdiscon = 0U;
 80018d4:	f36f 0341 	bfc	r3, #1, #1
  xmc_device.device_register->dctl = dctl.d32;
  return XMC_USBD_STATUS_OK;
}
 80018d8:	2000      	movs	r0, #0
  xmc_device.device_register->dctl = dctl.d32;
 80018da:	6053      	str	r3, [r2, #4]
}
 80018dc:	4770      	bx	lr
 80018de:	bf00      	nop
 80018e0:	20000878 	.word	0x20000878

080018e4 <XMC_USBD_DeviceDisconnect>:
 * Disconnects the USB device from host
 **/
XMC_USBD_STATUS_t XMC_USBD_DeviceDisconnect() 
{
  dctl_data_t dctl;
	dctl.d32 = xmc_device.device_register->dctl;
 80018e4:	4b04      	ldr	r3, [pc, #16]	; (80018f8 <XMC_USBD_DeviceDisconnect+0x14>)
 80018e6:	f8d3 21a4 	ldr.w	r2, [r3, #420]	; 0x1a4
 80018ea:	6853      	ldr	r3, [r2, #4]
  dctl.b.sftdiscon = 1U;
 80018ec:	f043 0302 	orr.w	r3, r3, #2
  xmc_device.device_register->dctl = dctl.d32;
  return XMC_USBD_STATUS_OK;
}
 80018f0:	2000      	movs	r0, #0
  xmc_device.device_register->dctl = dctl.d32;
 80018f2:	6053      	str	r3, [r2, #4]
}
 80018f4:	4770      	bx	lr
 80018f6:	bf00      	nop
 80018f8:	20000878 	.word	0x20000878

080018fc <XMC_USBD_EndpointReadStart>:

/**
 * Prepares the endpoint to read next OUT packet
 **/
XMC_USBD_STATUS_t XMC_USBD_EndpointReadStart(const uint8_t ep_addr, uint32_t size) 
{
 80018fc:	b538      	push	{r3, r4, r5, lr}
  XMC_USBD_EP_t *ep = &xmc_device.ep[ep_addr & (uint8_t)XMC_USBD_EP_NUM_MASK];
  XMC_USBD_STATUS_t result;
	
  if (ep->outInUse || !ep->isConfigured)
 80018fe:	4d12      	ldr	r5, [pc, #72]	; (8001948 <XMC_USBD_EndpointReadStart+0x4c>)
 8001900:	f000 020f 	and.w	r2, r0, #15
 8001904:	2334      	movs	r3, #52	; 0x34
 8001906:	fb03 5302 	mla	r3, r3, r2, r5
 800190a:	6858      	ldr	r0, [r3, #4]
 800190c:	f3c0 1400 	ubfx	r4, r0, #4, #1
 8001910:	06c0      	lsls	r0, r0, #27
 8001912:	d402      	bmi.n	800191a <XMC_USBD_EndpointReadStart+0x1e>
 8001914:	7918      	ldrb	r0, [r3, #4]
 8001916:	0740      	lsls	r0, r0, #29
 8001918:	d401      	bmi.n	800191e <XMC_USBD_EndpointReadStart+0x22>
  {
    result = XMC_USBD_STATUS_ERROR;
 800191a:	2001      	movs	r0, #1
    ep->outBytesAvailable = 0U;
    XMC_USBD_lStartReadXfer(ep);
    result= XMC_USBD_STATUS_OK;
  }
  return result;
}
 800191c:	bd38      	pop	{r3, r4, r5, pc}
    ep->xferTotal = size;
 800191e:	6958      	ldr	r0, [r3, #20]
    ep->outBytesAvailable = 0U;
 8001920:	611c      	str	r4, [r3, #16]
    ep->xferTotal = size;
 8001922:	4281      	cmp	r1, r0
 8001924:	bf28      	it	cs
 8001926:	4601      	movcs	r1, r0
  XMC_USBD_EP_t *ep = &xmc_device.ep[ep_addr & (uint8_t)XMC_USBD_EP_NUM_MASK];
 8001928:	eb02 0042 	add.w	r0, r2, r2, lsl #1
    ep->xferTotal = size;
 800192c:	6319      	str	r1, [r3, #48]	; 0x30
  XMC_USBD_EP_t *ep = &xmc_device.ep[ep_addr & (uint8_t)XMC_USBD_EP_NUM_MASK];
 800192e:	eb02 0080 	add.w	r0, r2, r0, lsl #2
    ep->xferBuffer = ep->outBuffer;
 8001932:	68d9      	ldr	r1, [r3, #12]
 8001934:	6259      	str	r1, [r3, #36]	; 0x24
    XMC_USBD_lStartReadXfer(ep);
 8001936:	eb05 0080 	add.w	r0, r5, r0, lsl #2
    ep->xferLength = 0U;
 800193a:	e9c3 440a 	strd	r4, r4, [r3, #40]	; 0x28
    XMC_USBD_lStartReadXfer(ep);
 800193e:	f7ff ff1f 	bl	8001780 <XMC_USBD_lStartReadXfer>
    result= XMC_USBD_STATUS_OK;
 8001942:	4620      	mov	r0, r4
}
 8001944:	bd38      	pop	{r3, r4, r5, pc}
 8001946:	bf00      	nop
 8001948:	20000878 	.word	0x20000878

0800194c <XMC_USBD_DeviceSetAddress>:
 * Sets the USB device address.
 **/
XMC_USBD_STATUS_t XMC_USBD_DeviceSetAddress(const uint8_t address,const XMC_USBD_SET_ADDRESS_STAGE_t stage) 
{
  dcfg_data_t data;
  data.d32 = xmc_device.device_register->dcfg;
 800194c:	4b04      	ldr	r3, [pc, #16]	; (8001960 <XMC_USBD_DeviceSetAddress+0x14>)
 800194e:	f8d3 31a4 	ldr.w	r3, [r3, #420]	; 0x1a4
 8001952:	681a      	ldr	r2, [r3, #0]
  if (stage == XMC_USBD_SET_ADDRESS_STAGE_SETUP)
 8001954:	b911      	cbnz	r1, 800195c <XMC_USBD_DeviceSetAddress+0x10>
  {
    data.b.devaddr = address;
 8001956:	f360 120a 	bfi	r2, r0, #4, #7
    xmc_device.device_register->dcfg = data.d32;
 800195a:	601a      	str	r2, [r3, #0]
  }
	return XMC_USBD_STATUS_OK;
}
 800195c:	2000      	movs	r0, #0
 800195e:	4770      	bx	lr
 8001960:	20000878 	.word	0x20000878

08001964 <XMC_USBD_EndpointStall>:
 * Set/clear stall on the selected endpoint.
 **/
XMC_USBD_STATUS_t XMC_USBD_EndpointStall(const uint8_t ep_addr, const bool stall) 
{
  depctl_data_t data;
  XMC_USBD_EP_t *ep = &xmc_device.ep[(ep_addr & (uint8_t)XMC_USBD_EP_NUM_MASK)];
 8001964:	f000 0c0f 	and.w	ip, r0, #15
  if (stall)
  {
    if (ep_addr & (uint8_t)XMC_USBD_ENDPOINT_DIRECTION_MASK)
    {
      /*set stall bit */
      data.d32 = xmc_device.endpoint_in_register[ep->address_u.address_st.number]->diepctl;
 8001968:	2234      	movs	r2, #52	; 0x34
 800196a:	4b1c      	ldr	r3, [pc, #112]	; (80019dc <XMC_USBD_EndpointStall+0x78>)
 800196c:	fb02 f20c 	mul.w	r2, r2, ip
 8001970:	5c9a      	ldrb	r2, [r3, r2]
 8001972:	f002 020f 	and.w	r2, r2, #15
  if (stall)
 8001976:	b1a9      	cbz	r1, 80019a4 <XMC_USBD_EndpointStall+0x40>
    if (ep_addr & (uint8_t)XMC_USBD_ENDPOINT_DIRECTION_MASK)
 8001978:	0600      	lsls	r0, r0, #24
      xmc_device.endpoint_in_register[ep->address_u.address_st.number]->diepctl = data.d32;
    }
    else
    {
      /*set stall bit */
      data.d32 = xmc_device.endpoint_out_register[ep->address_u.address_st.number]->doepctl;
 800197a:	bf55      	itete	pl
 800197c:	eb03 0282 	addpl.w	r2, r3, r2, lsl #2
      data.d32 = xmc_device.endpoint_in_register[ep->address_u.address_st.number]->diepctl;
 8001980:	326a      	addmi	r2, #106	; 0x6a
      data.d32 = xmc_device.endpoint_out_register[ep->address_u.address_st.number]->doepctl;
 8001982:	f8d2 11c4 	ldrpl.w	r1, [r2, #452]	; 0x1c4
      data.d32 = xmc_device.endpoint_in_register[ep->address_u.address_st.number]->diepctl;
 8001986:	f853 1022 	ldrmi.w	r1, [r3, r2, lsl #2]
      data.d32 = xmc_device.endpoint_out_register[ep->address_u.address_st.number]->doepctl;
 800198a:	680a      	ldr	r2, [r1, #0]
      data.b.stall = 1U;
 800198c:	f442 1200 	orr.w	r2, r2, #2097152	; 0x200000
      xmc_device.endpoint_out_register[ep->address_u.address_st.number]->doepctl = data.d32;
 8001990:	600a      	str	r2, [r1, #0]
    }
    ep->isStalled = 1U;
 8001992:	2234      	movs	r2, #52	; 0x34
 8001994:	fb02 330c 	mla	r3, r2, ip, r3
			xmc_device.endpoint_out_register[ep->address_u.address_st.number]->doepctl = data.d32;
		}
		ep->isStalled = 0U;
	}
	return XMC_USBD_STATUS_OK;
}
 8001998:	2000      	movs	r0, #0
    ep->isStalled = 1U;
 800199a:	791a      	ldrb	r2, [r3, #4]
 800199c:	f042 0220 	orr.w	r2, r2, #32
 80019a0:	711a      	strb	r2, [r3, #4]
}
 80019a2:	4770      	bx	lr
		if (ep_addr & (uint8_t)XMC_USBD_ENDPOINT_DIRECTION_MASK)
 80019a4:	0601      	lsls	r1, r0, #24
			data.d32 = xmc_device.endpoint_out_register[ep->address_u.address_st.number]->doepctl;
 80019a6:	bf55      	itete	pl
 80019a8:	eb03 0282 	addpl.w	r2, r3, r2, lsl #2
			data.d32 = xmc_device.endpoint_in_register[ep->address_u.address_st.number]->diepctl;
 80019ac:	326a      	addmi	r2, #106	; 0x6a
			data.d32 = xmc_device.endpoint_out_register[ep->address_u.address_st.number]->doepctl;
 80019ae:	f8d2 01c4 	ldrpl.w	r0, [r2, #452]	; 0x1c4
			data.d32 = xmc_device.endpoint_in_register[ep->address_u.address_st.number]->diepctl;
 80019b2:	f853 0022 	ldrmi.w	r0, [r3, r2, lsl #2]
			data.d32 = xmc_device.endpoint_out_register[ep->address_u.address_st.number]->doepctl;
 80019b6:	6802      	ldr	r2, [r0, #0]
			data.b.stall = 0U;
 80019b8:	f3c2 410f 	ubfx	r1, r2, #16, #16
 80019bc:	f421 5181 	bic.w	r1, r1, #4128	; 0x1020
 80019c0:	f441 5180 	orr.w	r1, r1, #4096	; 0x1000
 80019c4:	f361 421f 	bfi	r2, r1, #16, #16
			xmc_device.endpoint_out_register[ep->address_u.address_st.number]->doepctl = data.d32;
 80019c8:	6002      	str	r2, [r0, #0]
		ep->isStalled = 0U;
 80019ca:	2234      	movs	r2, #52	; 0x34
 80019cc:	fb02 330c 	mla	r3, r2, ip, r3
}
 80019d0:	2000      	movs	r0, #0
		ep->isStalled = 0U;
 80019d2:	791a      	ldrb	r2, [r3, #4]
 80019d4:	f36f 1245 	bfc	r2, #5, #1
 80019d8:	711a      	strb	r2, [r3, #4]
}
 80019da:	4770      	bx	lr
 80019dc:	20000878 	.word	0x20000878

080019e0 <XMC_USBD_EndpointAbort>:

/**
 * Aborts the data transfer on the selected endpoint
 **/
XMC_USBD_STATUS_t XMC_USBD_EndpointAbort(const uint8_t ep_addr) {
  XMC_USBD_EP_t *ep = &xmc_device.ep[ep_addr & (uint8_t)XMC_USBD_ENDPOINT_NUMBER_MASK];
 80019e0:	f000 000f 	and.w	r0, r0, #15
  if (ep->address_u.address_st.direction)
 80019e4:	2234      	movs	r2, #52	; 0x34
 80019e6:	4b0d      	ldr	r3, [pc, #52]	; (8001a1c <XMC_USBD_EndpointAbort+0x3c>)
 80019e8:	fb00 f202 	mul.w	r2, r0, r2
 80019ec:	1899      	adds	r1, r3, r2
 80019ee:	569a      	ldrsb	r2, [r3, r2]
 80019f0:	2a00      	cmp	r2, #0
  {
    ep->inInUse = 0U;
 80019f2:	684a      	ldr	r2, [r1, #4]
 80019f4:	bfb4      	ite	lt
 80019f6:	f36f 02c3 	bfclt	r2, #3, #1
  }
  if (!ep->address_u.address_st.direction)
  {
    ep->outInUse = 0U;
 80019fa:	f36f 1204 	bfcge	r2, #4, #1
 80019fe:	604a      	str	r2, [r1, #4]
  }
  ep->isStalled = 0U;
 8001a00:	2234      	movs	r2, #52	; 0x34
 8001a02:	fb02 3300 	mla	r3, r2, r0, r3
  ep->outBytesAvailable = 0U;
 8001a06:	2000      	movs	r0, #0
  ep->isStalled = 0U;
 8001a08:	791a      	ldrb	r2, [r3, #4]
  ep->outBytesAvailable = 0U;
 8001a0a:	6118      	str	r0, [r3, #16]
  ep->isStalled = 0U;
 8001a0c:	f36f 1245 	bfc	r2, #5, #1
  ep->outOffset = 0U;
  ep->xferLength = 0U;
  ep->xferCount = 0U;
 8001a10:	e9c3 000a 	strd	r0, r0, [r3, #40]	; 0x28
  ep->isStalled = 0U;
 8001a14:	711a      	strb	r2, [r3, #4]
  ep->outOffset = 0U;
 8001a16:	6198      	str	r0, [r3, #24]
  ep->xferTotal = 0U;
 8001a18:	6318      	str	r0, [r3, #48]	; 0x30

  return XMC_USBD_STATUS_OK;
}
 8001a1a:	4770      	bx	lr
 8001a1c:	20000878 	.word	0x20000878

08001a20 <XMC_USBD_EndpointUnconfigure>:

/**
 * Unconfigure the selected endpoint.
 **/
XMC_USBD_STATUS_t XMC_USBD_EndpointUnconfigure(const uint8_t ep_addr) 
{
 8001a20:	b5f0      	push	{r4, r5, r6, r7, lr}
  depctl_data_t data;
	daint_data_t daintmsk;
	XMC_USBD_STATUS_t result;
	uint32_t number_temp;
  data.d32 = 0U;  
  daintmsk.d32 = xmc_device.device_register->daintmsk;  
 8001a22:	4b39      	ldr	r3, [pc, #228]	; (8001b08 <XMC_USBD_EndpointUnconfigure+0xe8>)
  XMC_USBD_EP_t *ep = &xmc_device.ep[ep_addr & (uint8_t)XMC_USBD_ENDPOINT_NUMBER_MASK];
 8001a24:	f000 000f 	and.w	r0, r0, #15
  number_temp = (uint32_t)((uint32_t)1U << (uint8_t)ep->address_u.address_st.number);
  /* if not configured return an error */
  if (!ep->isConfigured)
 8001a28:	2134      	movs	r1, #52	; 0x34
 8001a2a:	fb00 f101 	mul.w	r1, r0, r1
 8001a2e:	185a      	adds	r2, r3, r1
  daintmsk.d32 = xmc_device.device_register->daintmsk;  
 8001a30:	f8d3 41a4 	ldr.w	r4, [r3, #420]	; 0x1a4
  if (!ep->isConfigured)
 8001a34:	f892 c004 	ldrb.w	ip, [r2, #4]
  daintmsk.d32 = xmc_device.device_register->daintmsk;  
 8001a38:	69e6      	ldr	r6, [r4, #28]
  if (!ep->isConfigured)
 8001a3a:	f01c 0f04 	tst.w	ip, #4
 8001a3e:	d048      	beq.n	8001ad2 <XMC_USBD_EndpointUnconfigure+0xb2>
  number_temp = (uint32_t)((uint32_t)1U << (uint8_t)ep->address_u.address_st.number);
 8001a40:	5c5f      	ldrb	r7, [r3, r1]
    /* disable the endpoint, deactivate it and only send naks */
    data.b.usbactep = 0U;
    data.b.epdis =  1U;
    data.b.snak =  1U;
    data.b.stall =  0U;
    ep->isConfigured =  0U;
 8001a42:	f02c 0c24 	bic.w	ip, ip, #36	; 0x24
 8001a46:	f882 c004 	strb.w	ip, [r2, #4]
  number_temp = (uint32_t)((uint32_t)1U << (uint8_t)ep->address_u.address_st.number);
 8001a4a:	f007 0c0f 	and.w	ip, r7, #15
    ep->isStalled =  0U;
    ep->outInUse =  0U;
 8001a4e:	6857      	ldr	r7, [r2, #4]
 8001a50:	f36f 1704 	bfc	r7, #4, #1
 8001a54:	6057      	str	r7, [r2, #4]
    ep->inInUse =  0U;
 8001a56:	6857      	ldr	r7, [r2, #4]
 8001a58:	f36f 07c3 	bfc	r7, #3, #1
 8001a5c:	6057      	str	r7, [r2, #4]
    /* chose register based on the direction. Control Endpoint need both */
    if ((ep->address_u.address_st.direction == 1U) || (ep->type == (uint8_t)XMC_USBD_ENDPOINT_TYPE_CONTROL))
 8001a5e:	565f      	ldrsb	r7, [r3, r1]
  number_temp = (uint32_t)((uint32_t)1U << (uint8_t)ep->address_u.address_st.number);
 8001a60:	2101      	movs	r1, #1
    if ((ep->address_u.address_st.direction == 1U) || (ep->type == (uint8_t)XMC_USBD_ENDPOINT_TYPE_CONTROL))
 8001a62:	2f00      	cmp	r7, #0
 8001a64:	4635      	mov	r5, r6
  number_temp = (uint32_t)((uint32_t)1U << (uint8_t)ep->address_u.address_st.number);
 8001a66:	fa01 f10c 	lsl.w	r1, r1, ip
    if ((ep->address_u.address_st.direction == 1U) || (ep->type == (uint8_t)XMC_USBD_ENDPOINT_TYPE_CONTROL))
 8001a6a:	db34      	blt.n	8001ad6 <XMC_USBD_EndpointUnconfigure+0xb6>
 8001a6c:	7912      	ldrb	r2, [r2, #4]
 8001a6e:	0792      	lsls	r2, r2, #30
    {
      /* disable endpoint configuration */
      xmc_device.endpoint_in_register[ep->address_u.address_st.number]->diepctl = data.d32;
      /* disable interrupts */
      daintmsk.ep.in = (uint16_t)((uint32_t)daintmsk.ep.in & (~(uint32_t)number_temp));
 8001a70:	ea6f 0101 	mvn.w	r1, r1
    if ((ep->address_u.address_st.direction == 1U) || (ep->type == (uint8_t)XMC_USBD_ENDPOINT_TYPE_CONTROL))
 8001a74:	d141      	bne.n	8001afa <XMC_USBD_EndpointUnconfigure+0xda>
      xmc_device.endpoint_in_register[ep->address_u.address_st.number]->diepctl = data.d32;
 8001a76:	f10c 026a 	add.w	r2, ip, #106	; 0x6a
 8001a7a:	f04f 4e90 	mov.w	lr, #1207959552	; 0x48000000
 8001a7e:	f853 7022 	ldr.w	r7, [r3, r2, lsl #2]
      daintmsk.ep.in = (uint16_t)((uint32_t)daintmsk.ep.in & (~(uint32_t)number_temp));
 8001a82:	b28a      	uxth	r2, r1
      xmc_device.endpoint_in_register[ep->address_u.address_st.number]->diepctl = data.d32;
 8001a84:	f8c7 e000 	str.w	lr, [r7]
      daintmsk.ep.in = (uint16_t)((uint32_t)daintmsk.ep.in & (~(uint32_t)number_temp));
 8001a88:	ea02 0706 	and.w	r7, r2, r6
 8001a8c:	f367 050f 	bfi	r5, r7, #0, #16
    }
    if ((ep->address_u.address_st.direction == 0U) || (ep->type == (uint8_t)XMC_USBD_ENDPOINT_TYPE_CONTROL))
    {
      xmc_device.endpoint_out_register[ep->address_u.address_st.number]->doepctl = data.d32;
 8001a90:	eb03 0c8c 	add.w	ip, r3, ip, lsl #2
      daintmsk.ep.out = (uint16_t)((uint32_t)daintmsk.ep.out & (~(uint32_t)number_temp));
 8001a94:	ea02 4216 	and.w	r2, r2, r6, lsr #16
      xmc_device.endpoint_out_register[ep->address_u.address_st.number]->doepctl = data.d32;
 8001a98:	f8dc 61c4 	ldr.w	r6, [ip, #452]	; 0x1c4
      daintmsk.ep.out = (uint16_t)((uint32_t)daintmsk.ep.out & (~(uint32_t)number_temp));
 8001a9c:	f362 451f 	bfi	r5, r2, #16, #16
      xmc_device.endpoint_out_register[ep->address_u.address_st.number]->doepctl = data.d32;
 8001aa0:	f04f 4790 	mov.w	r7, #1207959552	; 0x48000000
      if(usbd_init->usbd_transfer_mode == XMC_USBD_USE_FIFO)
 8001aa4:	f8d3 2208 	ldr.w	r2, [r3, #520]	; 0x208
      xmc_device.endpoint_out_register[ep->address_u.address_st.number]->doepctl = data.d32;
 8001aa8:	6037      	str	r7, [r6, #0]
      if(usbd_init->usbd_transfer_mode == XMC_USBD_USE_FIFO)
 8001aaa:	7b52      	ldrb	r2, [r2, #13]
 8001aac:	2a01      	cmp	r2, #1
 8001aae:	d026      	beq.n	8001afe <XMC_USBD_EndpointUnconfigure+0xde>
      {
        xmc_device.device_register->dtknqr4_fifoemptymsk &= ~number_temp;
      }
    }
    xmc_device.device_register->daintmsk = daintmsk.d32;
    XMC_USBD_lUnassignFifo(ep->txFifoNum); /* free fifo */
 8001ab0:	2234      	movs	r2, #52	; 0x34
 8001ab2:	fb02 3000 	mla	r0, r2, r0, r3
    xmc_device.device_register->daintmsk = daintmsk.d32;
 8001ab6:	61e5      	str	r5, [r4, #28]
    XMC_USBD_lUnassignFifo(ep->txFifoNum); /* free fifo */
 8001ab8:	8881      	ldrh	r1, [r0, #4]
  xmc_device.txfifomsk = (uint16_t)((uint32_t)xmc_device.txfifomsk & (uint32_t)(~((uint32_t)((uint32_t)1U << fifo_nr))));
 8001aba:	f8b3 21fc 	ldrh.w	r2, [r3, #508]	; 0x1fc
 8001abe:	f3c1 1083 	ubfx	r0, r1, #6, #4
 8001ac2:	2101      	movs	r1, #1
 8001ac4:	4081      	lsls	r1, r0
 8001ac6:	ea22 0201 	bic.w	r2, r2, r1
 8001aca:	f8a3 21fc 	strh.w	r2, [r3, #508]	; 0x1fc
    result = XMC_USBD_STATUS_OK;
 8001ace:	2000      	movs	r0, #0
  }
  return result;
}
 8001ad0:	bdf0      	pop	{r4, r5, r6, r7, pc}
     result = XMC_USBD_STATUS_ERROR;
 8001ad2:	2001      	movs	r0, #1
}
 8001ad4:	bdf0      	pop	{r4, r5, r6, r7, pc}
      xmc_device.endpoint_in_register[ep->address_u.address_st.number]->diepctl = data.d32;
 8001ad6:	f10c 076a 	add.w	r7, ip, #106	; 0x6a
 8001ada:	f04f 4e90 	mov.w	lr, #1207959552	; 0x48000000
 8001ade:	f853 7027 	ldr.w	r7, [r3, r7, lsl #2]
 8001ae2:	f8c7 e000 	str.w	lr, [r7]
    if ((ep->address_u.address_st.direction == 0U) || (ep->type == (uint8_t)XMC_USBD_ENDPOINT_TYPE_CONTROL))
 8001ae6:	7917      	ldrb	r7, [r2, #4]
      daintmsk.ep.in = (uint16_t)((uint32_t)daintmsk.ep.in & (~(uint32_t)number_temp));
 8001ae8:	43c9      	mvns	r1, r1
 8001aea:	b28a      	uxth	r2, r1
 8001aec:	ea02 0e06 	and.w	lr, r2, r6
    if ((ep->address_u.address_st.direction == 0U) || (ep->type == (uint8_t)XMC_USBD_ENDPOINT_TYPE_CONTROL))
 8001af0:	07bf      	lsls	r7, r7, #30
      daintmsk.ep.in = (uint16_t)((uint32_t)daintmsk.ep.in & (~(uint32_t)number_temp));
 8001af2:	f36e 050f 	bfi	r5, lr, #0, #16
    if ((ep->address_u.address_st.direction == 0U) || (ep->type == (uint8_t)XMC_USBD_ENDPOINT_TYPE_CONTROL))
 8001af6:	d0cb      	beq.n	8001a90 <XMC_USBD_EndpointUnconfigure+0x70>
 8001af8:	e7da      	b.n	8001ab0 <XMC_USBD_EndpointUnconfigure+0x90>
      daintmsk.ep.in = (uint16_t)((uint32_t)daintmsk.ep.in & (~(uint32_t)number_temp));
 8001afa:	b28a      	uxth	r2, r1
 8001afc:	e7c8      	b.n	8001a90 <XMC_USBD_EndpointUnconfigure+0x70>
        xmc_device.device_register->dtknqr4_fifoemptymsk &= ~number_temp;
 8001afe:	6b62      	ldr	r2, [r4, #52]	; 0x34
 8001b00:	4011      	ands	r1, r2
 8001b02:	6361      	str	r1, [r4, #52]	; 0x34
 8001b04:	e7d4      	b.n	8001ab0 <XMC_USBD_EndpointUnconfigure+0x90>
 8001b06:	bf00      	nop
 8001b08:	20000878 	.word	0x20000878

08001b0c <XMC_USBD_GetFrameNumber>:
 **/
uint16_t XMC_USBD_GetFrameNumber(void) 
{
  uint16_t result;
  dsts_data_t dsts;
  dsts.d32 = xmc_device.device_register->dsts;
 8001b0c:	4b03      	ldr	r3, [pc, #12]	; (8001b1c <XMC_USBD_GetFrameNumber+0x10>)
 8001b0e:	f8d3 31a4 	ldr.w	r3, [r3, #420]	; 0x1a4
 8001b12:	6898      	ldr	r0, [r3, #8]
  result = (uint16_t)dsts.b.soffn;
  return result;
}
 8001b14:	f3c0 200d 	ubfx	r0, r0, #8, #14
 8001b18:	4770      	bx	lr
 8001b1a:	bf00      	nop
 8001b1c:	20000878 	.word	0x20000878

08001b20 <XMC_USBD_IsEnumDone>:
 * This should not be used for the actual USB enumeration completion status. For the actual USB enumeration status,
 * the application layer should check for the completion of USB standard request Set configuration.
 **/
uint32_t XMC_USBD_IsEnumDone(void)
{
  return (uint32_t)((uint8_t)xmc_device.IsConnected && (uint8_t)xmc_device.IsPowered);
 8001b20:	4b05      	ldr	r3, [pc, #20]	; (8001b38 <XMC_USBD_IsEnumDone+0x18>)
 8001b22:	f893 01fe 	ldrb.w	r0, [r3, #510]	; 0x1fe
 8001b26:	f000 0005 	and.w	r0, r0, #5
}
 8001b2a:	f1a0 0005 	sub.w	r0, r0, #5
 8001b2e:	fab0 f080 	clz	r0, r0
 8001b32:	0940      	lsrs	r0, r0, #5
 8001b34:	4770      	bx	lr
 8001b36:	bf00      	nop
 8001b38:	20000878 	.word	0x20000878

08001b3c <XMC_USBD_Uninitialize>:
	dctl.d32 = xmc_device.device_register->dctl;
 8001b3c:	4807      	ldr	r0, [pc, #28]	; (8001b5c <XMC_USBD_Uninitialize+0x20>)
{
 8001b3e:	b510      	push	{r4, lr}
	dctl.d32 = xmc_device.device_register->dctl;
 8001b40:	f8d0 41a4 	ldr.w	r4, [r0, #420]	; 0x1a4
 8001b44:	6863      	ldr	r3, [r4, #4]
  dctl.b.sftdiscon = 1U;
 8001b46:	f043 0302 	orr.w	r3, r3, #2
  memset((void*)&xmc_device,0U,sizeof(xmc_device));
 8001b4a:	f44f 7202 	mov.w	r2, #520	; 0x208
 8001b4e:	2100      	movs	r1, #0
  xmc_device.device_register->dctl = dctl.d32;
 8001b50:	6063      	str	r3, [r4, #4]
  memset((void*)&xmc_device,0U,sizeof(xmc_device));
 8001b52:	f002 fe17 	bl	8004784 <memset>
}
 8001b56:	2000      	movs	r0, #0
 8001b58:	bd10      	pop	{r4, pc}
 8001b5a:	bf00      	nop
 8001b5c:	20000878 	.word	0x20000878

08001b60 <XMC_USBD_EndpointConfigure>:
{
 8001b60:	e92d 4ff8 	stmdb	sp!, {r3, r4, r5, r6, r7, r8, r9, sl, fp, lr}
  daintmsk.d32 = xmc_device.device_register->daintmsk;  
 8001b64:	4c9b      	ldr	r4, [pc, #620]	; (8001dd4 <XMC_USBD_EndpointConfigure+0x274>)
 8001b66:	f8d4 31a4 	ldr.w	r3, [r4, #420]	; 0x1a4
{
 8001b6a:	4681      	mov	r9, r0
  ep =&xmc_device.ep[ep_addr & (uint32_t)XMC_USBD_ENDPOINT_NUMBER_MASK];
 8001b6c:	f000 000f 	and.w	r0, r0, #15
  daintmsk.d32 = xmc_device.device_register->daintmsk;  
 8001b70:	69df      	ldr	r7, [r3, #28]
  ep =&xmc_device.ep[ep_addr & (uint32_t)XMC_USBD_ENDPOINT_NUMBER_MASK];
 8001b72:	eb00 0340 	add.w	r3, r0, r0, lsl #1
 8001b76:	eb00 0083 	add.w	r0, r0, r3, lsl #2
  memset((void*)ep,0x0U,sizeof(XMC_USBD_EP_t)); /* clear endpoint structure */
 8001b7a:	f04f 0a34 	mov.w	sl, #52	; 0x34
{
 8001b7e:	4615      	mov	r5, r2
 8001b80:	460e      	mov	r6, r1
  memset((void*)ep,0x0U,sizeof(XMC_USBD_EP_t)); /* clear endpoint structure */
 8001b82:	4652      	mov	r2, sl
 8001b84:	2100      	movs	r1, #0
 8001b86:	eb04 0080 	add.w	r0, r4, r0, lsl #2
 8001b8a:	f009 080f 	and.w	r8, r9, #15
 8001b8e:	f002 fdf9 	bl	8004784 <memset>
  ep->address_u.address = ep_addr;
 8001b92:	fb0a fc08 	mul.w	ip, sl, r8
 8001b96:	eb04 010c 	add.w	r1, r4, ip
 8001b9a:	f804 900c 	strb.w	r9, [r4, ip]
  ep->isConfigured = 1U;
 8001b9e:	6848      	ldr	r0, [r1, #4]
 8001ba0:	f005 037f 	and.w	r3, r5, #127	; 0x7f
 8001ba4:	02db      	lsls	r3, r3, #11
 8001ba6:	f420 307e 	bic.w	r0, r0, #260096	; 0x3f800
 8001baa:	f043 0304 	orr.w	r3, r3, #4
 8001bae:	f020 0004 	bic.w	r0, r0, #4
 8001bb2:	4303      	orrs	r3, r0
 8001bb4:	604b      	str	r3, [r1, #4]
  daintmsk.d32 = xmc_device.device_register->daintmsk;  
 8001bb6:	463a      	mov	r2, r7
  if (ep->address_u.address != 0U)
 8001bb8:	f1b9 0f00 	cmp.w	r9, #0
 8001bbc:	d07d      	beq.n	8001cba <XMC_USBD_EndpointConfigure+0x15a>
 8001bbe:	688b      	ldr	r3, [r1, #8]
 8001bc0:	f64f 7ec0 	movw	lr, #65472	; 0xffc0
 8001bc4:	f36e 0312 	bfi	r3, lr, #0, #19
 8001bc8:	608b      	str	r3, [r1, #8]
  ep->inBuffer = XMC_USBD_EP_IN_BUFFER[ep->address_u.address_st.number];
 8001bca:	f814 c00c 	ldrb.w	ip, [r4, ip]
 8001bce:	4b82      	ldr	r3, [pc, #520]	; (8001dd8 <XMC_USBD_EndpointConfigure+0x278>)
 8001bd0:	f00c 0c0f 	and.w	ip, ip, #15
 8001bd4:	fa4f f089 	sxtb.w	r0, r9
  ep->inBufferSize = XMC_USBD_EP_IN_BUFFERSIZE[ep->address_u.address_st.number];
 8001bd8:	eb04 0e8c 	add.w	lr, r4, ip, lsl #2
  ep->outBuffer = XMC_USBD_EP_OUT_BUFFER[ep->address_u.address_st.number];
 8001bdc:	f503 69e0 	add.w	r9, r3, #1792	; 0x700
  ep->inBuffer = XMC_USBD_EP_IN_BUFFER[ep->address_u.address_st.number];
 8001be0:	eb03 230c 	add.w	r3, r3, ip, lsl #8
 8001be4:	61cb      	str	r3, [r1, #28]
  ep->outBuffer = XMC_USBD_EP_OUT_BUFFER[ep->address_u.address_st.number];
 8001be6:	eb09 230c 	add.w	r3, r9, ip, lsl #8
 8001bea:	60cb      	str	r3, [r1, #12]
  ep->inBufferSize = XMC_USBD_EP_IN_BUFFERSIZE[ep->address_u.address_st.number];
 8001bec:	f8de 320c 	ldr.w	r3, [lr, #524]	; 0x20c
 8001bf0:	620b      	str	r3, [r1, #32]
  if ((ep->address_u.address_st.direction == 1U) || (ep_type == XMC_USBD_ENDPOINT_TYPE_CONTROL))
 8001bf2:	2800      	cmp	r0, #0
  ep->outBufferSize = XMC_USBD_EP_OUT_BUFFERSIZE[ep->address_u.address_st.number];
 8001bf4:	f8de 3228 	ldr.w	r3, [lr, #552]	; 0x228
 8001bf8:	614b      	str	r3, [r1, #20]
  if ((ep->address_u.address_st.direction == 1U) || (ep_type == XMC_USBD_ENDPOINT_TYPE_CONTROL))
 8001bfa:	da7a      	bge.n	8001cf2 <XMC_USBD_EndpointConfigure+0x192>
    data.d32 = xmc_device.endpoint_in_register[ep->address_u.address_st.number]->diepctl;
 8001bfc:	f10c 036a 	add.w	r3, ip, #106	; 0x6a
 8001c00:	f854 9023 	ldr.w	r9, [r4, r3, lsl #2]
		data.b.usbactep = 1U;
 8001c04:	f006 0303 	and.w	r3, r6, #3
    data.d32 = xmc_device.endpoint_in_register[ep->address_u.address_st.number]->diepctl;
 8001c08:	f8d9 e000 	ldr.w	lr, [r9]
		data.b.usbactep = 1U;
 8001c0c:	049b      	lsls	r3, r3, #18
 8001c0e:	f443 4300 	orr.w	r3, r3, #32768	; 0x8000
 8001c12:	f42e 2e48 	bic.w	lr, lr, #819200	; 0xc8000
 8001c16:	ea43 0e0e 	orr.w	lr, r3, lr
    if (ep_type == XMC_USBD_ENDPOINT_TYPE_CONTROL)
 8001c1a:	2e00      	cmp	r6, #0
 8001c1c:	d074      	beq.n	8001d08 <XMC_USBD_EndpointConfigure+0x1a8>
			data.b.mps = ep_max_packet_size;
 8001c1e:	f365 0e0a 	bfi	lr, r5, #0, #11
		data.b.stall = 0U;
 8001c22:	f3ce 430f 	ubfx	r3, lr, #16, #16
 8001c26:	f423 5381 	bic.w	r3, r3, #4128	; 0x1020
 8001c2a:	f443 5380 	orr.w	r3, r3, #4096	; 0x1000
  while( (i < (uint8_t)XMC_USBD_NUM_TX_FIFOS)&&((xmc_device.txfifomsk & mask) != 0U))
 8001c2e:	f8b4 a1fc 	ldrh.w	sl, [r4, #508]	; 0x1fc
		data.b.stall = 0U;
 8001c32:	f363 4e1f 	bfi	lr, r3, #16, #16
  uint16_t mask = 1U;
 8001c36:	2101      	movs	r1, #1
  while( (i < (uint8_t)XMC_USBD_NUM_TX_FIFOS)&&((xmc_device.txfifomsk & mask) != 0U))
 8001c38:	2300      	movs	r3, #0
 8001c3a:	ea1a 0f01 	tst.w	sl, r1
    mask = (uint16_t)(mask << 1U);
 8001c3e:	ea4f 0b41 	mov.w	fp, r1, lsl #1
  while( (i < (uint8_t)XMC_USBD_NUM_TX_FIFOS)&&((xmc_device.txfifomsk & mask) != 0U))
 8001c42:	f000 809d 	beq.w	8001d80 <XMC_USBD_EndpointConfigure+0x220>
 8001c46:	3301      	adds	r3, #1
 8001c48:	2b07      	cmp	r3, #7
    mask = (uint16_t)(mask << 1U);
 8001c4a:	fa1f f18b 	uxth.w	r1, fp
  while( (i < (uint8_t)XMC_USBD_NUM_TX_FIFOS)&&((xmc_device.txfifomsk & mask) != 0U))
 8001c4e:	d1f4      	bne.n	8001c3a <XMC_USBD_EndpointConfigure+0xda>
  if ((xmc_device.txfifomsk & mask) == 0U)
 8001c50:	ea11 0f0a 	tst.w	r1, sl
 8001c54:	f000 8096 	beq.w	8001d84 <XMC_USBD_EndpointConfigure+0x224>
 8001c58:	2300      	movs	r3, #0
		ep->txFifoNum = XMC_USBD_lAssignTXFifo(); /* get tx fifo */
 8001c5a:	2134      	movs	r1, #52	; 0x34
 8001c5c:	fb01 4808 	mla	r8, r1, r8, r4
		daintmsk.ep.in |= (uint16_t)((uint16_t)1U << (uint8_t)ep->address_u.address_st.number); /* enable interrupts for endpoint */
 8001c60:	2101      	movs	r1, #1
		ep->txFifoNum = XMC_USBD_lAssignTXFifo(); /* get tx fifo */
 8001c62:	f8b8 a004 	ldrh.w	sl, [r8, #4]
		daintmsk.ep.in |= (uint16_t)((uint16_t)1U << (uint8_t)ep->address_u.address_st.number); /* enable interrupts for endpoint */
 8001c66:	fa01 f10c 	lsl.w	r1, r1, ip
 8001c6a:	b289      	uxth	r1, r1
		data.b.txfnum = ep->txFifoNum;
 8001c6c:	f363 5e99 	bfi	lr, r3, #22, #4
		ep->txFifoNum = XMC_USBD_lAssignTXFifo(); /* get tx fifo */
 8001c70:	f363 1a89 	bfi	sl, r3, #6, #4
  if ((ep->address_u.address_st.direction == 0U) || (ep_type == XMC_USBD_ENDPOINT_TYPE_CONTROL))
 8001c74:	2800      	cmp	r0, #0
		daintmsk.ep.in |= (uint16_t)((uint16_t)1U << (uint8_t)ep->address_u.address_st.number); /* enable interrupts for endpoint */
 8001c76:	ea41 0307 	orr.w	r3, r1, r7
		ep->txFifoNum = XMC_USBD_lAssignTXFifo(); /* get tx fifo */
 8001c7a:	f8a8 a004 	strh.w	sl, [r8, #4]
		daintmsk.ep.in |= (uint16_t)((uint16_t)1U << (uint8_t)ep->address_u.address_st.number); /* enable interrupts for endpoint */
 8001c7e:	f363 020f 	bfi	r2, r3, #0, #16
		xmc_device.endpoint_in_register[ep->address_u.address_st.number]->diepctl = data.d32; /* configure endpoint */
 8001c82:	f8c9 e000 	str.w	lr, [r9]
  if ((ep->address_u.address_st.direction == 0U) || (ep_type == XMC_USBD_ENDPOINT_TYPE_CONTROL))
 8001c86:	f280 8082 	bge.w	8001d8e <XMC_USBD_EndpointConfigure+0x22e>
 8001c8a:	2e00      	cmp	r6, #0
 8001c8c:	d167      	bne.n	8001d5e <XMC_USBD_EndpointConfigure+0x1fe>
		data.d32 = xmc_device.endpoint_out_register[ep->address_u.address_st.number]->doepctl;
 8001c8e:	eb04 0c8c 	add.w	ip, r4, ip, lsl #2
 8001c92:	f8dc 01c4 	ldr.w	r0, [ip, #452]	; 0x1c4
 8001c96:	6803      	ldr	r3, [r0, #0]
		data.b.usbactep = 1U;
 8001c98:	f423 2348 	bic.w	r3, r3, #819200	; 0xc8000
 8001c9c:	f443 4300 	orr.w	r3, r3, #32768	; 0x8000
			switch(ep_max_packet_size)
 8001ca0:	2d20      	cmp	r5, #32
 8001ca2:	f000 808b 	beq.w	8001dbc <XMC_USBD_EndpointConfigure+0x25c>
 8001ca6:	d860      	bhi.n	8001d6a <XMC_USBD_EndpointConfigure+0x20a>
 8001ca8:	2d08      	cmp	r5, #8
 8001caa:	f000 8083 	beq.w	8001db4 <XMC_USBD_EndpointConfigure+0x254>
 8001cae:	2d10      	cmp	r5, #16
 8001cb0:	d148      	bne.n	8001d44 <XMC_USBD_EndpointConfigure+0x1e4>
					data.b.mps = 0x2U;
 8001cb2:	2502      	movs	r5, #2
 8001cb4:	f365 030a 	bfi	r3, r5, #0, #11
					break;
 8001cb8:	e044      	b.n	8001d44 <XMC_USBD_EndpointConfigure+0x1e4>
    ep->maxTransferSize = (uint32_t)XMC_USBD_MAX_TRANSFER_SIZE_EP0;
 8001cba:	688b      	ldr	r3, [r1, #8]
 8001cbc:	f04f 0e40 	mov.w	lr, #64	; 0x40
 8001cc0:	f36e 0312 	bfi	r3, lr, #0, #19
 8001cc4:	608b      	str	r3, [r1, #8]
  ep->inBuffer = XMC_USBD_EP_IN_BUFFER[ep->address_u.address_st.number];
 8001cc6:	f814 c00c 	ldrb.w	ip, [r4, ip]
 8001cca:	4b43      	ldr	r3, [pc, #268]	; (8001dd8 <XMC_USBD_EndpointConfigure+0x278>)
 8001ccc:	f00c 0c0f 	and.w	ip, ip, #15
  ep->inBufferSize = XMC_USBD_EP_IN_BUFFERSIZE[ep->address_u.address_st.number];
 8001cd0:	eb04 0e8c 	add.w	lr, r4, ip, lsl #2
  ep->outBufferSize = XMC_USBD_EP_OUT_BUFFERSIZE[ep->address_u.address_st.number];
 8001cd4:	4648      	mov	r0, r9
  ep->outBuffer = XMC_USBD_EP_OUT_BUFFER[ep->address_u.address_st.number];
 8001cd6:	f503 69e0 	add.w	r9, r3, #1792	; 0x700
  ep->inBuffer = XMC_USBD_EP_IN_BUFFER[ep->address_u.address_st.number];
 8001cda:	eb03 230c 	add.w	r3, r3, ip, lsl #8
 8001cde:	61cb      	str	r3, [r1, #28]
  ep->outBuffer = XMC_USBD_EP_OUT_BUFFER[ep->address_u.address_st.number];
 8001ce0:	eb09 230c 	add.w	r3, r9, ip, lsl #8
 8001ce4:	60cb      	str	r3, [r1, #12]
  ep->inBufferSize = XMC_USBD_EP_IN_BUFFERSIZE[ep->address_u.address_st.number];
 8001ce6:	f8de 320c 	ldr.w	r3, [lr, #524]	; 0x20c
 8001cea:	620b      	str	r3, [r1, #32]
  ep->outBufferSize = XMC_USBD_EP_OUT_BUFFERSIZE[ep->address_u.address_st.number];
 8001cec:	f8de 3228 	ldr.w	r3, [lr, #552]	; 0x228
 8001cf0:	614b      	str	r3, [r1, #20]
  if ((ep->address_u.address_st.direction == 1U) || (ep_type == XMC_USBD_ENDPOINT_TYPE_CONTROL))
 8001cf2:	b9a6      	cbnz	r6, 8001d1e <XMC_USBD_EndpointConfigure+0x1be>
    data.d32 = xmc_device.endpoint_in_register[ep->address_u.address_st.number]->diepctl;
 8001cf4:	f10c 036a 	add.w	r3, ip, #106	; 0x6a
 8001cf8:	f854 9023 	ldr.w	r9, [r4, r3, lsl #2]
 8001cfc:	f8d9 e000 	ldr.w	lr, [r9]
		data.b.usbactep = 1U;
 8001d00:	f42e 2e48 	bic.w	lr, lr, #819200	; 0xc8000
 8001d04:	f44e 4e00 	orr.w	lr, lr, #32768	; 0x8000
			switch(ep_max_packet_size)
 8001d08:	2d20      	cmp	r5, #32
 8001d0a:	d05f      	beq.n	8001dcc <XMC_USBD_EndpointConfigure+0x26c>
 8001d0c:	d832      	bhi.n	8001d74 <XMC_USBD_EndpointConfigure+0x214>
 8001d0e:	2d08      	cmp	r5, #8
 8001d10:	d058      	beq.n	8001dc4 <XMC_USBD_EndpointConfigure+0x264>
 8001d12:	2d10      	cmp	r5, #16
 8001d14:	d185      	bne.n	8001c22 <XMC_USBD_EndpointConfigure+0xc2>
				data.b.mps = 0x2U;
 8001d16:	2302      	movs	r3, #2
 8001d18:	f363 0e0a 	bfi	lr, r3, #0, #11
				break;
 8001d1c:	e781      	b.n	8001c22 <XMC_USBD_EndpointConfigure+0xc2>
		data.d32 = xmc_device.endpoint_out_register[ep->address_u.address_st.number]->doepctl;
 8001d1e:	eb04 038c 	add.w	r3, r4, ip, lsl #2
		data.b.usbactep = 1U;
 8001d22:	f006 0603 	and.w	r6, r6, #3
		data.d32 = xmc_device.endpoint_out_register[ep->address_u.address_st.number]->doepctl;
 8001d26:	f8d3 01c4 	ldr.w	r0, [r3, #452]	; 0x1c4
 8001d2a:	6803      	ldr	r3, [r0, #0]
		data.b.usbactep = 1U;
 8001d2c:	04b6      	lsls	r6, r6, #18
		daintmsk.ep.in |= (uint16_t)((uint16_t)1U << (uint8_t)ep->address_u.address_st.number); /* enable interrupts for endpoint */
 8001d2e:	2101      	movs	r1, #1
		data.b.usbactep = 1U;
 8001d30:	f446 4600 	orr.w	r6, r6, #32768	; 0x8000
		daintmsk.ep.in |= (uint16_t)((uint16_t)1U << (uint8_t)ep->address_u.address_st.number); /* enable interrupts for endpoint */
 8001d34:	fa01 f10c 	lsl.w	r1, r1, ip
		data.b.usbactep = 1U;
 8001d38:	f423 2348 	bic.w	r3, r3, #819200	; 0xc8000
		daintmsk.ep.in |= (uint16_t)((uint16_t)1U << (uint8_t)ep->address_u.address_st.number); /* enable interrupts for endpoint */
 8001d3c:	b289      	uxth	r1, r1
		data.b.usbactep = 1U;
 8001d3e:	4333      	orrs	r3, r6
			data.b.mps = ep_max_packet_size;
 8001d40:	f365 030a 	bfi	r3, r5, #0, #11
		daintmsk.ep.out |=(uint16_t) ((uint16_t)1U << (uint8_t)ep->address_u.address_st.number); /* enable interrupts */
 8001d44:	ea41 4117 	orr.w	r1, r1, r7, lsr #16
 8001d48:	f361 421f 	bfi	r2, r1, #16, #16
		data.b.stall =(uint8_t) 0U;
 8001d4c:	f3c3 410f 	ubfx	r1, r3, #16, #16
 8001d50:	f421 5181 	bic.w	r1, r1, #4128	; 0x1020
 8001d54:	f441 5180 	orr.w	r1, r1, #4096	; 0x1000
 8001d58:	f361 431f 	bfi	r3, r1, #16, #16
		xmc_device.endpoint_out_register[ep->address_u.address_st.number]->doepctl = data.d32; /* configure endpoint */
 8001d5c:	6003      	str	r3, [r0, #0]
  xmc_device.device_register->daintmsk = daintmsk.d32;
 8001d5e:	f8d4 31a4 	ldr.w	r3, [r4, #420]	; 0x1a4
}
 8001d62:	2000      	movs	r0, #0
  xmc_device.device_register->daintmsk = daintmsk.d32;
 8001d64:	61da      	str	r2, [r3, #28]
}
 8001d66:	e8bd 8ff8 	ldmia.w	sp!, {r3, r4, r5, r6, r7, r8, r9, sl, fp, pc}
			switch(ep_max_packet_size)
 8001d6a:	2d40      	cmp	r5, #64	; 0x40
 8001d6c:	d1ea      	bne.n	8001d44 <XMC_USBD_EndpointConfigure+0x1e4>
					data.b.mps = 0x0U;
 8001d6e:	f36f 030a 	bfc	r3, #0, #11
					break;
 8001d72:	e7e7      	b.n	8001d44 <XMC_USBD_EndpointConfigure+0x1e4>
			switch(ep_max_packet_size)
 8001d74:	2d40      	cmp	r5, #64	; 0x40
 8001d76:	f47f af54 	bne.w	8001c22 <XMC_USBD_EndpointConfigure+0xc2>
				data.b.mps = 0x0U;
 8001d7a:	f36f 0e0a 	bfc	lr, #0, #11
				break;
 8001d7e:	e750      	b.n	8001c22 <XMC_USBD_EndpointConfigure+0xc2>
		ep->txFifoNum = XMC_USBD_lAssignTXFifo(); /* get tx fifo */
 8001d80:	f003 030f 	and.w	r3, r3, #15
    xmc_device.txfifomsk |= mask;
 8001d84:	ea4a 0101 	orr.w	r1, sl, r1
 8001d88:	f8a4 11fc 	strh.w	r1, [r4, #508]	; 0x1fc
    result=i;
 8001d8c:	e765      	b.n	8001c5a <XMC_USBD_EndpointConfigure+0xfa>
		data.d32 = xmc_device.endpoint_out_register[ep->address_u.address_st.number]->doepctl;
 8001d8e:	eb04 0c8c 	add.w	ip, r4, ip, lsl #2
 8001d92:	f8dc 01c4 	ldr.w	r0, [ip, #452]	; 0x1c4
		data.b.usbactep = 1U;
 8001d96:	f006 0c03 	and.w	ip, r6, #3
		data.d32 = xmc_device.endpoint_out_register[ep->address_u.address_st.number]->doepctl;
 8001d9a:	6803      	ldr	r3, [r0, #0]
		data.b.usbactep = 1U;
 8001d9c:	ea4f 4c8c 	mov.w	ip, ip, lsl #18
 8001da0:	f44c 4c00 	orr.w	ip, ip, #32768	; 0x8000
 8001da4:	f423 2348 	bic.w	r3, r3, #819200	; 0xc8000
 8001da8:	ea4c 0303 	orr.w	r3, ip, r3
    if (ep_type == XMC_USBD_ENDPOINT_TYPE_CONTROL)
 8001dac:	2e00      	cmp	r6, #0
 8001dae:	f43f af77 	beq.w	8001ca0 <XMC_USBD_EndpointConfigure+0x140>
 8001db2:	e7c5      	b.n	8001d40 <XMC_USBD_EndpointConfigure+0x1e0>
					data.b.mps = 0x3U;
 8001db4:	2503      	movs	r5, #3
 8001db6:	f365 030a 	bfi	r3, r5, #0, #11
					break;
 8001dba:	e7c3      	b.n	8001d44 <XMC_USBD_EndpointConfigure+0x1e4>
					data.b.mps = 0x1U;
 8001dbc:	2501      	movs	r5, #1
 8001dbe:	f365 030a 	bfi	r3, r5, #0, #11
					break;
 8001dc2:	e7bf      	b.n	8001d44 <XMC_USBD_EndpointConfigure+0x1e4>
				data.b.mps = 0x3U;
 8001dc4:	2303      	movs	r3, #3
 8001dc6:	f363 0e0a 	bfi	lr, r3, #0, #11
				break;
 8001dca:	e72a      	b.n	8001c22 <XMC_USBD_EndpointConfigure+0xc2>
				data.b.mps = 0x1U;
 8001dcc:	2301      	movs	r3, #1
 8001dce:	f363 0e0a 	bfi	lr, r3, #0, #11
				break;
 8001dd2:	e726      	b.n	8001c22 <XMC_USBD_EndpointConfigure+0xc2>
 8001dd4:	20000878 	.word	0x20000878
 8001dd8:	30000000 	.word	0x30000000

08001ddc <XMC_USBD_Init>:
{
 8001ddc:	b530      	push	{r4, r5, lr}
  usbd_init = obj;
 8001dde:	4d52      	ldr	r5, [pc, #328]	; (8001f28 <XMC_USBD_Init+0x14c>)
{
 8001de0:	b083      	sub	sp, #12
 8001de2:	4604      	mov	r4, r0
  XMC_SCU_RESET_DeassertPeripheralReset(XMC_SCU_PERIPHERAL_RESET_USB0);
 8001de4:	4851      	ldr	r0, [pc, #324]	; (8001f2c <XMC_USBD_Init+0x150>)
 8001de6:	f001 f9ad 	bl	8003144 <XMC_SCU_RESET_DeassertPeripheralReset>
  XMC_SCU_POWER_EnableUsb();
 8001dea:	f001 fbff 	bl	80035ec <XMC_SCU_POWER_EnableUsb>
  usbd_init = obj;
 8001dee:	f8c5 4208 	str.w	r4, [r5, #520]	; 0x208
  for(i = 0U;i < (uint32_t)XMC_USBD_NUM_EPS;i++)
 8001df2:	f505 7309 	add.w	r3, r5, #548	; 0x224
 8001df6:	f505 7102 	add.w	r1, r5, #520	; 0x208
 8001dfa:	f505 7010 	add.w	r0, r5, #576	; 0x240
	  XMC_USBD_EP_OUT_BUFFERSIZE[i] = XMC_USBD_EP0_BUFFER_SIZE;
 8001dfe:	2240      	movs	r2, #64	; 0x40
 8001e00:	f843 2f04 	str.w	r2, [r3, #4]!
  for(i = 0U;i < (uint32_t)XMC_USBD_NUM_EPS;i++)
 8001e04:	4283      	cmp	r3, r0
	  XMC_USBD_EP_IN_BUFFERSIZE[i] 	= XMC_USBD_EP0_BUFFER_SIZE;
 8001e06:	f841 2f04 	str.w	r2, [r1, #4]!
  for(i = 0U;i < (uint32_t)XMC_USBD_NUM_EPS;i++)
 8001e0a:	d1f9      	bne.n	8001e00 <XMC_USBD_Init+0x24>
  memset((void*)&xmc_device,0x0U,sizeof(XMC_USBD_DEVICE_t));
 8001e0c:	f44f 7202 	mov.w	r2, #520	; 0x208
 8001e10:	2100      	movs	r1, #0
 8001e12:	4845      	ldr	r0, [pc, #276]	; (8001f28 <XMC_USBD_Init+0x14c>)
 8001e14:	f002 fcb6 	bl	8004784 <memset>
  XMC_USBD_BASE_ADDRESS = (uint8_t *)(obj->usbd);
 8001e18:	6823      	ldr	r3, [r4, #0]
  xmc_device.DeviceEvent_cb = obj->cb_xmc_device_event;
 8001e1a:	6861      	ldr	r1, [r4, #4]
 8001e1c:	4a44      	ldr	r2, [pc, #272]	; (8001f30 <XMC_USBD_Init+0x154>)
 8001e1e:	f8c5 1200 	str.w	r1, [r5, #512]	; 0x200
  xmc_device.EndpointEvent_cb = obj->cb_endpoint_event;
 8001e22:	68a1      	ldr	r1, [r4, #8]
 8001e24:	f8c5 1204 	str.w	r1, [r5, #516]	; 0x204
  xmc_device.device_register = ((dwc_otg_device_global_regs_t*)(XMC_USBD_BASE_ADDRESS + DWC_DEV_GLOBAL_REG_OFFSET));
 8001e28:	f503 6100 	add.w	r1, r3, #2048	; 0x800
 8001e2c:	e9c5 3168 	strd	r3, r1, [r5, #416]	; 0x1a0
  for (i = 0U;i < (uint32_t)XMC_USBD_NUM_EPS;i++)
 8001e30:	f102 001c 	add.w	r0, r2, #28
 8001e34:	f503 6110 	add.w	r1, r3, #2304	; 0x900
    xmc_device.endpoint_in_register[i] = (dwc_otg_dev_in_ep_regs_t*)(XMC_USBD_BASE_ADDRESS + DWC_DEV_IN_EP_REG_OFFSET +
 8001e38:	f842 1b04 	str.w	r1, [r2], #4
  for (i = 0U;i < (uint32_t)XMC_USBD_NUM_EPS;i++)
 8001e3c:	4282      	cmp	r2, r0
 8001e3e:	f101 0120 	add.w	r1, r1, #32
 8001e42:	d1f9      	bne.n	8001e38 <XMC_USBD_Init+0x5c>
 8001e44:	4a3b      	ldr	r2, [pc, #236]	; (8001f34 <XMC_USBD_Init+0x158>)
 8001e46:	f503 6130 	add.w	r1, r3, #2816	; 0xb00
 8001e4a:	f102 001c 	add.w	r0, r2, #28
    xmc_device.endpoint_out_register[i] = (dwc_otg_dev_out_ep_regs_t*)(XMC_USBD_BASE_ADDRESS +
 8001e4e:	f842 1b04 	str.w	r1, [r2], #4
  for (i = 0U;i < (uint32_t)XMC_USBD_NUM_EPS;i++)
 8001e52:	4282      	cmp	r2, r0
 8001e54:	f101 0120 	add.w	r1, r1, #32
 8001e58:	d1f9      	bne.n	8001e4e <XMC_USBD_Init+0x72>
 8001e5a:	4a37      	ldr	r2, [pc, #220]	; (8001f38 <XMC_USBD_Init+0x15c>)
 8001e5c:	f503 5180 	add.w	r1, r3, #4096	; 0x1000
 8001e60:	f102 001c 	add.w	r0, r2, #28
    xmc_device.fifo[i] = (uint32_t*)(XMC_USBD_BASE_ADDRESS +
 8001e64:	f842 1b04 	str.w	r1, [r2], #4
  for (i = 0U;i < (uint32_t)XMC_USBD_NUM_TX_FIFOS;i++)
 8001e68:	4282      	cmp	r2, r0
 8001e6a:	f501 5180 	add.w	r1, r1, #4096	; 0x1000
 8001e6e:	d1f9      	bne.n	8001e64 <XMC_USBD_Init+0x88>
  if(obj->usbd_transfer_mode == XMC_USBD_USE_DMA)
 8001e70:	7b61      	ldrb	r1, [r4, #13]
  gahbcfg.d32 = xmc_device.global_register->gahbcfg;
 8001e72:	6898      	ldr	r0, [r3, #8]
  if(obj->usbd_transfer_mode == XMC_USBD_USE_DMA)
 8001e74:	fab1 f281 	clz	r2, r1
 8001e78:	0952      	lsrs	r2, r2, #5
  gahbcfg.b.glblintrmsk = 1U; /* enable interrupts ( global mask ) */
 8001e7a:	0152      	lsls	r2, r2, #5
 8001e7c:	f000 045e 	and.w	r4, r0, #94	; 0x5e
 8001e80:	f062 027e 	orn	r2, r2, #126	; 0x7e
 8001e84:	4322      	orrs	r2, r4
 8001e86:	f362 0007 	bfi	r0, r2, #0, #8
  xmc_device.global_register->gahbcfg = gahbcfg.d32;
 8001e8a:	6098      	str	r0, [r3, #8]
  gusbcfg.d32= xmc_device.global_register->gusbcfg;
 8001e8c:	68da      	ldr	r2, [r3, #12]
  gusbcfg.b.srpcap = 1U; /* enable session request protocoll */
 8001e8e:	f042 4280 	orr.w	r2, r2, #1073741824	; 0x40000000
 8001e92:	f442 7280 	orr.w	r2, r2, #256	; 0x100
  xmc_device.global_register->gusbcfg = gusbcfg.d32;
 8001e96:	60da      	str	r2, [r3, #12]
  dcfg.d32 = xmc_device.device_register->dcfg;
 8001e98:	f8d3 2800 	ldr.w	r2, [r3, #2048]	; 0x800
  dcfg.b.devspd = XMC_USBD_DCFG_DEVSPD_FS;
 8001e9c:	f422 0200 	bic.w	r2, r2, #8388608	; 0x800000
 8001ea0:	f022 0203 	bic.w	r2, r2, #3
 8001ea4:	f042 0203 	orr.w	r2, r2, #3
  xmc_device.device_register->dcfg = dcfg.d32;
 8001ea8:	f8c3 2800 	str.w	r2, [r3, #2048]	; 0x800
  dctl.d32 = xmc_device.device_register->dctl;
 8001eac:	f8d3 2804 	ldr.w	r2, [r3, #2052]	; 0x804
  data.d32 = 0U;
 8001eb0:	2400      	movs	r4, #0
  dctl.b.sftdiscon = 1U; /* disconnect the device until its connected by the user */
 8001eb2:	f042 0202 	orr.w	r2, r2, #2
  xmc_device.device_register->dctl = dctl.d32;
 8001eb6:	f8c3 2804 	str.w	r2, [r3, #2052]	; 0x804
  data.d32 = 0U;
 8001eba:	9401      	str	r4, [sp, #4]
  data.b.txfflsh = 1U;
 8001ebc:	9a01      	ldr	r2, [sp, #4]
 8001ebe:	f042 0220 	orr.w	r2, r2, #32
 8001ec2:	9201      	str	r2, [sp, #4]
  data.b.txfnum = fifo_num;
 8001ec4:	9a01      	ldr	r2, [sp, #4]
 8001ec6:	2010      	movs	r0, #16
 8001ec8:	f360 128a 	bfi	r2, r0, #6, #5
 8001ecc:	9201      	str	r2, [sp, #4]
  xmc_device.global_register->grstctl = data.d32;
 8001ece:	9a01      	ldr	r2, [sp, #4]
 8001ed0:	611a      	str	r2, [r3, #16]
   data.d32 = xmc_device.global_register->grstctl;
 8001ed2:	691a      	ldr	r2, [r3, #16]
 8001ed4:	9201      	str	r2, [sp, #4]
  } while (data.b.txfflsh);
 8001ed6:	9a01      	ldr	r2, [sp, #4]
 8001ed8:	0695      	lsls	r5, r2, #26
 8001eda:	f3c2 1040 	ubfx	r0, r2, #5, #1
 8001ede:	d4f8      	bmi.n	8001ed2 <XMC_USBD_Init+0xf6>
	data.d32 = 0U;
 8001ee0:	9000      	str	r0, [sp, #0]
  data.b.rxfflsh = 1U;
 8001ee2:	9a00      	ldr	r2, [sp, #0]
 8001ee4:	f042 0210 	orr.w	r2, r2, #16
 8001ee8:	9200      	str	r2, [sp, #0]
  xmc_device.global_register->grstctl = data.d32;
 8001eea:	9a00      	ldr	r2, [sp, #0]
 8001eec:	611a      	str	r2, [r3, #16]
    data.d32 = xmc_device.global_register->grstctl;
 8001eee:	691a      	ldr	r2, [r3, #16]
 8001ef0:	9200      	str	r2, [sp, #0]
  } while (data.b.rxfflsh);
 8001ef2:	9a00      	ldr	r2, [sp, #0]
 8001ef4:	06d4      	lsls	r4, r2, #27
 8001ef6:	f3c2 1000 	ubfx	r0, r2, #4, #1
 8001efa:	d4f8      	bmi.n	8001eee <XMC_USBD_Init+0x112>
  if(obj->usbd_transfer_mode == XMC_USBD_USE_FIFO)
 8001efc:	f1a1 0201 	sub.w	r2, r1, #1
 8001f00:	fab2 f282 	clz	r2, r2
 8001f04:	0952      	lsrs	r2, r2, #5
 8001f06:	0112      	lsls	r2, r2, #4
  gintmsk.b.inepintr = 1U;
 8001f08:	f042 4240 	orr.w	r2, r2, #3221225472	; 0xc0000000
 8001f0c:	f442 2243 	orr.w	r2, r2, #798720	; 0xc3000
 8001f10:	f442 6240 	orr.w	r2, r2, #3072	; 0xc00
  xmc_device.global_register->gintsts = 0xFFFFFFFFU; /* clear all interrupts */
 8001f14:	f04f 31ff 	mov.w	r1, #4294967295	; 0xffffffff
  gintmsk.b.inepintr = 1U;
 8001f18:	f042 020e 	orr.w	r2, r2, #14
  xmc_device.global_register->gintmsk = 0U; /* disable all interrupts */
 8001f1c:	6198      	str	r0, [r3, #24]
  xmc_device.global_register->gintsts = 0xFFFFFFFFU; /* clear all interrupts */
 8001f1e:	6159      	str	r1, [r3, #20]
  xmc_device.global_register->gintmsk = gintmsk.d32;
 8001f20:	619a      	str	r2, [r3, #24]
}
 8001f22:	b003      	add	sp, #12
 8001f24:	bd30      	pop	{r4, r5, pc}
 8001f26:	bf00      	nop
 8001f28:	20000878 	.word	0x20000878
 8001f2c:	20000080 	.word	0x20000080
 8001f30:	20000a20 	.word	0x20000a20
 8001f34:	20000a3c 	.word	0x20000a3c
 8001f38:	20000a58 	.word	0x20000a58

08001f3c <XMC_USBD_EndpointRead>:
{
 8001f3c:	b5f8      	push	{r3, r4, r5, r6, r7, lr}
  if (length > ep->outBytesAvailable)
 8001f3e:	4e0e      	ldr	r6, [pc, #56]	; (8001f78 <XMC_USBD_EndpointRead+0x3c>)
 8001f40:	2434      	movs	r4, #52	; 0x34
 8001f42:	fb04 6400 	mla	r4, r4, r0, r6
{
 8001f46:	4607      	mov	r7, r0
  if (length > ep->outBytesAvailable)
 8001f48:	6923      	ldr	r3, [r4, #16]
 8001f4a:	429a      	cmp	r2, r3
 8001f4c:	bf28      	it	cs
 8001f4e:	461a      	movcs	r2, r3
  memcpy(buffer,&ep->outBuffer[ep->outOffset],length);
 8001f50:	4608      	mov	r0, r1
 8001f52:	69a3      	ldr	r3, [r4, #24]
 8001f54:	68e1      	ldr	r1, [r4, #12]
 8001f56:	4419      	add	r1, r3
 8001f58:	4615      	mov	r5, r2
 8001f5a:	f002 fb79 	bl	8004650 <memcpy>
  ep->outBytesAvailable -= length;
 8001f5e:	6923      	ldr	r3, [r4, #16]
 8001f60:	1b5b      	subs	r3, r3, r5
 8001f62:	6123      	str	r3, [r4, #16]
  if (ep->outBytesAvailable)
 8001f64:	b10b      	cbz	r3, 8001f6a <XMC_USBD_EndpointRead+0x2e>
    ep->outOffset += length;
 8001f66:	69a3      	ldr	r3, [r4, #24]
 8001f68:	442b      	add	r3, r5
 8001f6a:	2034      	movs	r0, #52	; 0x34
 8001f6c:	fb00 6607 	mla	r6, r0, r7, r6
}
 8001f70:	4628      	mov	r0, r5
 8001f72:	61b3      	str	r3, [r6, #24]
 8001f74:	bdf8      	pop	{r3, r4, r5, r6, r7, pc}
 8001f76:	bf00      	nop
 8001f78:	20000878 	.word	0x20000878

08001f7c <XMC_USBD_EndpointWrite>:
{
 8001f7c:	b5f8      	push	{r3, r4, r5, r6, r7, lr}
  if (!ep->isConfigured)
 8001f7e:	4f16      	ldr	r7, [pc, #88]	; (8001fd8 <XMC_USBD_EndpointWrite+0x5c>)
 8001f80:	f000 060f 	and.w	r6, r0, #15
 8001f84:	2434      	movs	r4, #52	; 0x34
 8001f86:	fb04 7406 	mla	r4, r4, r6, r7
 8001f8a:	7923      	ldrb	r3, [r4, #4]
 8001f8c:	0758      	lsls	r0, r3, #29
 8001f8e:	d504      	bpl.n	8001f9a <XMC_USBD_EndpointWrite+0x1e>
  else if (ep->inInUse == 1U)
 8001f90:	6863      	ldr	r3, [r4, #4]
 8001f92:	071b      	lsls	r3, r3, #28
 8001f94:	d503      	bpl.n	8001f9e <XMC_USBD_EndpointWrite+0x22>
    result=(int32_t)0;
 8001f96:	2000      	movs	r0, #0
}
 8001f98:	bdf8      	pop	{r3, r4, r5, r6, r7, pc}
    result = (int32_t)XMC_USBD_STATUS_ERROR;
 8001f9a:	2001      	movs	r0, #1
}
 8001f9c:	bdf8      	pop	{r3, r4, r5, r6, r7, pc}
    if (length > ep->inBufferSize)
 8001f9e:	6a25      	ldr	r5, [r4, #32]
		memcpy(ep->inBuffer,(const void *)buffer,length);
 8001fa0:	69e0      	ldr	r0, [r4, #28]
 8001fa2:	4295      	cmp	r5, r2
 8001fa4:	bf28      	it	cs
 8001fa6:	4615      	movcs	r5, r2
 8001fa8:	462a      	mov	r2, r5
 8001faa:	f002 fb51 	bl	8004650 <memcpy>
		ep->xferBuffer = ep->inBuffer;
 8001fae:	69e3      	ldr	r3, [r4, #28]
 8001fb0:	6263      	str	r3, [r4, #36]	; 0x24
    ep->inInUse = 1U;
 8001fb2:	6863      	ldr	r3, [r4, #4]
    ep->xferTotal = length;
 8001fb4:	6325      	str	r5, [r4, #48]	; 0x30
  XMC_USBD_EP_t * ep = &xmc_device.ep[ep_num & (uint8_t)XMC_USBD_EP_NUM_MASK];
 8001fb6:	eb06 0046 	add.w	r0, r6, r6, lsl #1
    ep->xferLength = 0U;
 8001fba:	2200      	movs	r2, #0
    ep->inInUse = 1U;
 8001fbc:	f043 0308 	orr.w	r3, r3, #8
  XMC_USBD_EP_t * ep = &xmc_device.ep[ep_num & (uint8_t)XMC_USBD_EP_NUM_MASK];
 8001fc0:	eb06 0080 	add.w	r0, r6, r0, lsl #2
    XMC_USBD_lStartWriteXfer(ep);
 8001fc4:	eb07 0080 	add.w	r0, r7, r0, lsl #2
    ep->xferCount = 0U;
 8001fc8:	e9c4 220a 	strd	r2, r2, [r4, #40]	; 0x28
    ep->inInUse = 1U;
 8001fcc:	6063      	str	r3, [r4, #4]
    XMC_USBD_lStartWriteXfer(ep);
 8001fce:	f7ff fc23 	bl	8001818 <XMC_USBD_lStartWriteXfer>
    result=(int32_t)ep->xferTotal;
 8001fd2:	6b20      	ldr	r0, [r4, #48]	; 0x30
}
 8001fd4:	bdf8      	pop	{r3, r4, r5, r6, r7, pc}
 8001fd6:	bf00      	nop
 8001fd8:	20000878 	.word	0x20000878

08001fdc <XMC_USBD_DeviceGetState>:
{
 8001fdc:	b570      	push	{r4, r5, r6, lr}
  state.connected = xmc_device.IsConnected;
 8001fde:	4c1b      	ldr	r4, [pc, #108]	; (800204c <XMC_USBD_DeviceGetState+0x70>)
  for (i = 0U; i < (uint8_t)obj->usbd_max_num_eps; i++)
 8001fe0:	7b05      	ldrb	r5, [r0, #12]
  state.connected = xmc_device.IsConnected;
 8001fe2:	f894 31fe 	ldrb.w	r3, [r4, #510]	; 0x1fe
  XMC_USBD_STATE_t state={0U};
 8001fe6:	2000      	movs	r0, #0
  state.connected = xmc_device.IsConnected;
 8001fe8:	f003 0601 	and.w	r6, r3, #1
  for (i = 0U; i < (uint8_t)obj->usbd_max_num_eps; i++)
 8001fec:	b35d      	cbz	r5, 8002046 <XMC_USBD_DeviceGetState+0x6a>
 8001fee:	4602      	mov	r2, r0
  uint8_t result = 0U;
 8001ff0:	4684      	mov	ip, r0
 8001ff2:	4603      	mov	r3, r0
    if (xmc_device.ep[i].inInUse || xmc_device.ep[i].outInUse)
 8001ff4:	f04f 0e34 	mov.w	lr, #52	; 0x34
 8001ff8:	e009      	b.n	800200e <XMC_USBD_DeviceGetState+0x32>
 8001ffa:	685b      	ldr	r3, [r3, #4]
  for (i = 0U; i < (uint8_t)obj->usbd_max_num_eps; i++)
 8001ffc:	3201      	adds	r2, #1
      result = 1U;
 8001ffe:	f013 0f10 	tst.w	r3, #16
  for (i = 0U; i < (uint8_t)obj->usbd_max_num_eps; i++)
 8002002:	b2d3      	uxtb	r3, r2
      result = 1U;
 8002004:	bf18      	it	ne
 8002006:	f04f 0c01 	movne.w	ip, #1
  for (i = 0U; i < (uint8_t)obj->usbd_max_num_eps; i++)
 800200a:	429d      	cmp	r5, r3
 800200c:	d90a      	bls.n	8002024 <XMC_USBD_DeviceGetState+0x48>
    if (xmc_device.ep[i].inInUse || xmc_device.ep[i].outInUse)
 800200e:	fb0e 4303 	mla	r3, lr, r3, r4
 8002012:	6859      	ldr	r1, [r3, #4]
 8002014:	0709      	lsls	r1, r1, #28
 8002016:	d5f0      	bpl.n	8001ffa <XMC_USBD_DeviceGetState+0x1e>
  for (i = 0U; i < (uint8_t)obj->usbd_max_num_eps; i++)
 8002018:	3201      	adds	r2, #1
 800201a:	b2d3      	uxtb	r3, r2
 800201c:	429d      	cmp	r5, r3
      result = 1U;
 800201e:	f04f 0c01 	mov.w	ip, #1
  for (i = 0U; i < (uint8_t)obj->usbd_max_num_eps; i++)
 8002022:	d8f4      	bhi.n	800200e <XMC_USBD_DeviceGetState+0x32>
  state.active = XMC_USBD_lDeviceActive(obj);
 8002024:	f00c 0c01 	and.w	ip, ip, #1
  state.powered = xmc_device.IsPowered;
 8002028:	f894 31fe 	ldrb.w	r3, [r4, #510]	; 0x1fe
 800202c:	f3c3 0380 	ubfx	r3, r3, #2, #1
  return state;
 8002030:	f043 0308 	orr.w	r3, r3, #8
 8002034:	ea43 0346 	orr.w	r3, r3, r6, lsl #1
 8002038:	ea43 0c8c 	orr.w	ip, r3, ip, lsl #2
 800203c:	f00c 0c1f 	and.w	ip, ip, #31
 8002040:	f36c 0007 	bfi	r0, ip, #0, #8
}
 8002044:	bd70      	pop	{r4, r5, r6, pc}
  for (i = 0U; i < (uint8_t)obj->usbd_max_num_eps; i++)
 8002046:	4684      	mov	ip, r0
 8002048:	e7ee      	b.n	8002028 <XMC_USBD_DeviceGetState+0x4c>
 800204a:	bf00      	nop
 800204c:	20000878 	.word	0x20000878

08002050 <XMC_USBD_lDeviceActive>:
{
 8002050:	b430      	push	{r4, r5}
  for (i = 0U; i < (uint8_t)obj->usbd_max_num_eps; i++)
 8002052:	7b04      	ldrb	r4, [r0, #12]
 8002054:	b1dc      	cbz	r4, 800208e <XMC_USBD_lDeviceActive+0x3e>
 8002056:	2300      	movs	r3, #0
 8002058:	4d0e      	ldr	r5, [pc, #56]	; (8002094 <XMC_USBD_lDeviceActive+0x44>)
  uint8_t result = 0U;
 800205a:	4618      	mov	r0, r3
    if (xmc_device.ep[i].inInUse || xmc_device.ep[i].outInUse)
 800205c:	f04f 0c34 	mov.w	ip, #52	; 0x34
 8002060:	e008      	b.n	8002074 <XMC_USBD_lDeviceActive+0x24>
 8002062:	6852      	ldr	r2, [r2, #4]
  for (i = 0U; i < (uint8_t)obj->usbd_max_num_eps; i++)
 8002064:	3301      	adds	r3, #1
      result = 1U;
 8002066:	f012 0f10 	tst.w	r2, #16
  for (i = 0U; i < (uint8_t)obj->usbd_max_num_eps; i++)
 800206a:	b2da      	uxtb	r2, r3
      result = 1U;
 800206c:	bf18      	it	ne
 800206e:	2001      	movne	r0, #1
  for (i = 0U; i < (uint8_t)obj->usbd_max_num_eps; i++)
 8002070:	42a2      	cmp	r2, r4
 8002072:	d20a      	bcs.n	800208a <XMC_USBD_lDeviceActive+0x3a>
    if (xmc_device.ep[i].inInUse || xmc_device.ep[i].outInUse)
 8002074:	fb0c 5203 	mla	r2, ip, r3, r5
 8002078:	6851      	ldr	r1, [r2, #4]
 800207a:	0709      	lsls	r1, r1, #28
 800207c:	d5f1      	bpl.n	8002062 <XMC_USBD_lDeviceActive+0x12>
  for (i = 0U; i < (uint8_t)obj->usbd_max_num_eps; i++)
 800207e:	3301      	adds	r3, #1
 8002080:	b2da      	uxtb	r2, r3
 8002082:	42a2      	cmp	r2, r4
      result = 1U;
 8002084:	f04f 0001 	mov.w	r0, #1
  for (i = 0U; i < (uint8_t)obj->usbd_max_num_eps; i++)
 8002088:	d3f4      	bcc.n	8002074 <XMC_USBD_lDeviceActive+0x24>
}
 800208a:	bc30      	pop	{r4, r5}
 800208c:	4770      	bx	lr
  uint8_t result = 0U;
 800208e:	4620      	mov	r0, r4
}
 8002090:	bc30      	pop	{r4, r5}
 8002092:	4770      	bx	lr
 8002094:	20000878 	.word	0x20000878

08002098 <XMC_USBD_IRQHandler>:
{
 8002098:	e92d 4ff0 	stmdb	sp!, {r4, r5, r6, r7, r8, r9, sl, fp, lr}
  gintmsk.d32 = xmc_device.global_register->gintmsk;
 800209c:	4c94      	ldr	r4, [pc, #592]	; (80022f0 <XMC_USBD_IRQHandler+0x258>)
 800209e:	f8d4 31a0 	ldr.w	r3, [r4, #416]	; 0x1a0
 80020a2:	699e      	ldr	r6, [r3, #24]
  data.d32 = xmc_device.global_register->gintsts & gintmsk.d32;
 80020a4:	695d      	ldr	r5, [r3, #20]
{
 80020a6:	b08d      	sub	sp, #52	; 0x34
  data.d32 = xmc_device.global_register->gintsts & gintmsk.d32;
 80020a8:	4035      	ands	r5, r6
  if (data.b.sofintr)
 80020aa:	b2eb      	uxtb	r3, r5
 80020ac:	9300      	str	r3, [sp, #0]
 80020ae:	072b      	lsls	r3, r5, #28
{
 80020b0:	4681      	mov	r9, r0
  if (data.b.sofintr)
 80020b2:	d507      	bpl.n	80020c4 <XMC_USBD_IRQHandler+0x2c>
    xmc_device.DeviceEvent_cb(XMC_USBD_EVENT_SOF);
 80020b4:	f8d4 3200 	ldr.w	r3, [r4, #512]	; 0x200
 80020b8:	2009      	movs	r0, #9
 80020ba:	4798      	blx	r3
	xmc_device.global_register->gintsts = clear.d32;
 80020bc:	f8d4 31a0 	ldr.w	r3, [r4, #416]	; 0x1a0
 80020c0:	2208      	movs	r2, #8
 80020c2:	615a      	str	r2, [r3, #20]
  if(obj->usbd_transfer_mode == XMC_USBD_USE_FIFO)
 80020c4:	f899 300d 	ldrb.w	r3, [r9, #13]
 80020c8:	2b01      	cmp	r3, #1
 80020ca:	d046      	beq.n	800215a <XMC_USBD_IRQHandler+0xc2>
  if (data.b.erlysuspend)
 80020cc:	0568      	lsls	r0, r5, #21
 80020ce:	f3c5 2607 	ubfx	r6, r5, #8, #8
 80020d2:	d504      	bpl.n	80020de <XMC_USBD_IRQHandler+0x46>
	xmc_device.global_register->gintsts = clear.d32;
 80020d4:	f8d4 31a0 	ldr.w	r3, [r4, #416]	; 0x1a0
 80020d8:	f44f 6280 	mov.w	r2, #1024	; 0x400
 80020dc:	615a      	str	r2, [r3, #20]
  if (data.b.usbsuspend)
 80020de:	0731      	lsls	r1, r6, #28
 80020e0:	d508      	bpl.n	80020f4 <XMC_USBD_IRQHandler+0x5c>
    xmc_device.DeviceEvent_cb(XMC_USBD_EVENT_SUSPEND);
 80020e2:	f8d4 3200 	ldr.w	r3, [r4, #512]	; 0x200
 80020e6:	2006      	movs	r0, #6
 80020e8:	4798      	blx	r3
	xmc_device.global_register->gintsts = clear.d32;
 80020ea:	f8d4 31a0 	ldr.w	r3, [r4, #416]	; 0x1a0
 80020ee:	f44f 6200 	mov.w	r2, #2048	; 0x800
 80020f2:	615a      	str	r2, [r3, #20]
  if (data.b.wkupintr)
 80020f4:	2d00      	cmp	r5, #0
 80020f6:	ea4f 6715 	mov.w	r7, r5, lsr #24
 80020fa:	da08      	bge.n	800210e <XMC_USBD_IRQHandler+0x76>
    xmc_device.DeviceEvent_cb(XMC_USBD_EVENT_REMOTE_WAKEUP);
 80020fc:	f8d4 3200 	ldr.w	r3, [r4, #512]	; 0x200
 8002100:	2008      	movs	r0, #8
 8002102:	4798      	blx	r3
	xmc_device.global_register->gintsts = clear.d32;
 8002104:	f8d4 31a0 	ldr.w	r3, [r4, #416]	; 0x1a0
 8002108:	f04f 4200 	mov.w	r2, #2147483648	; 0x80000000
 800210c:	615a      	str	r2, [r3, #20]
  if (data.b.sessreqintr)
 800210e:	067a      	lsls	r2, r7, #25
 8002110:	d50e      	bpl.n	8002130 <XMC_USBD_IRQHandler+0x98>
    xmc_device.IsPowered = 1U;
 8002112:	f894 31fe 	ldrb.w	r3, [r4, #510]	; 0x1fe
 8002116:	f043 0304 	orr.w	r3, r3, #4
 800211a:	f884 31fe 	strb.w	r3, [r4, #510]	; 0x1fe
    xmc_device.DeviceEvent_cb(XMC_USBD_EVENT_POWER_ON);
 800211e:	2000      	movs	r0, #0
 8002120:	f8d4 3200 	ldr.w	r3, [r4, #512]	; 0x200
 8002124:	4798      	blx	r3
	xmc_device.global_register->gintsts = clear.d32;
 8002126:	f8d4 31a0 	ldr.w	r3, [r4, #416]	; 0x1a0
 800212a:	f04f 4280 	mov.w	r2, #1073741824	; 0x40000000
 800212e:	615a      	str	r2, [r3, #20]
  if (data.b.usbreset)
 8002130:	06f3      	lsls	r3, r6, #27
 8002132:	f100 8167 	bmi.w	8002404 <XMC_USBD_IRQHandler+0x36c>
  if (data.b.enumdone)
 8002136:	06b1      	lsls	r1, r6, #26
 8002138:	f100 8147 	bmi.w	80023ca <XMC_USBD_IRQHandler+0x332>
  if (data.b.inepint)
 800213c:	f3c5 4307 	ubfx	r3, r5, #16, #8
 8002140:	036a      	lsls	r2, r5, #13
 8002142:	9302      	str	r3, [sp, #8]
 8002144:	f100 80d6 	bmi.w	80022f4 <XMC_USBD_IRQHandler+0x25c>
  if (data.b.outepintr)
 8002148:	9b02      	ldr	r3, [sp, #8]
 800214a:	071b      	lsls	r3, r3, #28
 800214c:	d435      	bmi.n	80021ba <XMC_USBD_IRQHandler+0x122>
	if (data.b.otgintr)
 800214e:	9b00      	ldr	r3, [sp, #0]
 8002150:	075f      	lsls	r7, r3, #29
 8002152:	d41d      	bmi.n	8002190 <XMC_USBD_IRQHandler+0xf8>
}
 8002154:	b00d      	add	sp, #52	; 0x34
 8002156:	e8bd 8ff0 	ldmia.w	sp!, {r4, r5, r6, r7, r8, r9, sl, fp, pc}
    if (data.b.rxstsqlvl)
 800215a:	9b00      	ldr	r3, [sp, #0]
 800215c:	06df      	lsls	r7, r3, #27
 800215e:	d5b5      	bpl.n	80020cc <XMC_USBD_IRQHandler+0x34>
      xmc_device.global_register->gintmsk = gintmsk.d32;
 8002160:	f8d4 31a0 	ldr.w	r3, [r4, #416]	; 0x1a0
      gintmsk.b.rxstsqlvl = 0U;
 8002164:	f36f 1604 	bfc	r6, #4, #1
      xmc_device.global_register->gintmsk = gintmsk.d32;
 8002168:	619e      	str	r6, [r3, #24]
  data.d32 = xmc_device.global_register->grxstsp;
 800216a:	6a18      	ldr	r0, [r3, #32]
  switch (data.b.pktsts)
 800216c:	f3c0 4243 	ubfx	r2, r0, #17, #4
 8002170:	f002 020b 	and.w	r2, r2, #11
 8002174:	2a02      	cmp	r2, #2
 8002176:	d107      	bne.n	8002188 <XMC_USBD_IRQHandler+0xf0>
      XMC_USBD_lReadFifo((uint32_t)data.b.epnum,(uint32_t)data.b.bcnt);
 8002178:	f3c0 110a 	ubfx	r1, r0, #4, #11
 800217c:	f000 000f 	and.w	r0, r0, #15
 8002180:	f7ff faae 	bl	80016e0 <XMC_USBD_lReadFifo>
      xmc_device.global_register->gintmsk = gintmsk.d32;
 8002184:	f8d4 31a0 	ldr.w	r3, [r4, #416]	; 0x1a0
      gintmsk.b.rxstsqlvl = 1U;
 8002188:	f046 0610 	orr.w	r6, r6, #16
      xmc_device.global_register->gintmsk = gintmsk.d32;
 800218c:	619e      	str	r6, [r3, #24]
 800218e:	e79d      	b.n	80020cc <XMC_USBD_IRQHandler+0x34>
  data.d32 = xmc_device.global_register->gotgint;
 8002190:	f8d4 31a0 	ldr.w	r3, [r4, #416]	; 0x1a0
 8002194:	685d      	ldr	r5, [r3, #4]
  if (data.b.sesenddet)
 8002196:	076e      	lsls	r6, r5, #29
 8002198:	d50b      	bpl.n	80021b2 <XMC_USBD_IRQHandler+0x11a>
		xmc_device.IsPowered = 0U;
 800219a:	f894 31fe 	ldrb.w	r3, [r4, #510]	; 0x1fe
		xmc_device.DeviceEvent_cb(XMC_USBD_EVENT_POWER_OFF);
 800219e:	f8d4 2200 	ldr.w	r2, [r4, #512]	; 0x200
		xmc_device.IsPowered = 0U;
 80021a2:	f36f 0382 	bfc	r3, #2, #1
 80021a6:	f884 31fe 	strb.w	r3, [r4, #510]	; 0x1fe
		xmc_device.DeviceEvent_cb(XMC_USBD_EVENT_POWER_OFF);
 80021aa:	2001      	movs	r0, #1
 80021ac:	4790      	blx	r2
  xmc_device.global_register->gotgint = clear.d32;
 80021ae:	f8d4 31a0 	ldr.w	r3, [r4, #416]	; 0x1a0
 80021b2:	605d      	str	r5, [r3, #4]
}
 80021b4:	b00d      	add	sp, #52	; 0x34
 80021b6:	e8bd 8ff0 	ldmia.w	sp!, {r4, r5, r6, r7, r8, r9, sl, fp, pc}
  daint.d32 = xmc_device.device_register->daint;
 80021ba:	f8d4 21a4 	ldr.w	r2, [r4, #420]	; 0x1a4
 80021be:	6991      	ldr	r1, [r2, #24]
  daintmsk.d32 = xmc_device.device_register->daintmsk;
 80021c0:	69d3      	ldr	r3, [r2, #28]
  doepmsk.d32 = xmc_device.device_register->doepmsk;  
 80021c2:	6952      	ldr	r2, [r2, #20]
 80021c4:	9202      	str	r2, [sp, #8]
  mask = daint.ep.out & daintmsk.ep.out;
 80021c6:	f3c3 4a0f 	ubfx	sl, r3, #16, #16
  while ((uint16_t)mask >> ep_num)
 80021ca:	ea1a 4a11 	ands.w	sl, sl, r1, lsr #16
  doeptsiz.d32 = 0U;
 80021ce:	f04f 0300 	mov.w	r3, #0
 80021d2:	9301      	str	r3, [sp, #4]
  while ((uint16_t)mask >> ep_num)
 80021d4:	d057      	beq.n	8002286 <XMC_USBD_IRQHandler+0x1ee>
  ep_num = 0U;
 80021d6:	9e01      	ldr	r6, [sp, #4]
  while ((uint16_t)mask >> ep_num)
 80021d8:	4653      	mov	r3, sl
  ep_num = 0U;
 80021da:	4635      	mov	r5, r6
        ep->isStalled = 0U;
 80021dc:	f04f 0834 	mov.w	r8, #52	; 0x34
    if (temp)
 80021e0:	07df      	lsls	r7, r3, #31
 80021e2:	d54a      	bpl.n	800227a <XMC_USBD_IRQHandler+0x1e2>
      doepint.d32 = xmc_device.endpoint_out_register[ep_num]->doepint & doepmsk.d32;
 80021e4:	f106 0b70 	add.w	fp, r6, #112	; 0x70
 80021e8:	eb04 038b 	add.w	r3, r4, fp, lsl #2
 80021ec:	9a02      	ldr	r2, [sp, #8]
 80021ee:	685b      	ldr	r3, [r3, #4]
      if(obj->usbd_transfer_mode == XMC_USBD_USE_DMA)
 80021f0:	f899 100d 	ldrb.w	r1, [r9, #13]
      doepint.d32 = xmc_device.endpoint_out_register[ep_num]->doepint & doepmsk.d32;
 80021f4:	689f      	ldr	r7, [r3, #8]
 80021f6:	4017      	ands	r7, r2
      if(obj->usbd_transfer_mode == XMC_USBD_USE_DMA)
 80021f8:	2900      	cmp	r1, #0
 80021fa:	d166      	bne.n	80022ca <XMC_USBD_IRQHandler+0x232>
        doeptsiz.d32 = xmc_device.endpoint_out_register[ep_num]->doeptsiz;
 80021fc:	691a      	ldr	r2, [r3, #16]
 80021fe:	9201      	str	r2, [sp, #4]
      if (doepint.b.setup)
 8002200:	0738      	lsls	r0, r7, #28
 8002202:	b2fa      	uxtb	r2, r7
 8002204:	d545      	bpl.n	8002292 <XMC_USBD_IRQHandler+0x1fa>
		  (uint32_t)((deptsiz0_data_t*)&doeptsiz)->b.supcnt)*(uint32_t)XMC_USBD_SETUP_SIZE);
 8002206:	9b01      	ldr	r3, [sp, #4]
 8002208:	f3c3 7341 	ubfx	r3, r3, #29, #2
        ep->isStalled = 0U;
 800220c:	fb08 4006 	mla	r0, r8, r6, r4
		  ep->outBytesAvailable = (uint32_t)(((uint32_t)XMC_USBD_SETUP_COUNT -
 8002210:	f1c3 0303 	rsb	r3, r3, #3
 8002214:	00db      	lsls	r3, r3, #3
 8002216:	6103      	str	r3, [r0, #16]
        ep->isStalled = 0U;
 8002218:	7903      	ldrb	r3, [r0, #4]
 800221a:	f361 1345 	bfi	r3, r1, #5, #1
 800221e:	7103      	strb	r3, [r0, #4]
		ep->outInUse = 0U;
 8002220:	fb08 4306 	mla	r3, r8, r6, r4
 8002224:	9203      	str	r2, [sp, #12]
 8002226:	6858      	ldr	r0, [r3, #4]
 8002228:	f36f 1004 	bfc	r0, #4, #1
		xmc_device.EndpointEvent_cb(0U,XMC_USBD_EP_EVENT_SETUP); /* signal endpoint event */
 800222c:	2100      	movs	r1, #0
		ep->outInUse = 0U;
 800222e:	6058      	str	r0, [r3, #4]
		xmc_device.EndpointEvent_cb(0U,XMC_USBD_EP_EVENT_SETUP); /* signal endpoint event */
 8002230:	f8d4 3204 	ldr.w	r3, [r4, #516]	; 0x204
 8002234:	4608      	mov	r0, r1
 8002236:	4798      	blx	r3
  xmc_device.endpoint_out_register[ep_num]->doepint = clear.d32;
 8002238:	eb04 038b 	add.w	r3, r4, fp, lsl #2
      if (doepint.b.xfercompl)
 800223c:	9a03      	ldr	r2, [sp, #12]
  xmc_device.endpoint_out_register[ep_num]->doepint = clear.d32;
 800223e:	685b      	ldr	r3, [r3, #4]
 8002240:	2108      	movs	r1, #8
      if (doepint.b.xfercompl)
 8002242:	07d2      	lsls	r2, r2, #31
  xmc_device.endpoint_out_register[ep_num]->doepint = clear.d32;
 8002244:	6099      	str	r1, [r3, #8]
      if (doepint.b.xfercompl)
 8002246:	d517      	bpl.n	8002278 <XMC_USBD_IRQHandler+0x1e0>
        if(obj->usbd_transfer_mode == XMC_USBD_USE_DMA)
 8002248:	f899 300d 	ldrb.w	r3, [r9, #13]
 800224c:	b31b      	cbz	r3, 8002296 <XMC_USBD_IRQHandler+0x1fe>
        if (ep->xferTotal == ep->xferLength)
 800224e:	fb08 4006 	mla	r0, r8, r6, r4
 8002252:	6b02      	ldr	r2, [r0, #48]	; 0x30
 8002254:	6a83      	ldr	r3, [r0, #40]	; 0x28
 8002256:	429a      	cmp	r2, r3
 8002258:	d130      	bne.n	80022bc <XMC_USBD_IRQHandler+0x224>
          ep->outInUse = 0U;
 800225a:	6843      	ldr	r3, [r0, #4]
 800225c:	f36f 1304 	bfc	r3, #4, #1
 8002260:	6043      	str	r3, [r0, #4]
  xmc_device.endpoint_out_register[ep_num]->doepint = clear.d32;
 8002262:	eb04 0b8b 	add.w	fp, r4, fp, lsl #2
          ep->outBytesAvailable = ep->xferCount;
 8002266:	6ac3      	ldr	r3, [r0, #44]	; 0x2c
 8002268:	6103      	str	r3, [r0, #16]
          xmc_device.EndpointEvent_cb(ep_num,XMC_USBD_EP_EVENT_OUT);
 800226a:	2101      	movs	r1, #1
 800226c:	f8d4 3204 	ldr.w	r3, [r4, #516]	; 0x204
 8002270:	4628      	mov	r0, r5
 8002272:	4798      	blx	r3
  xmc_device.endpoint_out_register[ep_num]->doepint = clear.d32;
 8002274:	f8db 3004 	ldr.w	r3, [fp, #4]
 8002278:	609f      	str	r7, [r3, #8]
    ep_num++;
 800227a:	3501      	adds	r5, #1
 800227c:	b2ed      	uxtb	r5, r5
  while ((uint16_t)mask >> ep_num)
 800227e:	fa5a f305 	asrs.w	r3, sl, r5
 8002282:	462e      	mov	r6, r5
 8002284:	d1ac      	bne.n	80021e0 <XMC_USBD_IRQHandler+0x148>
	xmc_device.global_register->gintsts = clear.d32;
 8002286:	f8d4 31a0 	ldr.w	r3, [r4, #416]	; 0x1a0
 800228a:	f44f 2200 	mov.w	r2, #524288	; 0x80000
 800228e:	615a      	str	r2, [r3, #20]
}
 8002290:	e75d      	b.n	800214e <XMC_USBD_IRQHandler+0xb6>
      if (doepint.b.xfercompl)
 8002292:	07d0      	lsls	r0, r2, #31
 8002294:	d5f0      	bpl.n	8002278 <XMC_USBD_IRQHandler+0x1e0>
          uint32_t bytes = (ep->xferLength - ep->xferCount) - doeptsiz.b.xfersize;
 8002296:	fb08 4106 	mla	r1, r8, r6, r4
 800229a:	9b01      	ldr	r3, [sp, #4]
 800229c:	6a8a      	ldr	r2, [r1, #40]	; 0x28
 800229e:	f3c3 0312 	ubfx	r3, r3, #0, #19
 80022a2:	1ad3      	subs	r3, r2, r3
 80022a4:	6aca      	ldr	r2, [r1, #44]	; 0x2c
          ep->xferCount += bytes;
 80022a6:	62cb      	str	r3, [r1, #44]	; 0x2c
          uint32_t bytes = (ep->xferLength - ep->xferCount) - doeptsiz.b.xfersize;
 80022a8:	1a9b      	subs	r3, r3, r2
          ep->xferBuffer += bytes;
 80022aa:	6a4a      	ldr	r2, [r1, #36]	; 0x24
        if (ep->xferTotal == ep->xferLength)
 80022ac:	fb08 4006 	mla	r0, r8, r6, r4
          ep->xferBuffer += bytes;
 80022b0:	4413      	add	r3, r2
 80022b2:	624b      	str	r3, [r1, #36]	; 0x24
        if (ep->xferTotal == ep->xferLength)
 80022b4:	6b02      	ldr	r2, [r0, #48]	; 0x30
 80022b6:	6a83      	ldr	r3, [r0, #40]	; 0x28
 80022b8:	429a      	cmp	r2, r3
 80022ba:	d0ce      	beq.n	800225a <XMC_USBD_IRQHandler+0x1c2>
  xmc_device.endpoint_out_register[ep_num]->doepint = clear.d32;
 80022bc:	eb04 0b8b 	add.w	fp, r4, fp, lsl #2
          XMC_USBD_lStartReadXfer(ep);
 80022c0:	f7ff fa5e 	bl	8001780 <XMC_USBD_lStartReadXfer>
  xmc_device.endpoint_out_register[ep_num]->doepint = clear.d32;
 80022c4:	f8db 3004 	ldr.w	r3, [fp, #4]
 80022c8:	e7d6      	b.n	8002278 <XMC_USBD_IRQHandler+0x1e0>
      if (doepint.b.setup)
 80022ca:	0738      	lsls	r0, r7, #28
 80022cc:	b2fa      	uxtb	r2, r7
 80022ce:	d50c      	bpl.n	80022ea <XMC_USBD_IRQHandler+0x252>
        ep->isStalled = 0U;
 80022d0:	fb08 4006 	mla	r0, r8, r6, r4
		if(obj->usbd_transfer_mode == XMC_USBD_USE_FIFO)
 80022d4:	2901      	cmp	r1, #1
        ep->isStalled = 0U;
 80022d6:	7903      	ldrb	r3, [r0, #4]
 80022d8:	f36f 1345 	bfc	r3, #5, #1
 80022dc:	7103      	strb	r3, [r0, #4]
		if(obj->usbd_transfer_mode == XMC_USBD_USE_FIFO)
 80022de:	d19f      	bne.n	8002220 <XMC_USBD_IRQHandler+0x188>
			ep->outBytesAvailable += ep->xferCount;
 80022e0:	6903      	ldr	r3, [r0, #16]
 80022e2:	6ac1      	ldr	r1, [r0, #44]	; 0x2c
 80022e4:	440b      	add	r3, r1
 80022e6:	6103      	str	r3, [r0, #16]
 80022e8:	e79a      	b.n	8002220 <XMC_USBD_IRQHandler+0x188>
      if (doepint.b.xfercompl)
 80022ea:	07d1      	lsls	r1, r2, #31
 80022ec:	d4af      	bmi.n	800224e <XMC_USBD_IRQHandler+0x1b6>
 80022ee:	e7c3      	b.n	8002278 <XMC_USBD_IRQHandler+0x1e0>
 80022f0:	20000878 	.word	0x20000878
  daint.d32 = xmc_device.device_register->daint;
 80022f4:	f8d4 31a4 	ldr.w	r3, [r4, #420]	; 0x1a4
 80022f8:	699a      	ldr	r2, [r3, #24]
  diepmsk.d32 = xmc_device.device_register->diepmsk;
 80022fa:	691b      	ldr	r3, [r3, #16]
 80022fc:	9303      	str	r3, [sp, #12]
  while ((uint16_t)mask >> ep_num)
 80022fe:	fa1f fb82 	uxth.w	fp, r2
 8002302:	f1bb 0f00 	cmp.w	fp, #0
 8002306:	d05b      	beq.n	80023c0 <XMC_USBD_IRQHandler+0x328>
  ep_num = 0U;
 8002308:	2500      	movs	r5, #0
  while ((uint16_t)mask >> ep_num)
 800230a:	465b      	mov	r3, fp
 800230c:	4628      	mov	r0, r5
      ((((uint32_t)((uint32_t)xmc_device.device_register->dtknqr4_fifoemptymsk >> ep->address_u.address_st.number) &
 800230e:	f04f 0a34 	mov.w	sl, #52	; 0x34
 8002312:	46c8      	mov	r8, r9
    if ((uint16_t)temp)
 8002314:	07db      	lsls	r3, r3, #31
 8002316:	d54c      	bpl.n	80023b2 <XMC_USBD_IRQHandler+0x31a>
			inepint = (uint32_t)xmc_device.endpoint_in_register[ep_num]->diepint;
 8002318:	f100 036a 	add.w	r3, r0, #106	; 0x6a
      ((((uint32_t)((uint32_t)xmc_device.device_register->dtknqr4_fifoemptymsk >> ep->address_u.address_st.number) &
 800231c:	fb0a f200 	mul.w	r2, sl, r0
 8002320:	f8d4 91a4 	ldr.w	r9, [r4, #420]	; 0x1a4
			inepint = (uint32_t)xmc_device.endpoint_in_register[ep_num]->diepint;
 8002324:	9301      	str	r3, [sp, #4]
 8002326:	f854 3023 	ldr.w	r3, [r4, r3, lsl #2]
      ((((uint32_t)((uint32_t)xmc_device.device_register->dtknqr4_fifoemptymsk >> ep->address_u.address_st.number) &
 800232a:	f814 c002 	ldrb.w	ip, [r4, r2]
			inepint = (uint32_t)xmc_device.endpoint_in_register[ep_num]->diepint;
 800232e:	6899      	ldr	r1, [r3, #8]
      ((((uint32_t)((uint32_t)xmc_device.device_register->dtknqr4_fifoemptymsk >> ep->address_u.address_st.number) &
 8002330:	f8d9 6034 	ldr.w	r6, [r9, #52]	; 0x34
 8002334:	f00c 0c0f 	and.w	ip, ip, #15
 8002338:	4422      	add	r2, r4
 800233a:	fa26 f60c 	lsr.w	r6, r6, ip
 800233e:	9204      	str	r2, [sp, #16]
                     0x1U) << 7U) | (uint32_t)diepmsk.d32);
 8002340:	01f6      	lsls	r6, r6, #7
 8002342:	9a03      	ldr	r2, [sp, #12]
 8002344:	b2f6      	uxtb	r6, r6
 8002346:	4316      	orrs	r6, r2
      diepint.d32 = inepint &
 8002348:	400e      	ands	r6, r1
      if(obj->usbd_transfer_mode == XMC_USBD_USE_DMA)
 800234a:	f898 100d 	ldrb.w	r1, [r8, #13]
 800234e:	b9c1      	cbnz	r1, 8002382 <XMC_USBD_IRQHandler+0x2ea>
      if (diepint.b.xfercompl)
 8002350:	07f7      	lsls	r7, r6, #31
        dieptsiz.d32 = xmc_device.endpoint_in_register[ep_num]->dieptsiz;
 8002352:	6919      	ldr	r1, [r3, #16]
      if (diepint.b.xfercompl)
 8002354:	d52c      	bpl.n	80023b0 <XMC_USBD_IRQHandler+0x318>
          if ((dieptsiz.b.pktcnt == 0U) && (dieptsiz.b.xfersize == 0U))
 8002356:	f031 4360 	bics.w	r3, r1, #3758096384	; 0xe0000000
 800235a:	d107      	bne.n	800236c <XMC_USBD_IRQHandler+0x2d4>
            uint32_t Bytes = ep->xferLength - ep->xferCount;
 800235c:	9a04      	ldr	r2, [sp, #16]
 800235e:	e9d2 310a 	ldrd	r3, r1, [r2, #40]	; 0x28
 8002362:	1a59      	subs	r1, r3, r1
            ep->xferCount += Bytes;
 8002364:	62d3      	str	r3, [r2, #44]	; 0x2c
            ep->xferBuffer += Bytes;
 8002366:	6a53      	ldr	r3, [r2, #36]	; 0x24
 8002368:	440b      	add	r3, r1
 800236a:	6253      	str	r3, [r2, #36]	; 0x24
        if (ep->xferTotal==ep->xferLength)
 800236c:	fb0a 4100 	mla	r1, sl, r0, r4
 8002370:	6a8a      	ldr	r2, [r1, #40]	; 0x28
 8002372:	6b0b      	ldr	r3, [r1, #48]	; 0x30
 8002374:	429a      	cmp	r2, r3
 8002376:	d114      	bne.n	80023a2 <XMC_USBD_IRQHandler+0x30a>
          ep->inInUse = 0U;
 8002378:	684b      	ldr	r3, [r1, #4]
 800237a:	f36f 03c3 	bfc	r3, #3, #1
 800237e:	604b      	str	r3, [r1, #4]
          if(obj->usbd_transfer_mode == XMC_USBD_USE_FIFO)
 8002380:	e0e0      	b.n	8002544 <XMC_USBD_IRQHandler+0x4ac>
      if(obj->usbd_transfer_mode == XMC_USBD_USE_FIFO)
 8002382:	2901      	cmp	r1, #1
 8002384:	d102      	bne.n	800238c <XMC_USBD_IRQHandler+0x2f4>
        if (diepint.b.emptyintr)
 8002386:	0632      	lsls	r2, r6, #24
 8002388:	f100 80e6 	bmi.w	8002558 <XMC_USBD_IRQHandler+0x4c0>
      if (diepint.b.xfercompl)
 800238c:	07f2      	lsls	r2, r6, #31
 800238e:	d50f      	bpl.n	80023b0 <XMC_USBD_IRQHandler+0x318>
        if (ep->xferTotal==ep->xferLength)
 8002390:	fb0a 4c00 	mla	ip, sl, r0, r4
 8002394:	f8dc 2030 	ldr.w	r2, [ip, #48]	; 0x30
 8002398:	f8dc 3028 	ldr.w	r3, [ip, #40]	; 0x28
 800239c:	429a      	cmp	r2, r3
 800239e:	f000 80c1 	beq.w	8002524 <XMC_USBD_IRQHandler+0x48c>
          XMC_USBD_lStartWriteXfer(ep);
 80023a2:	fb0a 4000 	mla	r0, sl, r0, r4
 80023a6:	f7ff fa37 	bl	8001818 <XMC_USBD_lStartWriteXfer>
  xmc_device.endpoint_in_register[ep_num]->diepint = clear.d32;
 80023aa:	9b01      	ldr	r3, [sp, #4]
 80023ac:	f854 3023 	ldr.w	r3, [r4, r3, lsl #2]
 80023b0:	609e      	str	r6, [r3, #8]
    ep_num++;
 80023b2:	3501      	adds	r5, #1
 80023b4:	b2ed      	uxtb	r5, r5
  while ((uint16_t)mask >> ep_num)
 80023b6:	fa5b f305 	asrs.w	r3, fp, r5
 80023ba:	4628      	mov	r0, r5
 80023bc:	d1aa      	bne.n	8002314 <XMC_USBD_IRQHandler+0x27c>
 80023be:	46c1      	mov	r9, r8
	xmc_device.global_register->gintsts = clear.d32;
 80023c0:	f8d4 31a0 	ldr.w	r3, [r4, #416]	; 0x1a0
 80023c4:	2200      	movs	r2, #0
 80023c6:	615a      	str	r2, [r3, #20]
}
 80023c8:	e6be      	b.n	8002148 <XMC_USBD_IRQHandler+0xb0>
  epctl.d32=xmc_device.endpoint_in_register[0U]->diepctl;
 80023ca:	f8d4 11a8 	ldr.w	r1, [r4, #424]	; 0x1a8
  xmc_device.IsConnected = 1U;
 80023ce:	f894 31fe 	ldrb.w	r3, [r4, #510]	; 0x1fe
  epctl.d32=xmc_device.endpoint_in_register[0U]->diepctl;
 80023d2:	680a      	ldr	r2, [r1, #0]
  xmc_device.IsConnected = 1U;
 80023d4:	f023 0305 	bic.w	r3, r3, #5
  epctl.b.mps = 0x00U; /* 64 Byte, this is also automatically set for out ep */
 80023d8:	f36f 020a 	bfc	r2, #0, #11
  xmc_device.IsConnected = 1U;
 80023dc:	f043 0305 	orr.w	r3, r3, #5
  xmc_device.endpoint_in_register[0U]->diepctl = epctl.d32;
 80023e0:	600a      	str	r2, [r1, #0]
  xmc_device.DeviceEvent_cb(XMC_USBD_EVENT_CONNECT);
 80023e2:	2002      	movs	r0, #2
  xmc_device.IsConnected = 1U;
 80023e4:	f884 31fe 	strb.w	r3, [r4, #510]	; 0x1fe
  xmc_device.DeviceEvent_cb(XMC_USBD_EVENT_CONNECT);
 80023e8:	f8d4 3200 	ldr.w	r3, [r4, #512]	; 0x200
 80023ec:	4798      	blx	r3
  gusbcfg.d32 = xmc_device.global_register->gusbcfg;
 80023ee:	f8d4 21a0 	ldr.w	r2, [r4, #416]	; 0x1a0
 80023f2:	68d3      	ldr	r3, [r2, #12]
  gusbcfg.b.usbtrdtim = 9U; /* default value for LS/FS */
 80023f4:	2109      	movs	r1, #9
 80023f6:	f361 238d 	bfi	r3, r1, #10, #4
  xmc_device.global_register->gusbcfg = gusbcfg.d32;
 80023fa:	60d3      	str	r3, [r2, #12]
	xmc_device.global_register->gintsts = clear.d32;
 80023fc:	f44f 5300 	mov.w	r3, #8192	; 0x2000
 8002400:	6153      	str	r3, [r2, #20]
}
 8002402:	e69b      	b.n	800213c <XMC_USBD_IRQHandler+0xa4>
  dctl.d32 = xmc_device.device_register->dctl;
 8002404:	f8d4 21a4 	ldr.w	r2, [r4, #420]	; 0x1a4
 8002408:	4878      	ldr	r0, [pc, #480]	; (80025ec <XMC_USBD_IRQHandler+0x554>)
 800240a:	6853      	ldr	r3, [r2, #4]
  dctl.b.rmtwkupsig = 1U;
 800240c:	f043 0301 	orr.w	r3, r3, #1
  xmc_device.device_register->dctl = dctl.d32;
 8002410:	6053      	str	r3, [r2, #4]
  for (i = 0U;i < (uint8_t)XMC_USBD_NUM_EPS;i++)
 8002412:	f100 0c1c 	add.w	ip, r0, #28
    epctl.d32 = xmc_device.endpoint_out_register[i]->doepctl;
 8002416:	f850 7b04 	ldr.w	r7, [r0], #4
 800241a:	683b      	ldr	r3, [r7, #0]
		epctl.b.stall = 0U;
 800241c:	f3c3 410f 	ubfx	r1, r3, #16, #16
 8002420:	f421 6102 	bic.w	r1, r1, #2080	; 0x820
 8002424:	f441 6100 	orr.w	r1, r1, #2048	; 0x800
 8002428:	f361 431f 	bfi	r3, r1, #16, #16
  for (i = 0U;i < (uint8_t)XMC_USBD_NUM_EPS;i++)
 800242c:	4584      	cmp	ip, r0
		xmc_device.endpoint_out_register[i]->doepctl = epctl.d32;
 800242e:	603b      	str	r3, [r7, #0]
  for (i = 0U;i < (uint8_t)XMC_USBD_NUM_EPS;i++)
 8002430:	d1f1      	bne.n	8002416 <XMC_USBD_IRQHandler+0x37e>
  xmc_device.global_register->grxfsiz = 64U;
 8002432:	f8d4 31a0 	ldr.w	r3, [r4, #416]	; 0x1a0
    xmc_device.global_register->dtxfsiz[i- 1U] = (uint32_t)(((256U + (i*(64U)))/4U) | ((uint32_t)16U << 16U));
 8002436:	486e      	ldr	r0, [pc, #440]	; (80025f0 <XMC_USBD_IRQHandler+0x558>)
 8002438:	496e      	ldr	r1, [pc, #440]	; (80025f4 <XMC_USBD_IRQHandler+0x55c>)
  xmc_device.global_register->gnptxfsiz = gnptxfsiz.d32;
 800243a:	f8df b1c0 	ldr.w	fp, [pc, #448]	; 80025fc <XMC_USBD_IRQHandler+0x564>
    xmc_device.global_register->dtxfsiz[i- 1U] = (uint32_t)(((256U + (i*(64U)))/4U) | ((uint32_t)16U << 16U));
 800243e:	f8df 81c0 	ldr.w	r8, [pc, #448]	; 8002600 <XMC_USBD_IRQHandler+0x568>
 8002442:	f8df e1c0 	ldr.w	lr, [pc, #448]	; 8002604 <XMC_USBD_IRQHandler+0x56c>
 8002446:	f8df c1c0 	ldr.w	ip, [pc, #448]	; 8002608 <XMC_USBD_IRQHandler+0x570>
 800244a:	4f6b      	ldr	r7, [pc, #428]	; (80025f8 <XMC_USBD_IRQHandler+0x560>)
  xmc_device.global_register->grxfsiz = 64U;
 800244c:	f04f 0a40 	mov.w	sl, #64	; 0x40
 8002450:	f8c3 a024 	str.w	sl, [r3, #36]	; 0x24
  xmc_device.global_register->gnptxfsiz = gnptxfsiz.d32;
 8002454:	f8c3 b028 	str.w	fp, [r3, #40]	; 0x28
    xmc_device.global_register->dtxfsiz[i- 1U] = (uint32_t)(((256U + (i*(64U)))/4U) | ((uint32_t)16U << 16U));
 8002458:	f8c3 8104 	str.w	r8, [r3, #260]	; 0x104
 800245c:	f8c3 e108 	str.w	lr, [r3, #264]	; 0x108
 8002460:	f8c3 c10c 	str.w	ip, [r3, #268]	; 0x10c
 8002464:	f8c3 7110 	str.w	r7, [r3, #272]	; 0x110
 8002468:	f8c3 0114 	str.w	r0, [r3, #276]	; 0x114
 800246c:	f8c3 1118 	str.w	r1, [r3, #280]	; 0x118
  data.d32 = 0U;
 8002470:	2100      	movs	r1, #0
 8002472:	910b      	str	r1, [sp, #44]	; 0x2c
  data.b.txfflsh = 1U;
 8002474:	990b      	ldr	r1, [sp, #44]	; 0x2c
 8002476:	f041 0120 	orr.w	r1, r1, #32
 800247a:	910b      	str	r1, [sp, #44]	; 0x2c
  data.b.txfnum = fifo_num;
 800247c:	990b      	ldr	r1, [sp, #44]	; 0x2c
 800247e:	2010      	movs	r0, #16
 8002480:	f360 118a 	bfi	r1, r0, #6, #5
 8002484:	910b      	str	r1, [sp, #44]	; 0x2c
  xmc_device.global_register->grstctl = data.d32;
 8002486:	990b      	ldr	r1, [sp, #44]	; 0x2c
 8002488:	6119      	str	r1, [r3, #16]
   data.d32 = xmc_device.global_register->grstctl;
 800248a:	6919      	ldr	r1, [r3, #16]
 800248c:	910b      	str	r1, [sp, #44]	; 0x2c
  } while (data.b.txfflsh);
 800248e:	990b      	ldr	r1, [sp, #44]	; 0x2c
 8002490:	068f      	lsls	r7, r1, #26
 8002492:	f3c1 1040 	ubfx	r0, r1, #5, #1
 8002496:	d4f8      	bmi.n	800248a <XMC_USBD_IRQHandler+0x3f2>
  data.d32 = 0U;
 8002498:	900a      	str	r0, [sp, #40]	; 0x28
  data.b.txfflsh = 1U;
 800249a:	990a      	ldr	r1, [sp, #40]	; 0x28
 800249c:	f041 0120 	orr.w	r1, r1, #32
 80024a0:	910a      	str	r1, [sp, #40]	; 0x28
  data.b.txfnum = fifo_num;
 80024a2:	990a      	ldr	r1, [sp, #40]	; 0x28
 80024a4:	f360 118a 	bfi	r1, r0, #6, #5
 80024a8:	910a      	str	r1, [sp, #40]	; 0x28
  xmc_device.global_register->grstctl = data.d32;
 80024aa:	990a      	ldr	r1, [sp, #40]	; 0x28
 80024ac:	6119      	str	r1, [r3, #16]
   data.d32 = xmc_device.global_register->grstctl;
 80024ae:	6919      	ldr	r1, [r3, #16]
 80024b0:	910a      	str	r1, [sp, #40]	; 0x28
  } while (data.b.txfflsh);
 80024b2:	990a      	ldr	r1, [sp, #40]	; 0x28
 80024b4:	f3c1 1040 	ubfx	r0, r1, #5, #1
 80024b8:	0689      	lsls	r1, r1, #26
 80024ba:	d4f8      	bmi.n	80024ae <XMC_USBD_IRQHandler+0x416>
	data.d32 = 0U;
 80024bc:	9009      	str	r0, [sp, #36]	; 0x24
  data.b.rxfflsh = 1U;
 80024be:	9909      	ldr	r1, [sp, #36]	; 0x24
 80024c0:	f041 0110 	orr.w	r1, r1, #16
 80024c4:	9109      	str	r1, [sp, #36]	; 0x24
  xmc_device.global_register->grstctl = data.d32;
 80024c6:	9909      	ldr	r1, [sp, #36]	; 0x24
 80024c8:	6119      	str	r1, [r3, #16]
    data.d32 = xmc_device.global_register->grstctl;
 80024ca:	6919      	ldr	r1, [r3, #16]
 80024cc:	9109      	str	r1, [sp, #36]	; 0x24
  } while (data.b.rxfflsh);
 80024ce:	9909      	ldr	r1, [sp, #36]	; 0x24
 80024d0:	06cf      	lsls	r7, r1, #27
 80024d2:	f3c1 1000 	ubfx	r0, r1, #4, #1
 80024d6:	d4f8      	bmi.n	80024ca <XMC_USBD_IRQHandler+0x432>
  xmc_device.device_register->daintmsk = daint.d32;
 80024d8:	f04f 1301 	mov.w	r3, #65537	; 0x10001
 80024dc:	61d3      	str	r3, [r2, #28]
	xmc_device.device_register->doepmsk |= doepint.d32;
 80024de:	6953      	ldr	r3, [r2, #20]
 80024e0:	f043 030f 	orr.w	r3, r3, #15
 80024e4:	6153      	str	r3, [r2, #20]
	xmc_device.device_register->diepmsk |= diepint.d32;
 80024e6:	6913      	ldr	r3, [r2, #16]
 80024e8:	f043 030f 	orr.w	r3, r3, #15
 80024ec:	6113      	str	r3, [r2, #16]
  dcfg.d32 = xmc_device.device_register->dcfg;
 80024ee:	6813      	ldr	r3, [r2, #0]
  dcfg.b.devaddr = 0U;
 80024f0:	f360 130a 	bfi	r3, r0, #4, #7
  xmc_device.device_register->dcfg = dcfg.d32;
 80024f4:	6013      	str	r3, [r2, #0]
  if(obj->usbd_transfer_mode == XMC_USBD_USE_FIFO)
 80024f6:	f899 300d 	ldrb.w	r3, [r9, #13]
 80024fa:	2b01      	cmp	r3, #1
    xmc_device.device_register->dtknqr4_fifoemptymsk = 0U;
 80024fc:	bf08      	it	eq
 80024fe:	6350      	streq	r0, [r2, #52]	; 0x34
  xmc_device.ep[0U].outInUse = 0U;
 8002500:	6863      	ldr	r3, [r4, #4]
 8002502:	f36f 1304 	bfc	r3, #4, #1
 8002506:	6063      	str	r3, [r4, #4]
  xmc_device.ep[0U].inInUse = 0U;
 8002508:	6863      	ldr	r3, [r4, #4]
 800250a:	f36f 03c3 	bfc	r3, #3, #1
 800250e:	6063      	str	r3, [r4, #4]
  xmc_device.DeviceEvent_cb(XMC_USBD_EVENT_RESET);
 8002510:	2004      	movs	r0, #4
 8002512:	f8d4 3200 	ldr.w	r3, [r4, #512]	; 0x200
 8002516:	4798      	blx	r3
	xmc_device.global_register->gintsts = clear.d32;
 8002518:	f8d4 31a0 	ldr.w	r3, [r4, #416]	; 0x1a0
 800251c:	f44f 5280 	mov.w	r2, #4096	; 0x1000
 8002520:	615a      	str	r2, [r3, #20]
}
 8002522:	e608      	b.n	8002136 <XMC_USBD_IRQHandler+0x9e>
          ep->inInUse = 0U;
 8002524:	f8dc 3004 	ldr.w	r3, [ip, #4]
          if(obj->usbd_transfer_mode == XMC_USBD_USE_FIFO)
 8002528:	2901      	cmp	r1, #1
          ep->inInUse = 0U;
 800252a:	f36f 03c3 	bfc	r3, #3, #1
 800252e:	f8cc 3004 	str.w	r3, [ip, #4]
          if(obj->usbd_transfer_mode == XMC_USBD_USE_FIFO)
 8002532:	d107      	bne.n	8002544 <XMC_USBD_IRQHandler+0x4ac>
            (uint32_t)(xmc_device.device_register->dtknqr4_fifoemptymsk & ~(((uint32_t)1U << ep_num)));
 8002534:	fa01 f000 	lsl.w	r0, r1, r0
 8002538:	f8d9 1034 	ldr.w	r1, [r9, #52]	; 0x34
 800253c:	ea21 0100 	bic.w	r1, r1, r0
            xmc_device.device_register->dtknqr4_fifoemptymsk =
 8002540:	f8c9 1034 	str.w	r1, [r9, #52]	; 0x34
          xmc_device.EndpointEvent_cb(0x80U | ep_num,XMC_USBD_EP_EVENT_IN);
 8002544:	f8d4 3204 	ldr.w	r3, [r4, #516]	; 0x204
 8002548:	2102      	movs	r1, #2
 800254a:	f045 0080 	orr.w	r0, r5, #128	; 0x80
 800254e:	4798      	blx	r3
  xmc_device.endpoint_in_register[ep_num]->diepint = clear.d32;
 8002550:	9b01      	ldr	r3, [sp, #4]
 8002552:	f854 3023 	ldr.w	r3, [r4, r3, lsl #2]
 8002556:	e72b      	b.n	80023b0 <XMC_USBD_IRQHandler+0x318>
  freeSpace.d32 = xmc_device.endpoint_in_register[ep->address_u.address_st.number]->dtxfsts;
 8002558:	f10c 0e6a 	add.w	lr, ip, #106	; 0x6a
  byte_count = ep->xferLength - ep->xferCount;
 800255c:	9a04      	ldr	r2, [sp, #16]
  freeSpace.d32 = xmc_device.endpoint_in_register[ep->address_u.address_st.number]->dtxfsts;
 800255e:	f854 e02e 	ldr.w	lr, [r4, lr, lsl #2]
 8002562:	f8de 7018 	ldr.w	r7, [lr, #24]
  byte_count = ep->xferLength - ep->xferCount;
 8002566:	e9d2 2e0a 	ldrd	r2, lr, [r2, #40]	; 0x28
  if (!byte_count)
 800256a:	ebb2 020e 	subs.w	r2, r2, lr
 800256e:	9204      	str	r2, [sp, #16]
 8002570:	d02d      	beq.n	80025ce <XMC_USBD_IRQHandler+0x536>
    word_count = ((uint32_t)byte_count + 3U) >> 2U;
 8002572:	3203      	adds	r2, #3
 8002574:	b2bf      	uxth	r7, r7
 8002576:	9706      	str	r7, [sp, #24]
 8002578:	0897      	lsrs	r7, r2, #2
 800257a:	9705      	str	r7, [sp, #20]
    if (word_count > (uint32_t)freeSpace.b.txfspcavail )
 800257c:	9f06      	ldr	r7, [sp, #24]
 800257e:	ebb7 0f92 	cmp.w	r7, r2, lsr #2
      byte_count = (uint32_t)word_count << (uint32_t)2U;
 8002582:	bf3c      	itt	cc
 8002584:	00ba      	lslcc	r2, r7, #2
 8002586:	e9cd 2704 	strdcc	r2, r7, [sp, #16]
    for (i = 0U; i < word_count;ep->xferBuffer+= 4U)
 800258a:	9a05      	ldr	r2, [sp, #20]
 800258c:	b352      	cbz	r2, 80025e4 <XMC_USBD_IRQHandler+0x54c>
  fifo = xmc_device.fifo[ep->address_u.address_st.number]; /* fifo */
 800258e:	f10c 0c78 	add.w	ip, ip, #120	; 0x78
      *fifo = *(uint32_t*)ep->xferBuffer;
 8002592:	fb0a 4e00 	mla	lr, sl, r0, r4
  fifo = xmc_device.fifo[ep->address_u.address_st.number]; /* fifo */
 8002596:	f854 702c 	ldr.w	r7, [r4, ip, lsl #2]
 800259a:	9706      	str	r7, [sp, #24]
      *fifo = *(uint32_t*)ep->xferBuffer;
 800259c:	f8de 2024 	ldr.w	r2, [lr, #36]	; 0x24
 80025a0:	9f05      	ldr	r7, [sp, #20]
 80025a2:	9005      	str	r0, [sp, #20]
 80025a4:	eb02 0787 	add.w	r7, r2, r7, lsl #2
 80025a8:	46bc      	mov	ip, r7
 80025aa:	9806      	ldr	r0, [sp, #24]
 80025ac:	9f01      	ldr	r7, [sp, #4]
 80025ae:	9307      	str	r3, [sp, #28]
 80025b0:	f852 3b04 	ldr.w	r3, [r2], #4
 80025b4:	6003      	str	r3, [r0, #0]
    for (i = 0U; i < word_count;ep->xferBuffer+= 4U)
 80025b6:	4562      	cmp	r2, ip
 80025b8:	f8ce 2024 	str.w	r2, [lr, #36]	; 0x24
 80025bc:	d1f8      	bne.n	80025b0 <XMC_USBD_IRQHandler+0x518>
          ep->xferCount += bytes;
 80025be:	f8de 202c 	ldr.w	r2, [lr, #44]	; 0x2c
 80025c2:	9701      	str	r7, [sp, #4]
 80025c4:	9f04      	ldr	r7, [sp, #16]
 80025c6:	9805      	ldr	r0, [sp, #20]
 80025c8:	9b07      	ldr	r3, [sp, #28]
 80025ca:	eb07 0e02 	add.w	lr, r7, r2
 80025ce:	fb0a 4c00 	mla	ip, sl, r0, r4
          ep->xferBuffer += bytes;
 80025d2:	9f04      	ldr	r7, [sp, #16]
 80025d4:	f8dc 2024 	ldr.w	r2, [ip, #36]	; 0x24
          ep->xferCount += bytes;
 80025d8:	f8cc e02c 	str.w	lr, [ip, #44]	; 0x2c
          ep->xferBuffer += bytes;
 80025dc:	443a      	add	r2, r7
 80025de:	f8cc 2024 	str.w	r2, [ip, #36]	; 0x24
 80025e2:	e6d3      	b.n	800238c <XMC_USBD_IRQHandler+0x2f4>
          ep->xferCount += bytes;
 80025e4:	9a04      	ldr	r2, [sp, #16]
 80025e6:	4496      	add	lr, r2
 80025e8:	e7f1      	b.n	80025ce <XMC_USBD_IRQHandler+0x536>
 80025ea:	bf00      	nop
 80025ec:	20000a3c 	.word	0x20000a3c
 80025f0:	00100090 	.word	0x00100090
 80025f4:	001000a0 	.word	0x001000a0
 80025f8:	00100080 	.word	0x00100080
 80025fc:	00100040 	.word	0x00100040
 8002600:	00100050 	.word	0x00100050
 8002604:	00100060 	.word	0x00100060
 8002608:	00100070 	.word	0x00100070

0800260c <XMC_USBD_Enable>:
{
 800260c:	b508      	push	{r3, lr}
  XMC_SCU_RESET_DeassertPeripheralReset(XMC_SCU_PERIPHERAL_RESET_USB0);
 800260e:	4803      	ldr	r0, [pc, #12]	; (800261c <XMC_USBD_Enable+0x10>)
 8002610:	f000 fd98 	bl	8003144 <XMC_SCU_RESET_DeassertPeripheralReset>
}
 8002614:	e8bd 4008 	ldmia.w	sp!, {r3, lr}
  XMC_SCU_POWER_EnableUsb();
 8002618:	f000 bfe8 	b.w	80035ec <XMC_SCU_POWER_EnableUsb>
 800261c:	20000080 	.word	0x20000080

08002620 <XMC_USBD_Disable>:
{
 8002620:	b508      	push	{r3, lr}
  XMC_SCU_RESET_AssertPeripheralReset(XMC_SCU_PERIPHERAL_RESET_USB0);
 8002622:	4803      	ldr	r0, [pc, #12]	; (8002630 <XMC_USBD_Disable+0x10>)
 8002624:	f000 fd82 	bl	800312c <XMC_SCU_RESET_AssertPeripheralReset>
}
 8002628:	e8bd 4008 	ldmia.w	sp!, {r3, lr}
  XMC_SCU_POWER_DisableUsb();
 800262c:	f000 bfe6 	b.w	80035fc <XMC_SCU_POWER_DisableUsb>
 8002630:	20000080 	.word	0x20000080

08002634 <XMC_USBD_ClearEvent>:
  switch(event)
 8002634:	280d      	cmp	r0, #13
 8002636:	d808      	bhi.n	800264a <XMC_USBD_ClearEvent+0x16>
 8002638:	e8df f000 	tbb	[pc, r0]
 800263c:	0707073d 	.word	0x0707073d
 8002640:	0d140736 	.word	0x0d140736
 8002644:	28211b0d 	.word	0x28211b0d
 8002648:	2f07      	.short	0x2f07
 800264a:	2300      	movs	r3, #0
	xmc_device.global_register->gintsts = clear.d32;
 800264c:	4a1b      	ldr	r2, [pc, #108]	; (80026bc <XMC_USBD_ClearEvent+0x88>)
 800264e:	f8d2 21a0 	ldr.w	r2, [r2, #416]	; 0x1a0
 8002652:	6153      	str	r3, [r2, #20]
}
 8002654:	4770      	bx	lr
	xmc_device.global_register->gintsts = clear.d32;
 8002656:	4a19      	ldr	r2, [pc, #100]	; (80026bc <XMC_USBD_ClearEvent+0x88>)
 8002658:	f8d2 21a0 	ldr.w	r2, [r2, #416]	; 0x1a0
	  break;
 800265c:	f04f 4300 	mov.w	r3, #2147483648	; 0x80000000
	xmc_device.global_register->gintsts = clear.d32;
 8002660:	6153      	str	r3, [r2, #20]
}
 8002662:	4770      	bx	lr
	xmc_device.global_register->gintsts = clear.d32;
 8002664:	4a15      	ldr	r2, [pc, #84]	; (80026bc <XMC_USBD_ClearEvent+0x88>)
 8002666:	f8d2 21a0 	ldr.w	r2, [r2, #416]	; 0x1a0
	  break;
 800266a:	f44f 6300 	mov.w	r3, #2048	; 0x800
	xmc_device.global_register->gintsts = clear.d32;
 800266e:	6153      	str	r3, [r2, #20]
}
 8002670:	4770      	bx	lr
	xmc_device.global_register->gintsts = clear.d32;
 8002672:	4a12      	ldr	r2, [pc, #72]	; (80026bc <XMC_USBD_ClearEvent+0x88>)
 8002674:	f8d2 21a0 	ldr.w	r2, [r2, #416]	; 0x1a0
	  break;
 8002678:	2308      	movs	r3, #8
	xmc_device.global_register->gintsts = clear.d32;
 800267a:	6153      	str	r3, [r2, #20]
}
 800267c:	4770      	bx	lr
	xmc_device.global_register->gintsts = clear.d32;
 800267e:	4a0f      	ldr	r2, [pc, #60]	; (80026bc <XMC_USBD_ClearEvent+0x88>)
 8002680:	f8d2 21a0 	ldr.w	r2, [r2, #416]	; 0x1a0
	  break;
 8002684:	f44f 6380 	mov.w	r3, #1024	; 0x400
	xmc_device.global_register->gintsts = clear.d32;
 8002688:	6153      	str	r3, [r2, #20]
}
 800268a:	4770      	bx	lr
	xmc_device.global_register->gintsts = clear.d32;
 800268c:	4a0b      	ldr	r2, [pc, #44]	; (80026bc <XMC_USBD_ClearEvent+0x88>)
 800268e:	f8d2 21a0 	ldr.w	r2, [r2, #416]	; 0x1a0
	  break;
 8002692:	f44f 5300 	mov.w	r3, #8192	; 0x2000
	xmc_device.global_register->gintsts = clear.d32;
 8002696:	6153      	str	r3, [r2, #20]
}
 8002698:	4770      	bx	lr
	xmc_device.global_register->gintsts = clear.d32;
 800269a:	4a08      	ldr	r2, [pc, #32]	; (80026bc <XMC_USBD_ClearEvent+0x88>)
 800269c:	f8d2 21a0 	ldr.w	r2, [r2, #416]	; 0x1a0
	  break;
 80026a0:	f44f 2300 	mov.w	r3, #524288	; 0x80000
	xmc_device.global_register->gintsts = clear.d32;
 80026a4:	6153      	str	r3, [r2, #20]
}
 80026a6:	4770      	bx	lr
	xmc_device.global_register->gintsts = clear.d32;
 80026a8:	4a04      	ldr	r2, [pc, #16]	; (80026bc <XMC_USBD_ClearEvent+0x88>)
 80026aa:	f8d2 21a0 	ldr.w	r2, [r2, #416]	; 0x1a0
	  break;
 80026ae:	f44f 5380 	mov.w	r3, #4096	; 0x1000
	xmc_device.global_register->gintsts = clear.d32;
 80026b2:	6153      	str	r3, [r2, #20]
}
 80026b4:	4770      	bx	lr
  switch(event)
 80026b6:	f04f 4380 	mov.w	r3, #1073741824	; 0x40000000
 80026ba:	e7c7      	b.n	800264c <XMC_USBD_ClearEvent+0x18>
 80026bc:	20000878 	.word	0x20000878

080026c0 <XMC_USBD_ClearEventINEP>:
  xmc_device.endpoint_in_register[ep_num]->diepint = clear.d32;
 80026c0:	4b02      	ldr	r3, [pc, #8]	; (80026cc <XMC_USBD_ClearEventINEP+0xc>)
 80026c2:	316a      	adds	r1, #106	; 0x6a
 80026c4:	f853 3021 	ldr.w	r3, [r3, r1, lsl #2]
 80026c8:	6098      	str	r0, [r3, #8]
}
 80026ca:	4770      	bx	lr
 80026cc:	20000878 	.word	0x20000878

080026d0 <XMC_USBD_ClearEventOUTEP>:
  xmc_device.endpoint_out_register[ep_num]->doepint = clear.d32;
 80026d0:	4b03      	ldr	r3, [pc, #12]	; (80026e0 <XMC_USBD_ClearEventOUTEP+0x10>)
 80026d2:	eb03 0181 	add.w	r1, r3, r1, lsl #2
 80026d6:	f8d1 31c4 	ldr.w	r3, [r1, #452]	; 0x1c4
 80026da:	6098      	str	r0, [r3, #8]
}
 80026dc:	4770      	bx	lr
 80026de:	bf00      	nop
 80026e0:	20000878 	.word	0x20000878

080026e4 <XMC_USBD_EnableEventOUTEP>:
	xmc_device.device_register->doepmsk |= doepint.d32;
 80026e4:	4b03      	ldr	r3, [pc, #12]	; (80026f4 <XMC_USBD_EnableEventOUTEP+0x10>)
 80026e6:	f8d3 21a4 	ldr.w	r2, [r3, #420]	; 0x1a4
 80026ea:	6953      	ldr	r3, [r2, #20]
 80026ec:	4318      	orrs	r0, r3
 80026ee:	6150      	str	r0, [r2, #20]
}
 80026f0:	4770      	bx	lr
 80026f2:	bf00      	nop
 80026f4:	20000878 	.word	0x20000878

080026f8 <XMC_USBD_EnableEventINEP>:
	xmc_device.device_register->diepmsk |= diepint.d32;
 80026f8:	4b03      	ldr	r3, [pc, #12]	; (8002708 <XMC_USBD_EnableEventINEP+0x10>)
 80026fa:	f8d3 21a4 	ldr.w	r2, [r3, #420]	; 0x1a4
 80026fe:	6913      	ldr	r3, [r2, #16]
 8002700:	4318      	orrs	r0, r3
 8002702:	6110      	str	r0, [r2, #16]
}
 8002704:	4770      	bx	lr
 8002706:	bf00      	nop
 8002708:	20000878 	.word	0x20000878

0800270c <CDC_Device_ConfigureEndpoints>:
	}
}

bool CDC_Device_ConfigureEndpoints(USB_ClassInfo_CDC_Device_t* const CDCInterfaceInfo)
{
	memset(&CDCInterfaceInfo->State, 0x00, sizeof(CDCInterfaceInfo->State));
 800270c:	2300      	movs	r3, #0

	CDCInterfaceInfo->Config.DataINEndpoint.Type       = EP_TYPE_BULK;
 800270e:	2202      	movs	r2, #2
	CDCInterfaceInfo->Config.DataOUTEndpoint.Type      = EP_TYPE_BULK;
	CDCInterfaceInfo->Config.NotificationEndpoint.Type = EP_TYPE_INTERRUPT;
 8002710:	2103      	movs	r1, #3
{
 8002712:	b510      	push	{r4, lr}
	CDCInterfaceInfo->Config.NotificationEndpoint.Type = EP_TYPE_INTERRUPT;
 8002714:	7481      	strb	r1, [r0, #18]
{
 8002716:	4604      	mov	r4, r0
	memset(&CDCInterfaceInfo->State, 0x00, sizeof(CDCInterfaceInfo->State));
 8002718:	6143      	str	r3, [r0, #20]
 800271a:	6183      	str	r3, [r0, #24]
 800271c:	61c3      	str	r3, [r0, #28]
	CDCInterfaceInfo->Config.DataINEndpoint.Type       = EP_TYPE_BULK;
 800271e:	7182      	strb	r2, [r0, #6]
	CDCInterfaceInfo->Config.DataOUTEndpoint.Type      = EP_TYPE_BULK;
 8002720:	7302      	strb	r2, [r0, #12]

	if (!(Endpoint_ConfigureEndpointTable(&CDCInterfaceInfo->Config.DataINEndpoint, 1)))
 8002722:	2101      	movs	r1, #1
 8002724:	4410      	add	r0, r2
 8002726:	f000 fb7d 	bl	8002e24 <Endpoint_ConfigureEndpointTable>
 800272a:	b908      	cbnz	r0, 8002730 <CDC_Device_ConfigureEndpoints+0x24>

	if (!(Endpoint_ConfigureEndpointTable(&CDCInterfaceInfo->Config.NotificationEndpoint, 1)))
	  return false;

	return true;
}
 800272c:	2000      	movs	r0, #0
 800272e:	bd10      	pop	{r4, pc}
	if (!(Endpoint_ConfigureEndpointTable(&CDCInterfaceInfo->Config.DataOUTEndpoint, 1)))
 8002730:	2101      	movs	r1, #1
 8002732:	f104 0008 	add.w	r0, r4, #8
 8002736:	f000 fb75 	bl	8002e24 <Endpoint_ConfigureEndpointTable>
 800273a:	2800      	cmp	r0, #0
 800273c:	d0f6      	beq.n	800272c <CDC_Device_ConfigureEndpoints+0x20>
	if (!(Endpoint_ConfigureEndpointTable(&CDCInterfaceInfo->Config.NotificationEndpoint, 1)))
 800273e:	f104 000e 	add.w	r0, r4, #14
 8002742:	2101      	movs	r1, #1
}
 8002744:	e8bd 4010 	ldmia.w	sp!, {r4, lr}
	if (!(Endpoint_ConfigureEndpointTable(&CDCInterfaceInfo->Config.NotificationEndpoint, 1)))
 8002748:	f000 bb6c 	b.w	8002e24 <Endpoint_ConfigureEndpointTable>

0800274c <CDC_Device_SendString>:
}

uint8_t CDC_Device_SendString(USB_ClassInfo_CDC_Device_t* const CDCInterfaceInfo,
                              const char* const String)
{
	if ((USB_DeviceState != DEVICE_STATE_Configured) || !(CDCInterfaceInfo->State.LineEncoding.BaudRateBPS))
 800274c:	4b0e      	ldr	r3, [pc, #56]	; (8002788 <CDC_Device_SendString+0x3c>)
 800274e:	781b      	ldrb	r3, [r3, #0]
 8002750:	2b04      	cmp	r3, #4
 8002752:	d117      	bne.n	8002784 <CDC_Device_SendString+0x38>
 8002754:	6983      	ldr	r3, [r0, #24]
 8002756:	b1ab      	cbz	r3, 8002784 <CDC_Device_SendString+0x38>
{
 8002758:	b510      	push	{r4, lr}
	  return ENDPOINT_RWSTREAM_DeviceDisconnected;

	Endpoint_SelectEndpoint(CDCInterfaceInfo->Config.DataINEndpoint.Address);
 800275a:	7883      	ldrb	r3, [r0, #2]
	 *  \param[in] Address Endpoint address to select.
	 */
	static inline void Endpoint_SelectEndpoint(const uint8_t Address) ATTR_ALWAYS_INLINE;
	static inline void Endpoint_SelectEndpoint(const uint8_t Address)
	{
		device.CurrentEndpoint = Address & ENDPOINT_EPNUM_MASK;
 800275c:	4a0b      	ldr	r2, [pc, #44]	; (800278c <CDC_Device_SendString+0x40>)
 800275e:	460c      	mov	r4, r1
	return Endpoint_Write_Stream_LE(String, strlen(String), NULL);
 8002760:	4620      	mov	r0, r4
 8002762:	f003 010f 	and.w	r1, r3, #15
		device.CurrentDirection = (Address & ENDPOINT_DIR_MASK);
 8002766:	f023 037f 	bic.w	r3, r3, #127	; 0x7f
		device.CurrentEndpoint = Address & ENDPOINT_EPNUM_MASK;
 800276a:	f882 113c 	strb.w	r1, [r2, #316]	; 0x13c
		device.CurrentDirection = (Address & ENDPOINT_DIR_MASK);
 800276e:	f882 313d 	strb.w	r3, [r2, #317]	; 0x13d
 8002772:	f002 f865 	bl	8004840 <strlen>
 8002776:	2200      	movs	r2, #0
 8002778:	b281      	uxth	r1, r0
 800277a:	4620      	mov	r0, r4
}
 800277c:	e8bd 4010 	ldmia.w	sp!, {r4, lr}
	return Endpoint_Write_Stream_LE(String, strlen(String), NULL);
 8002780:	f001 baf6 	b.w	8003d70 <Endpoint_Write_Stream_LE>
}
 8002784:	2002      	movs	r0, #2
 8002786:	4770      	bx	lr
 8002788:	20000abc 	.word	0x20000abc
 800278c:	20000538 	.word	0x20000538

08002790 <CDC_Device_SendData>:

uint8_t CDC_Device_SendData(USB_ClassInfo_CDC_Device_t* const CDCInterfaceInfo,
                            const void* const Buffer,
                            const uint16_t Length)
{
	if ((USB_DeviceState != DEVICE_STATE_Configured) || !(CDCInterfaceInfo->State.LineEncoding.BaudRateBPS))
 8002790:	4b0e      	ldr	r3, [pc, #56]	; (80027cc <CDC_Device_SendData+0x3c>)
 8002792:	f893 c000 	ldrb.w	ip, [r3]
 8002796:	f1bc 0f04 	cmp.w	ip, #4
 800279a:	d114      	bne.n	80027c6 <CDC_Device_SendData+0x36>
 800279c:	460b      	mov	r3, r1
 800279e:	6981      	ldr	r1, [r0, #24]
 80027a0:	b189      	cbz	r1, 80027c6 <CDC_Device_SendData+0x36>
{
 80027a2:	b510      	push	{r4, lr}
	  return ENDPOINT_RWSTREAM_DeviceDisconnected;

	Endpoint_SelectEndpoint(CDCInterfaceInfo->Config.DataINEndpoint.Address);
 80027a4:	7881      	ldrb	r1, [r0, #2]
		device.CurrentEndpoint = Address & ENDPOINT_EPNUM_MASK;
 80027a6:	4c0a      	ldr	r4, [pc, #40]	; (80027d0 <CDC_Device_SendData+0x40>)
 80027a8:	f001 0e0f 	and.w	lr, r1, #15
		device.CurrentDirection = (Address & ENDPOINT_DIR_MASK);
 80027ac:	f021 0c7f 	bic.w	ip, r1, #127	; 0x7f
		device.CurrentEndpoint = Address & ENDPOINT_EPNUM_MASK;
 80027b0:	f884 e13c 	strb.w	lr, [r4, #316]	; 0x13c
	return Endpoint_Write_Stream_LE(Buffer, Length, NULL);
 80027b4:	4611      	mov	r1, r2
		device.CurrentDirection = (Address & ENDPOINT_DIR_MASK);
 80027b6:	f884 c13d 	strb.w	ip, [r4, #317]	; 0x13d
 80027ba:	4618      	mov	r0, r3
}
 80027bc:	e8bd 4010 	ldmia.w	sp!, {r4, lr}
	return Endpoint_Write_Stream_LE(Buffer, Length, NULL);
 80027c0:	2200      	movs	r2, #0
 80027c2:	f001 bad5 	b.w	8003d70 <Endpoint_Write_Stream_LE>
}
 80027c6:	2002      	movs	r0, #2
 80027c8:	4770      	bx	lr
 80027ca:	bf00      	nop
 80027cc:	20000abc 	.word	0x20000abc
 80027d0:	20000538 	.word	0x20000538

080027d4 <CDC_Device_SendByte>:

uint8_t CDC_Device_SendByte(USB_ClassInfo_CDC_Device_t* const CDCInterfaceInfo,
                            const uint8_t Data)
{
	if ((USB_DeviceState != DEVICE_STATE_Configured) || !(CDCInterfaceInfo->State.LineEncoding.BaudRateBPS))
 80027d4:	4b10      	ldr	r3, [pc, #64]	; (8002818 <CDC_Device_SendByte+0x44>)
 80027d6:	781b      	ldrb	r3, [r3, #0]
 80027d8:	2b04      	cmp	r3, #4
 80027da:	d11a      	bne.n	8002812 <CDC_Device_SendByte+0x3e>
 80027dc:	6983      	ldr	r3, [r0, #24]
 80027de:	b1c3      	cbz	r3, 8002812 <CDC_Device_SendByte+0x3e>
{
 80027e0:	b510      	push	{r4, lr}
	  return ENDPOINT_RWSTREAM_DeviceDisconnected;

	Endpoint_SelectEndpoint(CDCInterfaceInfo->Config.DataINEndpoint.Address);
 80027e2:	7883      	ldrb	r3, [r0, #2]
		device.CurrentEndpoint = Address & ENDPOINT_EPNUM_MASK;
 80027e4:	4a0d      	ldr	r2, [pc, #52]	; (800281c <CDC_Device_SendByte+0x48>)
 80027e6:	460c      	mov	r4, r1
 80027e8:	f003 010f 	and.w	r1, r3, #15
		device.CurrentDirection = (Address & ENDPOINT_DIR_MASK);
 80027ec:	f023 037f 	bic.w	r3, r3, #127	; 0x7f
		device.CurrentEndpoint = Address & ENDPOINT_EPNUM_MASK;
 80027f0:	f882 113c 	strb.w	r1, [r2, #316]	; 0x13c
		device.CurrentDirection = (Address & ENDPOINT_DIR_MASK);
 80027f4:	f882 313d 	strb.w	r3, [r2, #317]	; 0x13d

	if (!(Endpoint_IsReadWriteAllowed()))
 80027f8:	f000 faa0 	bl	8002d3c <Endpoint_IsReadWriteAllowed>
 80027fc:	b920      	cbnz	r0, 8002808 <CDC_Device_SendByte+0x34>
	{
		Endpoint_ClearIN();
 80027fe:	f000 fa53 	bl	8002ca8 <Endpoint_ClearIN>

		uint8_t ErrorCode;

		if ((ErrorCode = Endpoint_WaitUntilReady()) != ENDPOINT_READYWAIT_NoError)
 8002802:	f000 f9d7 	bl	8002bb4 <Endpoint_WaitUntilReady>
 8002806:	b918      	cbnz	r0, 8002810 <CDC_Device_SendByte+0x3c>
		  return ErrorCode;
	}

	Endpoint_Write_8(Data);
 8002808:	4620      	mov	r0, r4
 800280a:	f000 faaf 	bl	8002d6c <Endpoint_Write_8>
	return ENDPOINT_READYWAIT_NoError;
 800280e:	2000      	movs	r0, #0
}
 8002810:	bd10      	pop	{r4, pc}
	  return ENDPOINT_RWSTREAM_DeviceDisconnected;
 8002812:	2002      	movs	r0, #2
}
 8002814:	4770      	bx	lr
 8002816:	bf00      	nop
 8002818:	20000abc 	.word	0x20000abc
 800281c:	20000538 	.word	0x20000538

08002820 <CDC_Device_Flush>:

uint8_t CDC_Device_Flush(USB_ClassInfo_CDC_Device_t* const CDCInterfaceInfo)
{
	if ((USB_DeviceState != DEVICE_STATE_Configured) || !(CDCInterfaceInfo->State.LineEncoding.BaudRateBPS))
 8002820:	4b18      	ldr	r3, [pc, #96]	; (8002884 <CDC_Device_Flush+0x64>)
 8002822:	781b      	ldrb	r3, [r3, #0]
 8002824:	2b04      	cmp	r3, #4
 8002826:	d122      	bne.n	800286e <CDC_Device_Flush+0x4e>
 8002828:	6983      	ldr	r3, [r0, #24]
 800282a:	b303      	cbz	r3, 800286e <CDC_Device_Flush+0x4e>
	  return ENDPOINT_RWSTREAM_DeviceDisconnected;

	uint8_t ErrorCode;

	Endpoint_SelectEndpoint(CDCInterfaceInfo->Config.DataINEndpoint.Address);
 800282c:	7882      	ldrb	r2, [r0, #2]
		device.CurrentEndpoint = Address & ENDPOINT_EPNUM_MASK;
 800282e:	4916      	ldr	r1, [pc, #88]	; (8002888 <CDC_Device_Flush+0x68>)
 8002830:	f002 000f 	and.w	r0, r2, #15
	 */
	static inline uint16_t Endpoint_BytesInEndpoint(void) ATTR_WARN_UNUSED_RESULT ATTR_ALWAYS_INLINE;
	static inline uint16_t Endpoint_BytesInEndpoint(void)
	{
		USBD_Endpoint_t *ep = &device.Endpoints[device.CurrentEndpoint];
		if (ep->Direction)
 8002834:	232c      	movs	r3, #44	; 0x2c
 8002836:	fb03 1300 	mla	r3, r3, r0, r1
		device.CurrentDirection = (Address & ENDPOINT_DIR_MASK);
 800283a:	f022 027f 	bic.w	r2, r2, #127	; 0x7f
		device.CurrentEndpoint = Address & ENDPOINT_EPNUM_MASK;
 800283e:	f881 013c 	strb.w	r0, [r1, #316]	; 0x13c
		device.CurrentDirection = (Address & ENDPOINT_DIR_MASK);
 8002842:	f881 213d 	strb.w	r2, [r1, #317]	; 0x13d
		if (ep->Direction)
 8002846:	f993 2004 	ldrsb.w	r2, [r3, #4]
 800284a:	2a00      	cmp	r2, #0
			return ep->InBytesAvailable;
 800284c:	bfb4      	ite	lt
 800284e:	8b9b      	ldrhlt	r3, [r3, #28]
		else
			return ep->OutBytesAvailable;
 8002850:	899b      	ldrhge	r3, [r3, #12]

	if (!(Endpoint_BytesInEndpoint()))
 8002852:	b90b      	cbnz	r3, 8002858 <CDC_Device_Flush+0x38>
	  return ENDPOINT_READYWAIT_NoError;
 8002854:	2000      	movs	r0, #0

		Endpoint_ClearIN();
	}

	return ENDPOINT_READYWAIT_NoError;
}
 8002856:	4770      	bx	lr
{
 8002858:	b510      	push	{r4, lr}
 800285a:	b082      	sub	sp, #8
	bool BankFull = !(Endpoint_IsReadWriteAllowed());
 800285c:	f000 fa6e 	bl	8002d3c <Endpoint_IsReadWriteAllowed>
 8002860:	4604      	mov	r4, r0
	Endpoint_ClearIN();
 8002862:	f000 fa21 	bl	8002ca8 <Endpoint_ClearIN>
	if (BankFull)
 8002866:	b124      	cbz	r4, 8002872 <CDC_Device_Flush+0x52>
	  return ENDPOINT_READYWAIT_NoError;
 8002868:	2000      	movs	r0, #0
}
 800286a:	b002      	add	sp, #8
 800286c:	bd10      	pop	{r4, pc}
	  return ENDPOINT_RWSTREAM_DeviceDisconnected;
 800286e:	2002      	movs	r0, #2
 8002870:	4770      	bx	lr
		if ((ErrorCode = Endpoint_WaitUntilReady()) != ENDPOINT_READYWAIT_NoError)
 8002872:	f000 f99f 	bl	8002bb4 <Endpoint_WaitUntilReady>
 8002876:	2800      	cmp	r0, #0
 8002878:	d1f7      	bne.n	800286a <CDC_Device_Flush+0x4a>
 800287a:	9001      	str	r0, [sp, #4]
		Endpoint_ClearIN();
 800287c:	f000 fa14 	bl	8002ca8 <Endpoint_ClearIN>
 8002880:	9801      	ldr	r0, [sp, #4]
 8002882:	e7f2      	b.n	800286a <CDC_Device_Flush+0x4a>
 8002884:	20000abc 	.word	0x20000abc
 8002888:	20000538 	.word	0x20000538

0800288c <CDC_Device_USBTask>:
	if ((USB_DeviceState != DEVICE_STATE_Configured) || !(CDCInterfaceInfo->State.LineEncoding.BaudRateBPS))
 800288c:	4b0d      	ldr	r3, [pc, #52]	; (80028c4 <CDC_Device_USBTask+0x38>)
 800288e:	781a      	ldrb	r2, [r3, #0]
 8002890:	2a04      	cmp	r2, #4
 8002892:	d116      	bne.n	80028c2 <CDC_Device_USBTask+0x36>
 8002894:	6982      	ldr	r2, [r0, #24]
 8002896:	b1a2      	cbz	r2, 80028c2 <CDC_Device_USBTask+0x36>
	Endpoint_SelectEndpoint(CDCInterfaceInfo->Config.DataINEndpoint.Address);
 8002898:	7882      	ldrb	r2, [r0, #2]
		device.CurrentEndpoint = Address & ENDPOINT_EPNUM_MASK;
 800289a:	4b0b      	ldr	r3, [pc, #44]	; (80028c8 <CDC_Device_USBTask+0x3c>)
 800289c:	f002 010f 	and.w	r1, r2, #15
		device.CurrentDirection = (Address & ENDPOINT_DIR_MASK);
 80028a0:	f022 027f 	bic.w	r2, r2, #127	; 0x7f
 80028a4:	f883 213d 	strb.w	r2, [r3, #317]	; 0x13d
		return ep->InInUse == 0 && ep->IsEnabled;
 80028a8:	222c      	movs	r2, #44	; 0x2c
		device.CurrentEndpoint = Address & ENDPOINT_EPNUM_MASK;
 80028aa:	f883 113c 	strb.w	r1, [r3, #316]	; 0x13c
		return ep->InInUse == 0 && ep->IsEnabled;
 80028ae:	fb02 3301 	mla	r3, r2, r1, r3
 80028b2:	689a      	ldr	r2, [r3, #8]
 80028b4:	06d2      	lsls	r2, r2, #27
 80028b6:	d404      	bmi.n	80028c2 <CDC_Device_USBTask+0x36>
 80028b8:	7a1b      	ldrb	r3, [r3, #8]
 80028ba:	079b      	lsls	r3, r3, #30
 80028bc:	d501      	bpl.n	80028c2 <CDC_Device_USBTask+0x36>
	  CDC_Device_Flush(CDCInterfaceInfo);
 80028be:	f7ff bfaf 	b.w	8002820 <CDC_Device_Flush>
}
 80028c2:	4770      	bx	lr
 80028c4:	20000abc 	.word	0x20000abc
 80028c8:	20000538 	.word	0x20000538

080028cc <CDC_Device_BytesReceived>:

uint16_t CDC_Device_BytesReceived(USB_ClassInfo_CDC_Device_t* const CDCInterfaceInfo)
{
	if ((USB_DeviceState != DEVICE_STATE_Configured) || !(CDCInterfaceInfo->State.LineEncoding.BaudRateBPS))
 80028cc:	4b14      	ldr	r3, [pc, #80]	; (8002920 <CDC_Device_BytesReceived+0x54>)
 80028ce:	781b      	ldrb	r3, [r3, #0]
 80028d0:	2b04      	cmp	r3, #4
 80028d2:	d119      	bne.n	8002908 <CDC_Device_BytesReceived+0x3c>
 80028d4:	6983      	ldr	r3, [r0, #24]
 80028d6:	b1bb      	cbz	r3, 8002908 <CDC_Device_BytesReceived+0x3c>
	  return 0;

	Endpoint_SelectEndpoint(CDCInterfaceInfo->Config.DataOUTEndpoint.Address);
 80028d8:	7a02      	ldrb	r2, [r0, #8]
		device.CurrentEndpoint = Address & ENDPOINT_EPNUM_MASK;
 80028da:	4912      	ldr	r1, [pc, #72]	; (8002924 <CDC_Device_BytesReceived+0x58>)
 80028dc:	f002 000f 	and.w	r0, r2, #15
		return ep->IsOutRecieved;
 80028e0:	232c      	movs	r3, #44	; 0x2c
		device.CurrentDirection = (Address & ENDPOINT_DIR_MASK);
 80028e2:	f022 027f 	bic.w	r2, r2, #127	; 0x7f
		return ep->IsOutRecieved;
 80028e6:	fb03 1300 	mla	r3, r3, r0, r1
		device.CurrentEndpoint = Address & ENDPOINT_EPNUM_MASK;
 80028ea:	f881 013c 	strb.w	r0, [r1, #316]	; 0x13c
		device.CurrentDirection = (Address & ENDPOINT_DIR_MASK);
 80028ee:	f881 213d 	strb.w	r2, [r1, #317]	; 0x13d
		return ep->IsOutRecieved;
 80028f2:	689a      	ldr	r2, [r3, #8]

	if (Endpoint_IsOUTReceived())
 80028f4:	0692      	lsls	r2, r2, #26
 80028f6:	d507      	bpl.n	8002908 <CDC_Device_BytesReceived+0x3c>
		if (ep->Direction)
 80028f8:	f993 2004 	ldrsb.w	r2, [r3, #4]
 80028fc:	2a00      	cmp	r2, #0
			return ep->InBytesAvailable;
 80028fe:	bfb4      	ite	lt
 8002900:	8b98      	ldrhlt	r0, [r3, #28]
			return ep->OutBytesAvailable;
 8002902:	8998      	ldrhge	r0, [r3, #12]
	{
		if (!(Endpoint_BytesInEndpoint()))
 8002904:	b110      	cbz	r0, 800290c <CDC_Device_BytesReceived+0x40>
	}
	else
	{
		return 0;
	}
}
 8002906:	4770      	bx	lr
	  return 0;
 8002908:	2000      	movs	r0, #0
 800290a:	4770      	bx	lr
{
 800290c:	b500      	push	{lr}
 800290e:	b083      	sub	sp, #12
 8002910:	9001      	str	r0, [sp, #4]
			Endpoint_ClearOUT();
 8002912:	f000 f99f 	bl	8002c54 <Endpoint_ClearOUT>
 8002916:	9801      	ldr	r0, [sp, #4]
}
 8002918:	b003      	add	sp, #12
 800291a:	f85d fb04 	ldr.w	pc, [sp], #4
 800291e:	bf00      	nop
 8002920:	20000abc 	.word	0x20000abc
 8002924:	20000538 	.word	0x20000538

08002928 <CDC_Device_ReceiveByte>:

int16_t CDC_Device_ReceiveByte(USB_ClassInfo_CDC_Device_t* const CDCInterfaceInfo)
{
	if ((USB_DeviceState != DEVICE_STATE_Configured) || !(CDCInterfaceInfo->State.LineEncoding.BaudRateBPS))
 8002928:	4b28      	ldr	r3, [pc, #160]	; (80029cc <CDC_Device_ReceiveByte+0xa4>)
 800292a:	781b      	ldrb	r3, [r3, #0]
 800292c:	2b04      	cmp	r3, #4
 800292e:	d149      	bne.n	80029c4 <CDC_Device_ReceiveByte+0x9c>
 8002930:	6983      	ldr	r3, [r0, #24]
 8002932:	2b00      	cmp	r3, #0
 8002934:	d046      	beq.n	80029c4 <CDC_Device_ReceiveByte+0x9c>
{
 8002936:	b510      	push	{r4, lr}
	  return -1;

	int16_t ReceivedByte = -1;

	Endpoint_SelectEndpoint(CDCInterfaceInfo->Config.DataOUTEndpoint.Address);
 8002938:	7a02      	ldrb	r2, [r0, #8]
		device.CurrentEndpoint = Address & ENDPOINT_EPNUM_MASK;
 800293a:	4c25      	ldr	r4, [pc, #148]	; (80029d0 <CDC_Device_ReceiveByte+0xa8>)
 800293c:	f002 000f 	and.w	r0, r2, #15
		return ep->IsOutRecieved;
 8002940:	232c      	movs	r3, #44	; 0x2c
		device.CurrentDirection = (Address & ENDPOINT_DIR_MASK);
 8002942:	f022 027f 	bic.w	r2, r2, #127	; 0x7f
		return ep->IsOutRecieved;
 8002946:	fb03 4300 	mla	r3, r3, r0, r4
		device.CurrentEndpoint = Address & ENDPOINT_EPNUM_MASK;
 800294a:	f884 013c 	strb.w	r0, [r4, #316]	; 0x13c
		device.CurrentDirection = (Address & ENDPOINT_DIR_MASK);
 800294e:	f884 213d 	strb.w	r2, [r4, #317]	; 0x13d
		return ep->IsOutRecieved;
 8002952:	689a      	ldr	r2, [r3, #8]

	if (Endpoint_IsOUTReceived())
 8002954:	0692      	lsls	r2, r2, #26
{
 8002956:	b082      	sub	sp, #8
		USBD_Endpoint_t *ep = &device.Endpoints[device.CurrentEndpoint];
 8002958:	4601      	mov	r1, r0
	if (Endpoint_IsOUTReceived())
 800295a:	d530      	bpl.n	80029be <CDC_Device_ReceiveByte+0x96>
		if (ep->Direction)
 800295c:	f993 2004 	ldrsb.w	r2, [r3, #4]
 8002960:	2a00      	cmp	r2, #0
 8002962:	db22      	blt.n	80029aa <CDC_Device_ReceiveByte+0x82>
	{
		if (Endpoint_BytesInEndpoint())
 8002964:	899b      	ldrh	r3, [r3, #12]
 8002966:	b943      	cbnz	r3, 800297a <CDC_Device_ReceiveByte+0x52>
	int16_t ReceivedByte = -1;
 8002968:	f04f 30ff 	mov.w	r0, #4294967295	; 0xffffffff
			return ep->OutBytesAvailable;
 800296c:	232c      	movs	r3, #44	; 0x2c
 800296e:	fb03 4401 	mla	r4, r3, r1, r4
 8002972:	89a3      	ldrh	r3, [r4, #12]
		  ReceivedByte = Endpoint_Read_8();

		if (!(Endpoint_BytesInEndpoint()))
 8002974:	b19b      	cbz	r3, 800299e <CDC_Device_ReceiveByte+0x76>
		  Endpoint_ClearOUT();
	}

	return ReceivedByte;
}
 8002976:	b002      	add	sp, #8
 8002978:	bd10      	pop	{r4, pc}
		  ReceivedByte = Endpoint_Read_8();
 800297a:	f000 fa0d 	bl	8002d98 <Endpoint_Read_8>
		USBD_Endpoint_t *ep = &device.Endpoints[device.CurrentEndpoint];
 800297e:	f894 113c 	ldrb.w	r1, [r4, #316]	; 0x13c
		if (ep->Direction)
 8002982:	232c      	movs	r3, #44	; 0x2c
 8002984:	fb03 4301 	mla	r3, r3, r1, r4
 8002988:	b200      	sxth	r0, r0
 800298a:	f993 3004 	ldrsb.w	r3, [r3, #4]
 800298e:	2b00      	cmp	r3, #0
 8002990:	daec      	bge.n	800296c <CDC_Device_ReceiveByte+0x44>
			return ep->InBytesAvailable;
 8002992:	232c      	movs	r3, #44	; 0x2c
 8002994:	fb03 4401 	mla	r4, r3, r1, r4
 8002998:	8ba3      	ldrh	r3, [r4, #28]
		if (!(Endpoint_BytesInEndpoint()))
 800299a:	2b00      	cmp	r3, #0
 800299c:	d1eb      	bne.n	8002976 <CDC_Device_ReceiveByte+0x4e>
 800299e:	9001      	str	r0, [sp, #4]
		  Endpoint_ClearOUT();
 80029a0:	f000 f958 	bl	8002c54 <Endpoint_ClearOUT>
 80029a4:	9801      	ldr	r0, [sp, #4]
}
 80029a6:	b002      	add	sp, #8
 80029a8:	bd10      	pop	{r4, pc}
		if (Endpoint_BytesInEndpoint())
 80029aa:	8b9b      	ldrh	r3, [r3, #28]
 80029ac:	2b00      	cmp	r3, #0
 80029ae:	d1e4      	bne.n	800297a <CDC_Device_ReceiveByte+0x52>
 80029b0:	232c      	movs	r3, #44	; 0x2c
 80029b2:	fb03 4401 	mla	r4, r3, r1, r4
	int16_t ReceivedByte = -1;
 80029b6:	f04f 30ff 	mov.w	r0, #4294967295	; 0xffffffff
 80029ba:	8ba3      	ldrh	r3, [r4, #28]
 80029bc:	e7ed      	b.n	800299a <CDC_Device_ReceiveByte+0x72>
	  return -1;
 80029be:	f04f 30ff 	mov.w	r0, #4294967295	; 0xffffffff
 80029c2:	e7d8      	b.n	8002976 <CDC_Device_ReceiveByte+0x4e>
 80029c4:	f04f 30ff 	mov.w	r0, #4294967295	; 0xffffffff
}
 80029c8:	4770      	bx	lr
 80029ca:	bf00      	nop
 80029cc:	20000abc 	.word	0x20000abc
 80029d0:	20000538 	.word	0x20000538

080029d4 <CDC_Device_SendControlLineStateChange>:

void CDC_Device_SendControlLineStateChange(USB_ClassInfo_CDC_Device_t* const CDCInterfaceInfo)
{
	if ((USB_DeviceState != DEVICE_STATE_Configured) || !(CDCInterfaceInfo->State.LineEncoding.BaudRateBPS))
 80029d4:	4b15      	ldr	r3, [pc, #84]	; (8002a2c <CDC_Device_SendControlLineStateChange+0x58>)
 80029d6:	781b      	ldrb	r3, [r3, #0]
 80029d8:	2b04      	cmp	r3, #4
 80029da:	d106      	bne.n	80029ea <CDC_Device_SendControlLineStateChange+0x16>
{
 80029dc:	b530      	push	{r4, r5, lr}
	if ((USB_DeviceState != DEVICE_STATE_Configured) || !(CDCInterfaceInfo->State.LineEncoding.BaudRateBPS))
 80029de:	6983      	ldr	r3, [r0, #24]
{
 80029e0:	b083      	sub	sp, #12
 80029e2:	4604      	mov	r4, r0
	if ((USB_DeviceState != DEVICE_STATE_Configured) || !(CDCInterfaceInfo->State.LineEncoding.BaudRateBPS))
 80029e4:	b913      	cbnz	r3, 80029ec <CDC_Device_SendControlLineStateChange+0x18>
	Endpoint_Write_Stream_LE(&Notification, sizeof(USB_Request_Header_t), NULL);
	Endpoint_Write_Stream_LE(&CDCInterfaceInfo->State.ControlLineStates.DeviceToHost,
	                         sizeof(CDCInterfaceInfo->State.ControlLineStates.DeviceToHost),
	                         NULL);
	Endpoint_ClearIN();
}
 80029e6:	b003      	add	sp, #12
 80029e8:	bd30      	pop	{r4, r5, pc}
 80029ea:	4770      	bx	lr
	Endpoint_SelectEndpoint(CDCInterfaceInfo->Config.NotificationEndpoint.Address);
 80029ec:	7b83      	ldrb	r3, [r0, #14]
		device.CurrentEndpoint = Address & ENDPOINT_EPNUM_MASK;
 80029ee:	4d10      	ldr	r5, [pc, #64]	; (8002a30 <CDC_Device_SendControlLineStateChange+0x5c>)
	USB_Request_Header_t Notification = (USB_Request_Header_t)
 80029f0:	4a10      	ldr	r2, [pc, #64]	; (8002a34 <CDC_Device_SendControlLineStateChange+0x60>)
 80029f2:	f003 010f 	and.w	r1, r3, #15
 80029f6:	f885 113c 	strb.w	r1, [r5, #316]	; 0x13c
 80029fa:	e892 0003 	ldmia.w	r2, {r0, r1}
 80029fe:	46ec      	mov	ip, sp
 8002a00:	e88c 0003 	stmia.w	ip, {r0, r1}
		device.CurrentDirection = (Address & ENDPOINT_DIR_MASK);
 8002a04:	f023 037f 	bic.w	r3, r3, #127	; 0x7f
	Endpoint_Write_Stream_LE(&Notification, sizeof(USB_Request_Header_t), NULL);
 8002a08:	4660      	mov	r0, ip
 8002a0a:	2200      	movs	r2, #0
 8002a0c:	2108      	movs	r1, #8
 8002a0e:	f885 313d 	strb.w	r3, [r5, #317]	; 0x13d
 8002a12:	f001 f9ad 	bl	8003d70 <Endpoint_Write_Stream_LE>
	Endpoint_Write_Stream_LE(&CDCInterfaceInfo->State.ControlLineStates.DeviceToHost,
 8002a16:	2200      	movs	r2, #0
 8002a18:	2102      	movs	r1, #2
 8002a1a:	f104 0016 	add.w	r0, r4, #22
 8002a1e:	f001 f9a7 	bl	8003d70 <Endpoint_Write_Stream_LE>
	Endpoint_ClearIN();
 8002a22:	f000 f941 	bl	8002ca8 <Endpoint_ClearIN>
}
 8002a26:	b003      	add	sp, #12
 8002a28:	bd30      	pop	{r4, r5, pc}
 8002a2a:	bf00      	nop
 8002a2c:	20000abc 	.word	0x20000abc
 8002a30:	20000538 	.word	0x20000538
 8002a34:	08004a64 	.word	0x08004a64

08002a38 <EVENT_CDC_Device_LineEncodingChanged>:
}
#endif

__WEAK void EVENT_CDC_Device_LineEncodingChanged(USB_ClassInfo_CDC_Device_t* const CDCInterfaceInfo)
{
}
 8002a38:	4770      	bx	lr
 8002a3a:	bf00      	nop

08002a3c <EVENT_CDC_Device_ControLineStateChanged>:
 8002a3c:	4770      	bx	lr
 8002a3e:	bf00      	nop

08002a40 <EVENT_CDC_Device_BreakSent>:
}

__WEAK void EVENT_CDC_Device_BreakSent(USB_ClassInfo_CDC_Device_t* const CDCInterfaceInfo,
				                               const uint8_t Duration)
{
}
 8002a40:	4770      	bx	lr
 8002a42:	bf00      	nop

08002a44 <CDC_Device_ProcessControlRequest>:
		return device.IsSetupRecieved;
 8002a44:	4b43      	ldr	r3, [pc, #268]	; (8002b54 <CDC_Device_ProcessControlRequest+0x110>)
 8002a46:	f893 213e 	ldrb.w	r2, [r3, #318]	; 0x13e
	if (!(Endpoint_IsSETUPReceived()))
 8002a4a:	0792      	lsls	r2, r2, #30
 8002a4c:	d50f      	bpl.n	8002a6e <CDC_Device_ProcessControlRequest+0x2a>
{
 8002a4e:	b510      	push	{r4, lr}
	if (USB_ControlRequest.wIndex != CDCInterfaceInfo->Config.ControlInterfaceNumber)
 8002a50:	4a41      	ldr	r2, [pc, #260]	; (8002b58 <CDC_Device_ProcessControlRequest+0x114>)
 8002a52:	7801      	ldrb	r1, [r0, #0]
 8002a54:	4604      	mov	r4, r0
 8002a56:	8890      	ldrh	r0, [r2, #4]
 8002a58:	4288      	cmp	r0, r1
 8002a5a:	d000      	beq.n	8002a5e <CDC_Device_ProcessControlRequest+0x1a>
}
 8002a5c:	bd10      	pop	{r4, pc}
	switch (USB_ControlRequest.bRequest)
 8002a5e:	7851      	ldrb	r1, [r2, #1]
 8002a60:	3920      	subs	r1, #32
 8002a62:	2903      	cmp	r1, #3
 8002a64:	d8fa      	bhi.n	8002a5c <CDC_Device_ProcessControlRequest+0x18>
 8002a66:	e8df f001 	tbb	[pc, r1]
 8002a6a:	284c      	.short	0x284c
 8002a6c:	0313      	.short	0x0313
 8002a6e:	4770      	bx	lr
			if (USB_ControlRequest.bmRequestType == (REQDIR_HOSTTODEVICE | REQTYPE_CLASS | REQREC_INTERFACE))
 8002a70:	7811      	ldrb	r1, [r2, #0]
 8002a72:	2921      	cmp	r1, #33	; 0x21
 8002a74:	d1f2      	bne.n	8002a5c <CDC_Device_ProcessControlRequest+0x18>
		device.IsSetupRecieved = 0;
 8002a76:	f893 013e 	ldrb.w	r0, [r3, #318]	; 0x13e
				EVENT_CDC_Device_BreakSent(CDCInterfaceInfo, (uint8_t)USB_ControlRequest.wValue);
 8002a7a:	8851      	ldrh	r1, [r2, #2]
 8002a7c:	4602      	mov	r2, r0
 8002a7e:	f36f 0241 	bfc	r2, #1, #1
 8002a82:	b2c9      	uxtb	r1, r1
 8002a84:	4620      	mov	r0, r4
 8002a86:	f883 213e 	strb.w	r2, [r3, #318]	; 0x13e
 8002a8a:	f7ff ffd9 	bl	8002a40 <EVENT_CDC_Device_BreakSent>
}
 8002a8e:	bd10      	pop	{r4, pc}
			if (USB_ControlRequest.bmRequestType == (REQDIR_HOSTTODEVICE | REQTYPE_CLASS | REQREC_INTERFACE))
 8002a90:	7811      	ldrb	r1, [r2, #0]
 8002a92:	2921      	cmp	r1, #33	; 0x21
 8002a94:	d1e2      	bne.n	8002a5c <CDC_Device_ProcessControlRequest+0x18>
 8002a96:	f893 113e 	ldrb.w	r1, [r3, #318]	; 0x13e
				CDCInterfaceInfo->State.ControlLineStates.HostToDevice = USB_ControlRequest.wValue;
 8002a9a:	f892 c002 	ldrb.w	ip, [r2, #2]
 8002a9e:	78d2      	ldrb	r2, [r2, #3]
 8002aa0:	ea4c 2c02 	orr.w	ip, ip, r2, lsl #8
 8002aa4:	460a      	mov	r2, r1
 8002aa6:	f36f 0241 	bfc	r2, #1, #1
 8002aaa:	f883 213e 	strb.w	r2, [r3, #318]	; 0x13e
				EVENT_CDC_Device_ControLineStateChanged(CDCInterfaceInfo);
 8002aae:	4620      	mov	r0, r4
				CDCInterfaceInfo->State.ControlLineStates.HostToDevice = USB_ControlRequest.wValue;
 8002ab0:	f8a4 c014 	strh.w	ip, [r4, #20]
				EVENT_CDC_Device_ControLineStateChanged(CDCInterfaceInfo);
 8002ab4:	f7ff ffc2 	bl	8002a3c <EVENT_CDC_Device_ControLineStateChanged>
}
 8002ab8:	bd10      	pop	{r4, pc}
			if (USB_ControlRequest.bmRequestType == (REQDIR_DEVICETOHOST | REQTYPE_CLASS | REQREC_INTERFACE))
 8002aba:	7812      	ldrb	r2, [r2, #0]
 8002abc:	2aa1      	cmp	r2, #161	; 0xa1
 8002abe:	d1cd      	bne.n	8002a5c <CDC_Device_ProcessControlRequest+0x18>
 8002ac0:	f893 113e 	ldrb.w	r1, [r3, #318]	; 0x13e
		USBD_Endpoint_t *ep = &device.Endpoints[device.CurrentEndpoint];
 8002ac4:	f893 213c 	ldrb.w	r2, [r3, #316]	; 0x13c
		device.IsSetupRecieved = 0;
 8002ac8:	f36f 0141 	bfc	r1, #1, #1
		return ep->InInUse == 0 && ep->IsEnabled;
 8002acc:	202c      	movs	r0, #44	; 0x2c
		device.IsSetupRecieved = 0;
 8002ace:	f883 113e 	strb.w	r1, [r3, #318]	; 0x13e
		return ep->InInUse == 0 && ep->IsEnabled;
 8002ad2:	fb00 3302 	mla	r3, r0, r2, r3
 8002ad6:	689a      	ldr	r2, [r3, #8]
 8002ad8:	06d0      	lsls	r0, r2, #27
 8002ada:	d4fc      	bmi.n	8002ad6 <CDC_Device_ProcessControlRequest+0x92>
 8002adc:	7a1a      	ldrb	r2, [r3, #8]
 8002ade:	0791      	lsls	r1, r2, #30
 8002ae0:	d5f9      	bpl.n	8002ad6 <CDC_Device_ProcessControlRequest+0x92>
				Endpoint_Write_32_LE(CDCInterfaceInfo->State.LineEncoding.BaudRateBPS);
 8002ae2:	69a0      	ldr	r0, [r4, #24]
 8002ae4:	f000 f96e 	bl	8002dc4 <Endpoint_Write_32_LE>
				Endpoint_Write_8(CDCInterfaceInfo->State.LineEncoding.CharFormat);
 8002ae8:	7f20      	ldrb	r0, [r4, #28]
 8002aea:	f000 f93f 	bl	8002d6c <Endpoint_Write_8>
				Endpoint_Write_8(CDCInterfaceInfo->State.LineEncoding.ParityType);
 8002aee:	7f60      	ldrb	r0, [r4, #29]
 8002af0:	f000 f93c 	bl	8002d6c <Endpoint_Write_8>
				Endpoint_Write_8(CDCInterfaceInfo->State.LineEncoding.DataBits);
 8002af4:	7fa0      	ldrb	r0, [r4, #30]
 8002af6:	f000 f939 	bl	8002d6c <Endpoint_Write_8>
}
 8002afa:	e8bd 4010 	ldmia.w	sp!, {r4, lr}
				Endpoint_ClearIN();
 8002afe:	f000 b8d3 	b.w	8002ca8 <Endpoint_ClearIN>
			if (USB_ControlRequest.bmRequestType == (REQDIR_HOSTTODEVICE | REQTYPE_CLASS | REQREC_INTERFACE))
 8002b02:	7812      	ldrb	r2, [r2, #0]
 8002b04:	2a21      	cmp	r2, #33	; 0x21
 8002b06:	d1a9      	bne.n	8002a5c <CDC_Device_ProcessControlRequest+0x18>
		device.IsSetupRecieved = 0;
 8002b08:	f893 113e 	ldrb.w	r1, [r3, #318]	; 0x13e
		USBD_Endpoint_t *ep = &device.Endpoints[device.CurrentEndpoint];
 8002b0c:	f893 213c 	ldrb.w	r2, [r3, #316]	; 0x13c
		device.IsSetupRecieved = 0;
 8002b10:	f36f 0141 	bfc	r1, #1, #1
		return ep->IsOutRecieved;
 8002b14:	202c      	movs	r0, #44	; 0x2c
		device.IsSetupRecieved = 0;
 8002b16:	f883 113e 	strb.w	r1, [r3, #318]	; 0x13e
					if (USB_DeviceState == DEVICE_STATE_Unattached)
 8002b1a:	4910      	ldr	r1, [pc, #64]	; (8002b5c <CDC_Device_ProcessControlRequest+0x118>)
		return ep->IsOutRecieved;
 8002b1c:	fb00 3302 	mla	r3, r0, r2, r3
	}
 8002b20:	e002      	b.n	8002b28 <CDC_Device_ProcessControlRequest+0xe4>
 8002b22:	780a      	ldrb	r2, [r1, #0]
 8002b24:	2a00      	cmp	r2, #0
 8002b26:	d099      	beq.n	8002a5c <CDC_Device_ProcessControlRequest+0x18>
		return ep->IsOutRecieved;
 8002b28:	689a      	ldr	r2, [r3, #8]
				while (!(Endpoint_IsOUTReceived()))
 8002b2a:	0692      	lsls	r2, r2, #26
 8002b2c:	d5f9      	bpl.n	8002b22 <CDC_Device_ProcessControlRequest+0xde>
				CDCInterfaceInfo->State.LineEncoding.BaudRateBPS = Endpoint_Read_32_LE();
 8002b2e:	f000 f95f 	bl	8002df0 <Endpoint_Read_32_LE>
 8002b32:	61a0      	str	r0, [r4, #24]
				CDCInterfaceInfo->State.LineEncoding.CharFormat  = Endpoint_Read_8();
 8002b34:	f000 f930 	bl	8002d98 <Endpoint_Read_8>
 8002b38:	7720      	strb	r0, [r4, #28]
				CDCInterfaceInfo->State.LineEncoding.ParityType  = Endpoint_Read_8();
 8002b3a:	f000 f92d 	bl	8002d98 <Endpoint_Read_8>
 8002b3e:	7760      	strb	r0, [r4, #29]
				CDCInterfaceInfo->State.LineEncoding.DataBits    = Endpoint_Read_8();
 8002b40:	f000 f92a 	bl	8002d98 <Endpoint_Read_8>
 8002b44:	77a0      	strb	r0, [r4, #30]
				Endpoint_ClearOUT();
 8002b46:	f000 f885 	bl	8002c54 <Endpoint_ClearOUT>
				EVENT_CDC_Device_LineEncodingChanged(CDCInterfaceInfo);
 8002b4a:	4620      	mov	r0, r4
 8002b4c:	f7ff ff74 	bl	8002a38 <EVENT_CDC_Device_LineEncodingChanged>
}
 8002b50:	bd10      	pop	{r4, pc}
 8002b52:	bf00      	nop
 8002b54:	20000538 	.word	0x20000538
 8002b58:	20000ac0 	.word	0x20000ac0
 8002b5c:	20000abc 	.word	0x20000abc

08002b60 <USB_USBTask>:
#if defined(USB_CAN_BE_DEVICE) && !defined(DEVICE_STATE_AS_GPIOR)
volatile uint8_t     USB_DeviceState;
#endif

void USB_USBTask(void)
{
 8002b60:	b538      	push	{r3, r4, r5, lr}
}

#if defined(USB_CAN_BE_DEVICE)
static void USB_DeviceTask(void)
{
	if (USB_DeviceState == DEVICE_STATE_Unattached)
 8002b62:	4b12      	ldr	r3, [pc, #72]	; (8002bac <USB_USBTask+0x4c>)
 8002b64:	781b      	ldrb	r3, [r3, #0]
 8002b66:	b1ab      	cbz	r3, 8002b94 <USB_USBTask+0x34>
	 *  \return Index of the currently selected endpoint.
	 */
	static inline uint8_t Endpoint_GetCurrentEndpoint(void) ATTR_WARN_UNUSED_RESULT ATTR_ALWAYS_INLINE;
	static inline uint8_t Endpoint_GetCurrentEndpoint(void)
	{
		return device.CurrentDirection | device.CurrentEndpoint;
 8002b68:	4c11      	ldr	r4, [pc, #68]	; (8002bb0 <USB_USBTask+0x50>)
	 *  \return Boolean \c true if the selected endpoint has received a SETUP packet, \c false otherwise.
	 */
	static inline bool Endpoint_IsSETUPReceived(void) ATTR_WARN_UNUSED_RESULT ATTR_ALWAYS_INLINE;
	static inline bool Endpoint_IsSETUPReceived(void)
	{
		return device.IsSetupRecieved;
 8002b6a:	f894 313e 	ldrb.w	r3, [r4, #318]	; 0x13e
		return device.CurrentDirection | device.CurrentEndpoint;
 8002b6e:	f894 513d 	ldrb.w	r5, [r4, #317]	; 0x13d
 8002b72:	f894 213c 	ldrb.w	r2, [r4, #316]	; 0x13c
		device.CurrentEndpoint = Address & ENDPOINT_EPNUM_MASK;
 8002b76:	2100      	movs	r1, #0

	uint8_t PrevEndpoint = Endpoint_GetCurrentEndpoint();

	Endpoint_SelectEndpoint(ENDPOINT_CONTROLEP);

	if (Endpoint_IsSETUPReceived())
 8002b78:	079b      	lsls	r3, r3, #30
 8002b7a:	f8a4 113c 	strh.w	r1, [r4, #316]	; 0x13c
		return device.CurrentDirection | device.CurrentEndpoint;
 8002b7e:	ea45 0502 	orr.w	r5, r5, r2
 8002b82:	d408      	bmi.n	8002b96 <USB_USBTask+0x36>
		device.CurrentEndpoint = Address & ENDPOINT_EPNUM_MASK;
 8002b84:	f005 030f 	and.w	r3, r5, #15
		device.CurrentDirection = (Address & ENDPOINT_DIR_MASK);
 8002b88:	f025 057f 	bic.w	r5, r5, #127	; 0x7f
		device.CurrentEndpoint = Address & ENDPOINT_EPNUM_MASK;
 8002b8c:	f884 313c 	strb.w	r3, [r4, #316]	; 0x13c
		device.CurrentDirection = (Address & ENDPOINT_DIR_MASK);
 8002b90:	f884 513d 	strb.w	r5, [r4, #317]	; 0x13d
}
 8002b94:	bd38      	pop	{r3, r4, r5, pc}
	  USB_Device_ProcessControlRequest();
 8002b96:	f7fe fa77 	bl	8001088 <USB_Device_ProcessControlRequest>
		device.CurrentEndpoint = Address & ENDPOINT_EPNUM_MASK;
 8002b9a:	f005 030f 	and.w	r3, r5, #15
		device.CurrentDirection = (Address & ENDPOINT_DIR_MASK);
 8002b9e:	f025 057f 	bic.w	r5, r5, #127	; 0x7f
		device.CurrentEndpoint = Address & ENDPOINT_EPNUM_MASK;
 8002ba2:	f884 313c 	strb.w	r3, [r4, #316]	; 0x13c
		device.CurrentDirection = (Address & ENDPOINT_DIR_MASK);
 8002ba6:	f884 513d 	strb.w	r5, [r4, #317]	; 0x13d
 8002baa:	e7f3      	b.n	8002b94 <USB_USBTask+0x34>
 8002bac:	20000abc 	.word	0x20000abc
 8002bb0:	20000538 	.word	0x20000538

08002bb4 <Endpoint_WaitUntilReady>:
#define USB_STREAM_TIMEOUT_MS 100

extern volatile uint8_t zlp_flag;

uint8_t Endpoint_WaitUntilReady(void)
{
 8002bb4:	e92d 41f0 	stmdb	sp!, {r4, r5, r6, r7, r8, lr}
			 *  \return Current USB frame number from the USB controller.
			 */
    
            static inline uint16_t USB_Device_GetFrameNumber(void) ATTR_ALWAYS_INLINE;
            static inline uint16_t USB_Device_GetFrameNumber(void) {
                return device.Driver->GetFrameNumber();
 8002bb8:	4c24      	ldr	r4, [pc, #144]	; (8002c4c <Endpoint_WaitUntilReady+0x98>)
		{
			if (Endpoint_IsOUTReceived())
			  return ENDPOINT_READYWAIT_NoError;
		}

		uint8_t USB_DeviceState_LCL = USB_DeviceState;
 8002bba:	4e25      	ldr	r6, [pc, #148]	; (8002c50 <Endpoint_WaitUntilReady+0x9c>)
 8002bbc:	6823      	ldr	r3, [r4, #0]
 8002bbe:	6b9b      	ldr	r3, [r3, #56]	; 0x38
 8002bc0:	4798      	blx	r3
	 *  \return The currently selected endpoint's direction, as a \c ENDPOINT_DIR_* mask.
	 */
	static inline uint8_t Endpoint_GetEndpointDirection(void) ATTR_WARN_UNUSED_RESULT ATTR_ALWAYS_INLINE;
	static inline uint8_t Endpoint_GetEndpointDirection(void)
	{
		USBD_Endpoint_t *ep = &device.Endpoints[device.CurrentEndpoint];
 8002bc2:	f894 313c 	ldrb.w	r3, [r4, #316]	; 0x13c
		return ep->Address & ENDPOINT_DIR_MASK;
 8002bc6:	272c      	movs	r7, #44	; 0x2c
 8002bc8:	fb07 4203 	mla	r2, r7, r3, r4
	uint8_t  TimeoutMSRem = USB_STREAM_TIMEOUT_MS;
 8002bcc:	2564      	movs	r5, #100	; 0x64
		if (Endpoint_GetEndpointDirection() == ENDPOINT_DIR_IN)
 8002bce:	f992 1004 	ldrsb.w	r1, [r2, #4]
 8002bd2:	2900      	cmp	r1, #0
 8002bd4:	4680      	mov	r8, r0
 8002bd6:	db1f      	blt.n	8002c18 <Endpoint_WaitUntilReady+0x64>
		return ep->IsOutRecieved;
 8002bd8:	6892      	ldr	r2, [r2, #8]
			if (Endpoint_IsOUTReceived())
 8002bda:	0692      	lsls	r2, r2, #26
 8002bdc:	d432      	bmi.n	8002c44 <Endpoint_WaitUntilReady+0x90>
		uint8_t USB_DeviceState_LCL = USB_DeviceState;
 8002bde:	7832      	ldrb	r2, [r6, #0]

		if (USB_DeviceState_LCL == DEVICE_STATE_Unattached)
 8002be0:	f002 01ff 	and.w	r1, r2, #255	; 0xff
 8002be4:	b312      	cbz	r2, 8002c2c <Endpoint_WaitUntilReady+0x78>
		  return ENDPOINT_READYWAIT_DeviceDisconnected;
		else if (USB_DeviceState_LCL == DEVICE_STATE_Suspended)
 8002be6:	2905      	cmp	r1, #5
 8002be8:	d023      	beq.n	8002c32 <Endpoint_WaitUntilReady+0x7e>
	 *  \return Boolean \c true if the currently selected endpoint is stalled, \c false otherwise.
	 */
	static inline bool Endpoint_IsStalled(void) ATTR_WARN_UNUSED_RESULT ATTR_ALWAYS_INLINE;
	static inline bool Endpoint_IsStalled(void)
	{
		return device.Endpoints[device.CurrentEndpoint].IsHalted == 1 ? true : false;
 8002bea:	fb07 4303 	mla	r3, r7, r3, r4
 8002bee:	7a1b      	ldrb	r3, [r3, #8]
		  return ENDPOINT_READYWAIT_BusSuspended;
		else if (Endpoint_IsStalled())
 8002bf0:	075b      	lsls	r3, r3, #29
 8002bf2:	d421      	bmi.n	8002c38 <Endpoint_WaitUntilReady+0x84>
 8002bf4:	6823      	ldr	r3, [r4, #0]
 8002bf6:	6b9b      	ldr	r3, [r3, #56]	; 0x38
 8002bf8:	4798      	blx	r3
		  return ENDPOINT_READYWAIT_EndpointStalled;

		uint16_t CurrentFrameNumber = USB_Device_GetFrameNumber();

		if (CurrentFrameNumber != PreviousFrameNumber)
 8002bfa:	4580      	cmp	r8, r0
 8002bfc:	d003      	beq.n	8002c06 <Endpoint_WaitUntilReady+0x52>
		{
			PreviousFrameNumber = CurrentFrameNumber;

			if (!(TimeoutMSRem--))
 8002bfe:	1e6b      	subs	r3, r5, #1
 8002c00:	b2db      	uxtb	r3, r3
 8002c02:	b1e5      	cbz	r5, 8002c3e <Endpoint_WaitUntilReady+0x8a>
 8002c04:	461d      	mov	r5, r3
		USBD_Endpoint_t *ep = &device.Endpoints[device.CurrentEndpoint];
 8002c06:	f894 313c 	ldrb.w	r3, [r4, #316]	; 0x13c
		return ep->Address & ENDPOINT_DIR_MASK;
 8002c0a:	fb07 4203 	mla	r2, r7, r3, r4
 8002c0e:	4680      	mov	r8, r0
		if (Endpoint_GetEndpointDirection() == ENDPOINT_DIR_IN)
 8002c10:	f992 1004 	ldrsb.w	r1, [r2, #4]
 8002c14:	2900      	cmp	r1, #0
 8002c16:	dadf      	bge.n	8002bd8 <Endpoint_WaitUntilReady+0x24>
		return ep->InInUse == 0 && ep->IsEnabled;
 8002c18:	6891      	ldr	r1, [r2, #8]
 8002c1a:	f3c1 1000 	ubfx	r0, r1, #4, #1
 8002c1e:	06c9      	lsls	r1, r1, #27
 8002c20:	d4dd      	bmi.n	8002bde <Endpoint_WaitUntilReady+0x2a>
 8002c22:	7a12      	ldrb	r2, [r2, #8]
 8002c24:	0791      	lsls	r1, r2, #30
 8002c26:	d5da      	bpl.n	8002bde <Endpoint_WaitUntilReady+0x2a>
			  return ENDPOINT_READYWAIT_Timeout;
		}
	}
}
 8002c28:	e8bd 81f0 	ldmia.w	sp!, {r4, r5, r6, r7, r8, pc}
		  return ENDPOINT_READYWAIT_DeviceDisconnected;
 8002c2c:	2002      	movs	r0, #2
}
 8002c2e:	e8bd 81f0 	ldmia.w	sp!, {r4, r5, r6, r7, r8, pc}
		  return ENDPOINT_READYWAIT_BusSuspended;
 8002c32:	2003      	movs	r0, #3
}
 8002c34:	e8bd 81f0 	ldmia.w	sp!, {r4, r5, r6, r7, r8, pc}
		  return ENDPOINT_READYWAIT_EndpointStalled;
 8002c38:	2001      	movs	r0, #1
}
 8002c3a:	e8bd 81f0 	ldmia.w	sp!, {r4, r5, r6, r7, r8, pc}
			  return ENDPOINT_READYWAIT_Timeout;
 8002c3e:	2004      	movs	r0, #4
}
 8002c40:	e8bd 81f0 	ldmia.w	sp!, {r4, r5, r6, r7, r8, pc}
			  return ENDPOINT_READYWAIT_NoError;
 8002c44:	2000      	movs	r0, #0
}
 8002c46:	e8bd 81f0 	ldmia.w	sp!, {r4, r5, r6, r7, r8, pc}
 8002c4a:	bf00      	nop
 8002c4c:	20000538 	.word	0x20000538
 8002c50:	20000abc 	.word	0x20000abc

08002c54 <Endpoint_ClearOUT>:

void Endpoint_ClearOUT(void) {
 8002c54:	b570      	push	{r4, r5, r6, lr}
	USBD_Endpoint_t *ep = &device.Endpoints[device.CurrentEndpoint];
 8002c56:	4d13      	ldr	r5, [pc, #76]	; (8002ca4 <Endpoint_ClearOUT+0x50>)
 8002c58:	f895 413c 	ldrb.w	r4, [r5, #316]	; 0x13c
	/* if we have data left which isn't read yet, we leave this routine to not override it */
	if (ep->IsEnabled == 0)
 8002c5c:	232c      	movs	r3, #44	; 0x2c
 8002c5e:	fb03 5404 	mla	r4, r3, r4, r5
 8002c62:	7a23      	ldrb	r3, [r4, #8]
 8002c64:	079a      	lsls	r2, r3, #30
 8002c66:	d51b      	bpl.n	8002ca0 <Endpoint_ClearOUT+0x4c>
		return;
	/* First Check whether we have data in the driver */
	ep->OutBytesAvailable = device.Driver->EndpointRead(ep->Address,ep->OutBuffer,ep->OutBufferLength);
 8002c68:	682b      	ldr	r3, [r5, #0]
 8002c6a:	69a2      	ldr	r2, [r4, #24]
 8002c6c:	6adb      	ldr	r3, [r3, #44]	; 0x2c
 8002c6e:	6961      	ldr	r1, [r4, #20]
 8002c70:	7920      	ldrb	r0, [r4, #4]
 8002c72:	4798      	blx	r3
	ep->OutOffset = 0;
	/* If we didn't request new data and all data has been read, request new */
	if (!ep->OutInUse && !ep->OutBytesAvailable) {
 8002c74:	68a3      	ldr	r3, [r4, #8]
	ep->OutOffset = 0;
 8002c76:	2200      	movs	r2, #0
	if (!ep->OutInUse && !ep->OutBytesAvailable) {
 8002c78:	071b      	lsls	r3, r3, #28
	ep->OutOffset = 0;
 8002c7a:	e9c4 0203 	strd	r0, r2, [r4, #12]
	if (!ep->OutInUse && !ep->OutBytesAvailable) {
 8002c7e:	d40f      	bmi.n	8002ca0 <Endpoint_ClearOUT+0x4c>
 8002c80:	b970      	cbnz	r0, 8002ca0 <Endpoint_ClearOUT+0x4c>
		ep->OutInUse = true;
 8002c82:	8923      	ldrh	r3, [r4, #8]
		ep->IsOutRecieved = 0;
		device.Driver->EndpointReadStart(ep->Address,
 8002c84:	69a1      	ldr	r1, [r4, #24]
		ep->OutInUse = true;
 8002c86:	f043 0308 	orr.w	r3, r3, #8
 8002c8a:	8123      	strh	r3, [r4, #8]
		ep->IsOutRecieved = 0;
 8002c8c:	8923      	ldrh	r3, [r4, #8]
 8002c8e:	f360 1345 	bfi	r3, r0, #5, #1
 8002c92:	8123      	strh	r3, [r4, #8]
		device.Driver->EndpointReadStart(ep->Address,
 8002c94:	682b      	ldr	r3, [r5, #0]
 8002c96:	7920      	ldrb	r0, [r4, #4]
 8002c98:	6a9b      	ldr	r3, [r3, #40]	; 0x28
				ep->OutBufferLength);
	}
}
 8002c9a:	e8bd 4070 	ldmia.w	sp!, {r4, r5, r6, lr}
		device.Driver->EndpointReadStart(ep->Address,
 8002c9e:	4718      	bx	r3
}
 8002ca0:	bd70      	pop	{r4, r5, r6, pc}
 8002ca2:	bf00      	nop
 8002ca4:	20000538 	.word	0x20000538

08002ca8 <Endpoint_ClearIN>:

void Endpoint_ClearIN(void)
{
 8002ca8:	b5f8      	push	{r3, r4, r5, r6, r7, lr}
	USBD_Endpoint_t *ep = &device.Endpoints[device.CurrentEndpoint];
 8002caa:	4d21      	ldr	r5, [pc, #132]	; (8002d30 <Endpoint_ClearIN+0x88>)
 8002cac:	f895 413c 	ldrb.w	r4, [r5, #316]	; 0x13c
	int32_t data_count;
	/* don't clear if in use or not enabled */
	if (ep->InInUse == 1 || ep->IsEnabled == 0)
 8002cb0:	232c      	movs	r3, #44	; 0x2c
 8002cb2:	fb03 5404 	mla	r4, r3, r4, r5
 8002cb6:	68a3      	ldr	r3, [r4, #8]
 8002cb8:	06d8      	lsls	r0, r3, #27
 8002cba:	d426      	bmi.n	8002d0a <Endpoint_ClearIN+0x62>
 8002cbc:	7a23      	ldrb	r3, [r4, #8]
 8002cbe:	0799      	lsls	r1, r3, #30
 8002cc0:	d523      	bpl.n	8002d0a <Endpoint_ClearIN+0x62>
		return;
	ep->InInUse = true;
 8002cc2:	8923      	ldrh	r3, [r4, #8]
    NVIC->ICER[(((uint32_t)(int32_t)IRQn) >> 5UL)] = (uint32_t)(1UL << (((uint32_t)(int32_t)IRQn) & 0x1FUL));
 8002cc4:	4e1b      	ldr	r6, [pc, #108]	; (8002d34 <Endpoint_ClearIN+0x8c>)
	/* store transfer information to loop over, if underlying is smaller */
	ep->InDataBuffer = ep->InBuffer;
 8002cc6:	e9d4 2107 	ldrd	r2, r1, [r4, #28]
	ep->InInUse = true;
 8002cca:	f043 0310 	orr.w	r3, r3, #16
 8002cce:	8123      	strh	r3, [r4, #8]
 8002cd0:	f44f 6700 	mov.w	r7, #2048	; 0x800
	ep->InDataLeft = ep->InBytesAvailable;
	ep->InBytesAvailable = 0;
 8002cd4:	2300      	movs	r3, #0
	ep->InDataBuffer = ep->InBuffer;
 8002cd6:	62e1      	str	r1, [r4, #44]	; 0x2c
	ep->InDataLeft = ep->InBytesAvailable;
 8002cd8:	62a2      	str	r2, [r4, #40]	; 0x28
	ep->InBytesAvailable = 0;
 8002cda:	61e3      	str	r3, [r4, #28]
 8002cdc:	f8c6 708c 	str.w	r7, [r6, #140]	; 0x8c
  \details Acts as a special kind of Data Memory Barrier.
           It completes when all explicit memory accesses before this instruction complete.
 */
__attribute__((always_inline)) __STATIC_INLINE void __DSB(void)
{
  __ASM volatile ("dsb 0xF":::"memory");
 8002ce0:	f3bf 8f4f 	dsb	sy
  __ASM volatile ("isb 0xF":::"memory");
 8002ce4:	f3bf 8f6f 	isb	sy
	/* make next 3 operations atomic. Do not get interrupted.*/
	NVIC_DisableIRQ(USB0_0_IRQn);
	data_count = device.Driver->EndpointWrite(ep->Address,
 8002ce8:	682b      	ldr	r3, [r5, #0]
 8002cea:	7920      	ldrb	r0, [r4, #4]
 8002cec:	6b1b      	ldr	r3, [r3, #48]	; 0x30
 8002cee:	e9d4 210a 	ldrd	r2, r1, [r4, #40]	; 0x28
 8002cf2:	4798      	blx	r3
			ep->InDataBuffer,ep->InDataLeft);
	ep->InDataBuffer += data_count;
	ep->InDataLeft -= data_count;
 8002cf4:	6aa3      	ldr	r3, [r4, #40]	; 0x28
	ep->InDataBuffer += data_count;
 8002cf6:	6ae1      	ldr	r1, [r4, #44]	; 0x2c
 8002cf8:	4401      	add	r1, r0
	ep->InDataLeft -= data_count;
 8002cfa:	1a18      	subs	r0, r3, r0
	ep->InDataBuffer += data_count;
 8002cfc:	62e1      	str	r1, [r4, #44]	; 0x2c
	ep->InDataLeft -= data_count;
 8002cfe:	62a0      	str	r0, [r4, #40]	; 0x28
    NVIC->ISER[(((uint32_t)(int32_t)IRQn) >> 5UL)] = (uint32_t)(1UL << (((uint32_t)(int32_t)IRQn) & 0x1FUL));
 8002d00:	60f7      	str	r7, [r6, #12]
	NVIC_EnableIRQ(USB0_0_IRQn);
	if((zlp_flag == true) && (ep->Number != 0))
 8002d02:	4e0d      	ldr	r6, [pc, #52]	; (8002d38 <Endpoint_ClearIN+0x90>)
 8002d04:	7833      	ldrb	r3, [r6, #0]
 8002d06:	2b01      	cmp	r3, #1
 8002d08:	d000      	beq.n	8002d0c <Endpoint_ClearIN+0x64>
	  ep->InInUse = true;
	  device.Driver->EndpointWrite(ep->Address,
	  			ep->InDataBuffer,0);
	  zlp_flag = false;
	}
}
 8002d0a:	bdf8      	pop	{r3, r4, r5, r6, r7, pc}
	if((zlp_flag == true) && (ep->Number != 0))
 8002d0c:	7920      	ldrb	r0, [r4, #4]
 8002d0e:	0702      	lsls	r2, r0, #28
 8002d10:	d0fb      	beq.n	8002d0a <Endpoint_ClearIN+0x62>
	  while(ep->InInUse)
 8002d12:	68a3      	ldr	r3, [r4, #8]
 8002d14:	f3c3 1700 	ubfx	r7, r3, #4, #1
 8002d18:	06db      	lsls	r3, r3, #27
 8002d1a:	d4fa      	bmi.n	8002d12 <Endpoint_ClearIN+0x6a>
	  ep->InInUse = true;
 8002d1c:	8923      	ldrh	r3, [r4, #8]
 8002d1e:	f043 0310 	orr.w	r3, r3, #16
 8002d22:	8123      	strh	r3, [r4, #8]
	  device.Driver->EndpointWrite(ep->Address,
 8002d24:	682b      	ldr	r3, [r5, #0]
 8002d26:	463a      	mov	r2, r7
 8002d28:	6b1b      	ldr	r3, [r3, #48]	; 0x30
 8002d2a:	4798      	blx	r3
	  zlp_flag = false;
 8002d2c:	7037      	strb	r7, [r6, #0]
}
 8002d2e:	bdf8      	pop	{r3, r4, r5, r6, r7, pc}
 8002d30:	20000538 	.word	0x20000538
 8002d34:	e000e100 	.word	0xe000e100
 8002d38:	20000b4c 	.word	0x20000b4c

08002d3c <Endpoint_IsReadWriteAllowed>:

bool Endpoint_IsReadWriteAllowed(void) {
	USBD_Endpoint_t *EndPoint = &device.Endpoints[device.CurrentEndpoint];
 8002d3c:	4b0a      	ldr	r3, [pc, #40]	; (8002d68 <Endpoint_IsReadWriteAllowed+0x2c>)
 8002d3e:	f893 213c 	ldrb.w	r2, [r3, #316]	; 0x13c
	bool Retval = false;

	if(EndPoint->Direction)
 8002d42:	212c      	movs	r1, #44	; 0x2c
 8002d44:	fb01 3302 	mla	r3, r1, r2, r3
 8002d48:	f993 2004 	ldrsb.w	r2, [r3, #4]
 8002d4c:	2a00      	cmp	r2, #0
 8002d4e:	db04      	blt.n	8002d5a <Endpoint_IsReadWriteAllowed+0x1e>
	{
		Retval = (EndPoint->InBytesAvailable < EndPoint->InBufferLength) ? true : false;
	}
	else
	{
		Retval = (EndPoint->OutBytesAvailable > 0) ? true : false;
 8002d50:	68d8      	ldr	r0, [r3, #12]
 8002d52:	3800      	subs	r0, #0
 8002d54:	bf18      	it	ne
 8002d56:	2001      	movne	r0, #1
	}
	return Retval;
}
 8002d58:	4770      	bx	lr
		Retval = (EndPoint->InBytesAvailable < EndPoint->InBufferLength) ? true : false;
 8002d5a:	69d8      	ldr	r0, [r3, #28]
 8002d5c:	6a5b      	ldr	r3, [r3, #36]	; 0x24
 8002d5e:	4298      	cmp	r0, r3
 8002d60:	bf2c      	ite	cs
 8002d62:	2000      	movcs	r0, #0
 8002d64:	2001      	movcc	r0, #1
 8002d66:	4770      	bx	lr
 8002d68:	20000538 	.word	0x20000538

08002d6c <Endpoint_Write_8>:

void Endpoint_Write_8(const uint8_t Data) {
	USBD_Endpoint_t *EndPoint = &device.Endpoints[device.CurrentEndpoint];
 8002d6c:	4909      	ldr	r1, [pc, #36]	; (8002d94 <Endpoint_Write_8+0x28>)
 8002d6e:	f891 c13c 	ldrb.w	ip, [r1, #316]	; 0x13c
	bool Success = false;

	 do
	  {
	    if(EndPoint->InBytesAvailable < EndPoint->InBufferLength)
 8002d72:	222c      	movs	r2, #44	; 0x2c
 8002d74:	fb02 120c 	mla	r2, r2, ip, r1
 8002d78:	69d3      	ldr	r3, [r2, #28]
 8002d7a:	6a52      	ldr	r2, [r2, #36]	; 0x24
 8002d7c:	4293      	cmp	r3, r2
 8002d7e:	d2fd      	bcs.n	8002d7c <Endpoint_Write_8+0x10>
	    {
	      EndPoint->InBuffer[EndPoint->InBytesAvailable] = Data;
 8002d80:	222c      	movs	r2, #44	; 0x2c
 8002d82:	fb02 110c 	mla	r1, r2, ip, r1
 8002d86:	6a0a      	ldr	r2, [r1, #32]
 8002d88:	54d0      	strb	r0, [r2, r3]
	      EndPoint->InBytesAvailable++;
 8002d8a:	69cb      	ldr	r3, [r1, #28]
 8002d8c:	3301      	adds	r3, #1
 8002d8e:	61cb      	str	r3, [r1, #28]

	      Success = true;
	    }
	  }while(!Success);
}
 8002d90:	4770      	bx	lr
 8002d92:	bf00      	nop
 8002d94:	20000538 	.word	0x20000538

08002d98 <Endpoint_Read_8>:

uint8_t Endpoint_Read_8(void) {
	USBD_Endpoint_t *EndPoint = &device.Endpoints[device.CurrentEndpoint];
 8002d98:	4b09      	ldr	r3, [pc, #36]	; (8002dc0 <Endpoint_Read_8+0x28>)
 8002d9a:	f893 213c 	ldrb.w	r2, [r3, #316]	; 0x13c
	bool Success = false;
	uint8_t data = 0;
	 do
	  {
		if(EndPoint->OutBytesAvailable > 0)
 8002d9e:	212c      	movs	r1, #44	; 0x2c
 8002da0:	fb01 3302 	mla	r3, r1, r2, r3
 8002da4:	68da      	ldr	r2, [r3, #12]
 8002da6:	b152      	cbz	r2, 8002dbe <Endpoint_Read_8+0x26>
uint8_t Endpoint_Read_8(void) {
 8002da8:	b410      	push	{r4}
		{
          data = EndPoint->OutBuffer[EndPoint->OutOffset];
 8002daa:	e9d3 1004 	ldrd	r1, r0, [r3, #16]
          EndPoint->OutOffset++;
          EndPoint->OutBytesAvailable--;
 8002dae:	3a01      	subs	r2, #1
          EndPoint->OutOffset++;
 8002db0:	1c4c      	adds	r4, r1, #1
          data = EndPoint->OutBuffer[EndPoint->OutOffset];
 8002db2:	5c40      	ldrb	r0, [r0, r1]
          EndPoint->OutBytesAvailable--;
 8002db4:	e9c3 2403 	strd	r2, r4, [r3, #12]
		  Success = true;
		}
	  }while(!Success);
	 return data;
}
 8002db8:	f85d 4b04 	ldr.w	r4, [sp], #4
 8002dbc:	4770      	bx	lr
 8002dbe:	e7fe      	b.n	8002dbe <Endpoint_Read_8+0x26>
 8002dc0:	20000538 	.word	0x20000538

08002dc4 <Endpoint_Write_32_LE>:

void Endpoint_Write_32_LE(const uint32_t Data) {
	USBD_Endpoint_t *EndPoint = &device.Endpoints[device.CurrentEndpoint];
 8002dc4:	4909      	ldr	r1, [pc, #36]	; (8002dec <Endpoint_Write_32_LE+0x28>)
 8002dc6:	f891 c13c 	ldrb.w	ip, [r1, #316]	; 0x13c
	bool Success = false;

	do {
		if(EndPoint->InBytesAvailable < (EndPoint->InBufferLength - 3)) {
 8002dca:	232c      	movs	r3, #44	; 0x2c
 8002dcc:	fb03 130c 	mla	r3, r3, ip, r1
 8002dd0:	69da      	ldr	r2, [r3, #28]
 8002dd2:	6a5b      	ldr	r3, [r3, #36]	; 0x24
 8002dd4:	3b03      	subs	r3, #3
 8002dd6:	429a      	cmp	r2, r3
 8002dd8:	d2fd      	bcs.n	8002dd6 <Endpoint_Write_32_LE+0x12>
			*(uint32_t*)(EndPoint->InBuffer + EndPoint->InBytesAvailable) = Data;
 8002dda:	232c      	movs	r3, #44	; 0x2c
 8002ddc:	fb03 110c 	mla	r1, r3, ip, r1
 8002de0:	6a0b      	ldr	r3, [r1, #32]
 8002de2:	5098      	str	r0, [r3, r2]
			EndPoint->InBytesAvailable+=4;
 8002de4:	69cb      	ldr	r3, [r1, #28]
 8002de6:	3304      	adds	r3, #4
 8002de8:	61cb      	str	r3, [r1, #28]

			Success = true;
		}
	}while(!Success);
}
 8002dea:	4770      	bx	lr
 8002dec:	20000538 	.word	0x20000538

08002df0 <Endpoint_Read_32_LE>:

uint32_t Endpoint_Read_32_LE(void) {
 8002df0:	b410      	push	{r4}
	USBD_Endpoint_t *EndPoint = &device.Endpoints[device.CurrentEndpoint];
 8002df2:	4b0b      	ldr	r3, [pc, #44]	; (8002e20 <Endpoint_Read_32_LE+0x30>)
 8002df4:	f893 113c 	ldrb.w	r1, [r3, #316]	; 0x13c
	bool Success = false;
	uint32_t data = 0;

	do {
		if(EndPoint->OutBytesAvailable > 3) {
 8002df8:	222c      	movs	r2, #44	; 0x2c
 8002dfa:	fb02 3201 	mla	r2, r2, r1, r3
 8002dfe:	68d2      	ldr	r2, [r2, #12]
 8002e00:	2a03      	cmp	r2, #3
 8002e02:	d9fd      	bls.n	8002e00 <Endpoint_Read_32_LE+0x10>
			data = *(uint32_t*)(EndPoint->OutBuffer + EndPoint->OutOffset);
 8002e04:	202c      	movs	r0, #44	; 0x2c
 8002e06:	fb00 3301 	mla	r3, r0, r1, r3
 8002e0a:	e9d3 1004 	ldrd	r1, r0, [r3, #16]
			EndPoint->OutOffset+=4;
			EndPoint->OutBytesAvailable-=4;
 8002e0e:	3a04      	subs	r2, #4
			EndPoint->OutOffset+=4;
 8002e10:	1d0c      	adds	r4, r1, #4
			data = *(uint32_t*)(EndPoint->OutBuffer + EndPoint->OutOffset);
 8002e12:	5840      	ldr	r0, [r0, r1]
			EndPoint->OutBytesAvailable-=4;
 8002e14:	e9c3 2403 	strd	r2, r4, [r3, #12]

			Success = true;
		}
	} while(!Success);
	return data;
}
 8002e18:	f85d 4b04 	ldr.w	r4, [sp], #4
 8002e1c:	4770      	bx	lr
 8002e1e:	bf00      	nop
 8002e20:	20000538 	.word	0x20000538

08002e24 <Endpoint_ConfigureEndpointTable>:

bool Endpoint_ConfigureEndpointTable(const USB_Endpoint_Table_t* const Table,
			                                     const uint8_t Entries) {
	uint8_t i;
	uint8_t Number;
	for (i=0;i<Entries;i++) {
 8002e24:	2900      	cmp	r1, #0
 8002e26:	d037      	beq.n	8002e98 <Endpoint_ConfigureEndpointTable+0x74>
 8002e28:	3901      	subs	r1, #1
			                                     const uint8_t Entries) {
 8002e2a:	e92d 43f8 	stmdb	sp!, {r3, r4, r5, r6, r7, r8, r9, lr}
 8002e2e:	b2c9      	uxtb	r1, r1
 8002e30:	1d83      	adds	r3, r0, #6
 8002e32:	2506      	movs	r5, #6
 8002e34:	f8df 8068 	ldr.w	r8, [pc, #104]	; 8002ea0 <Endpoint_ConfigureEndpointTable+0x7c>
		if (device.Driver->EndpointConfigure(Table[i].Address, (XMC_USBD_ENDPOINT_TYPE_t)Table[i].Type, Table[i].Size) != XMC_USBD_STATUS_OK)
			return false;
		/* Set device core values */
		device.Endpoints[Number].Address = Table[i].Address;
		device.Endpoints[Number].MaxPacketSize = Table[i].Size;
		device.Endpoints[Number].IsConfigured = 1;
 8002e38:	4f18      	ldr	r7, [pc, #96]	; (8002e9c <Endpoint_ConfigureEndpointTable+0x78>)
 8002e3a:	4604      	mov	r4, r0
 8002e3c:	fb15 3501 	smlabb	r5, r5, r1, r3
		device.Endpoints[Number].Address = Table[i].Address;
 8002e40:	262c      	movs	r6, #44	; 0x2c
 8002e42:	e016      	b.n	8002e72 <Endpoint_ConfigureEndpointTable+0x4e>
		device.Endpoints[Number].IsConfigured = 1;
 8002e44:	8863      	ldrh	r3, [r4, #2]
 8002e46:	8911      	ldrh	r1, [r2, #8]
		device.Endpoints[Number].Address = Table[i].Address;
 8002e48:	7820      	ldrb	r0, [r4, #0]
 8002e4a:	7110      	strb	r0, [r2, #4]
		device.Endpoints[Number].IsConfigured = 1;
 8002e4c:	019b      	lsls	r3, r3, #6
 8002e4e:	f403 53fe 	and.w	r3, r3, #8128	; 0x1fc0
 8002e52:	f043 0303 	orr.w	r3, r3, #3
 8002e56:	4039      	ands	r1, r7
 8002e58:	430b      	orrs	r3, r1
 8002e5a:	8113      	strh	r3, [r2, #8]
		device.Endpoints[Number].IsEnabled = 1;
		/* Start read for out endpoints */
		if (!(Table[i].Address & ENDPOINT_DIR_MASK))
 8002e5c:	0603      	lsls	r3, r0, #24
	for (i=0;i<Entries;i++) {
 8002e5e:	f104 0406 	add.w	r4, r4, #6
		if (!(Table[i].Address & ENDPOINT_DIR_MASK))
 8002e62:	d404      	bmi.n	8002e6e <Endpoint_ConfigureEndpointTable+0x4a>
			device.Driver->EndpointReadStart(Table[i].Address,
 8002e64:	f8d8 3000 	ldr.w	r3, [r8]
 8002e68:	6991      	ldr	r1, [r2, #24]
 8002e6a:	6a9b      	ldr	r3, [r3, #40]	; 0x28
 8002e6c:	4798      	blx	r3
	for (i=0;i<Entries;i++) {
 8002e6e:	42ac      	cmp	r4, r5
 8002e70:	d00f      	beq.n	8002e92 <Endpoint_ConfigureEndpointTable+0x6e>
		if (device.Driver->EndpointConfigure(Table[i].Address, (XMC_USBD_ENDPOINT_TYPE_t)Table[i].Type, Table[i].Size) != XMC_USBD_STATUS_OK)
 8002e72:	f8d8 3000 	ldr.w	r3, [r8]
		Number = Table[i].Address & ENDPOINT_EPNUM_MASK;
 8002e76:	7820      	ldrb	r0, [r4, #0]
		if (device.Driver->EndpointConfigure(Table[i].Address, (XMC_USBD_ENDPOINT_TYPE_t)Table[i].Type, Table[i].Size) != XMC_USBD_STATUS_OK)
 8002e78:	8862      	ldrh	r2, [r4, #2]
 8002e7a:	7921      	ldrb	r1, [r4, #4]
 8002e7c:	69db      	ldr	r3, [r3, #28]
		Number = Table[i].Address & ENDPOINT_EPNUM_MASK;
 8002e7e:	f000 090f 	and.w	r9, r0, #15
		if (device.Driver->EndpointConfigure(Table[i].Address, (XMC_USBD_ENDPOINT_TYPE_t)Table[i].Type, Table[i].Size) != XMC_USBD_STATUS_OK)
 8002e82:	4798      	blx	r3
		device.Endpoints[Number].Address = Table[i].Address;
 8002e84:	fb06 8209 	mla	r2, r6, r9, r8
		if (device.Driver->EndpointConfigure(Table[i].Address, (XMC_USBD_ENDPOINT_TYPE_t)Table[i].Type, Table[i].Size) != XMC_USBD_STATUS_OK)
 8002e88:	2800      	cmp	r0, #0
 8002e8a:	d0db      	beq.n	8002e44 <Endpoint_ConfigureEndpointTable+0x20>
			return false;
 8002e8c:	2000      	movs	r0, #0
					device.Endpoints[Number].OutBufferLength);
	}
	return true;
}
 8002e8e:	e8bd 83f8 	ldmia.w	sp!, {r3, r4, r5, r6, r7, r8, r9, pc}
	return true;
 8002e92:	2001      	movs	r0, #1
}
 8002e94:	e8bd 83f8 	ldmia.w	sp!, {r3, r4, r5, r6, r7, r8, r9, pc}
	return true;
 8002e98:	2001      	movs	r0, #1
}
 8002e9a:	4770      	bx	lr
 8002e9c:	ffffe03c 	.word	0xffffe03c
 8002ea0:	20000538 	.word	0x20000538

08002ea4 <XMC_SCU_INTERRUPT_EnableEvent>:
}

/* API to enable the SCU event */
void XMC_SCU_INTERRUPT_EnableEvent(const XMC_SCU_INTERRUPT_EVENT_t event)
{
  SCU_INTERRUPT->SRMSK |= (uint32_t)event;
 8002ea4:	4a02      	ldr	r2, [pc, #8]	; (8002eb0 <XMC_SCU_INTERRUPT_EnableEvent+0xc>)
 8002ea6:	6fd3      	ldr	r3, [r2, #124]	; 0x7c
 8002ea8:	4318      	orrs	r0, r3
 8002eaa:	67d0      	str	r0, [r2, #124]	; 0x7c
}
 8002eac:	4770      	bx	lr
 8002eae:	bf00      	nop
 8002eb0:	50004000 	.word	0x50004000

08002eb4 <XMC_SCU_INTERRUPT_DisableEvent>:

/* API to disable the SCU event */
void XMC_SCU_INTERRUPT_DisableEvent(const XMC_SCU_INTERRUPT_EVENT_t event)
{
  SCU_INTERRUPT->SRMSK &= (uint32_t)~event;
 8002eb4:	4a02      	ldr	r2, [pc, #8]	; (8002ec0 <XMC_SCU_INTERRUPT_DisableEvent+0xc>)
 8002eb6:	6fd3      	ldr	r3, [r2, #124]	; 0x7c
 8002eb8:	ea23 0000 	bic.w	r0, r3, r0
 8002ebc:	67d0      	str	r0, [r2, #124]	; 0x7c
}
 8002ebe:	4770      	bx	lr
 8002ec0:	50004000 	.word	0x50004000

08002ec4 <XMC_SCU_INTERRUPT_TriggerEvent>:

/* API to trigger the SCU event */
void XMC_SCU_INTERRUPT_TriggerEvent(const XMC_SCU_INTERRUPT_EVENT_t event)
{
  SCU_INTERRUPT->SRSET |= (uint32_t)event;
 8002ec4:	4a03      	ldr	r2, [pc, #12]	; (8002ed4 <XMC_SCU_INTERRUPT_TriggerEvent+0x10>)
 8002ec6:	f8d2 3084 	ldr.w	r3, [r2, #132]	; 0x84
 8002eca:	4318      	orrs	r0, r3
 8002ecc:	f8c2 0084 	str.w	r0, [r2, #132]	; 0x84
}
 8002ed0:	4770      	bx	lr
 8002ed2:	bf00      	nop
 8002ed4:	50004000 	.word	0x50004000

08002ed8 <XMC_SCU_INTERUPT_GetEventStatus>:

/* API to retrieve the SCU event status */
XMC_SCU_INTERRUPT_EVENT_t XMC_SCU_INTERUPT_GetEventStatus(void)
{
  return (SCU_INTERRUPT->SRRAW);
 8002ed8:	4b01      	ldr	r3, [pc, #4]	; (8002ee0 <XMC_SCU_INTERUPT_GetEventStatus+0x8>)
 8002eda:	6f98      	ldr	r0, [r3, #120]	; 0x78
}
 8002edc:	4770      	bx	lr
 8002ede:	bf00      	nop
 8002ee0:	50004000 	.word	0x50004000

08002ee4 <XMC_SCU_INTERRUPT_ClearEventStatus>:

/* API to clear the SCU event status */
void XMC_SCU_INTERRUPT_ClearEventStatus(const XMC_SCU_INTERRUPT_EVENT_t event)
{
  SCU_INTERRUPT->SRCLR = (uint32_t)event;
 8002ee4:	4b01      	ldr	r3, [pc, #4]	; (8002eec <XMC_SCU_INTERRUPT_ClearEventStatus+0x8>)
 8002ee6:	f8c3 0080 	str.w	r0, [r3, #128]	; 0x80
}
 8002eea:	4770      	bx	lr
 8002eec:	50004000 	.word	0x50004000

08002ef0 <XMC_SCU_GetBootMode>:


/* API to retrieve the currently deployed device bootmode */
uint32_t XMC_SCU_GetBootMode(void)
{
  return (uint32_t)(SCU_GENERAL->STCON & SCU_GENERAL_STCON_SWCON_Msk);
 8002ef0:	4b02      	ldr	r3, [pc, #8]	; (8002efc <XMC_SCU_GetBootMode+0xc>)
 8002ef2:	6918      	ldr	r0, [r3, #16]
}
 8002ef4:	f400 6070 	and.w	r0, r0, #3840	; 0xf00
 8002ef8:	4770      	bx	lr
 8002efa:	bf00      	nop
 8002efc:	50004000 	.word	0x50004000

08002f00 <XMC_SCU_SetBootMode>:

/* API to program a new device bootmode */
void XMC_SCU_SetBootMode(const XMC_SCU_BOOTMODE_t bootmode)
{
  SCU_GENERAL->STCON = (uint32_t)bootmode;
 8002f00:	4b01      	ldr	r3, [pc, #4]	; (8002f08 <XMC_SCU_SetBootMode+0x8>)
 8002f02:	6118      	str	r0, [r3, #16]
}
 8002f04:	4770      	bx	lr
 8002f06:	bf00      	nop
 8002f08:	50004000 	.word	0x50004000

08002f0c <XMC_SCU_ReadGPR>:

/* API to read from General purpose register */
uint32_t XMC_SCU_ReadGPR(const uint32_t index)
{
  return (SCU_GENERAL->GPR[index]);
 8002f0c:	4b02      	ldr	r3, [pc, #8]	; (8002f18 <XMC_SCU_ReadGPR+0xc>)
 8002f0e:	0080      	lsls	r0, r0, #2
 8002f10:	4403      	add	r3, r0
 8002f12:	6858      	ldr	r0, [r3, #4]
}
 8002f14:	4770      	bx	lr
 8002f16:	bf00      	nop
 8002f18:	50004028 	.word	0x50004028

08002f1c <XMC_SCU_WriteGPR>:

/* API to write to GPR */
void XMC_SCU_WriteGPR(const uint32_t index, const uint32_t data)
{
  SCU_GENERAL->GPR[index] = data;
 8002f1c:	4b02      	ldr	r3, [pc, #8]	; (8002f28 <XMC_SCU_WriteGPR+0xc>)
 8002f1e:	0080      	lsls	r0, r0, #2
 8002f20:	4403      	add	r3, r0
 8002f22:	6059      	str	r1, [r3, #4]
}
 8002f24:	4770      	bx	lr
 8002f26:	bf00      	nop
 8002f28:	50004028 	.word	0x50004028

08002f2c <XMC_SCU_EnableOutOfRangeComparator>:
void XMC_SCU_EnableOutOfRangeComparator(const uint32_t group, const uint32_t channel)
{
  XMC_ASSERT("XMC_SCU_EnableOutOfangeComparator:Wrong Group Number",XMC_SCU_CHECK_GRPNUM(group));
  XMC_ASSERT("XMC_SCU_EnableOutOfangeComparator:Wrong Channel Number",XMC_SCU_CHECK_CHNUM(channel));
   
  SCU_GENERAL->GORCEN[group] |= (uint32_t)(1UL << channel);
 8002f2c:	0080      	lsls	r0, r0, #2
 8002f2e:	f100 40a0 	add.w	r0, r0, #1342177280	; 0x50000000
 8002f32:	f500 4080 	add.w	r0, r0, #16384	; 0x4000
 8002f36:	2301      	movs	r3, #1
 8002f38:	f8d0 20a0 	ldr.w	r2, [r0, #160]	; 0xa0
 8002f3c:	fa03 f101 	lsl.w	r1, r3, r1
 8002f40:	4311      	orrs	r1, r2
 8002f42:	f8c0 10a0 	str.w	r1, [r0, #160]	; 0xa0
}
 8002f46:	4770      	bx	lr

08002f48 <XMC_SCU_DisableOutOfRangeComparator>:
void XMC_SCU_DisableOutOfRangeComparator(const uint32_t group, const uint32_t channel)
{
  XMC_ASSERT("XMC_SCU_DisableOutOfRangeComparator:Wrong Group Number",XMC_SCU_CHECK_GRPNUM(group));
  XMC_ASSERT("XMC_SCU_DisableOutOfRangeComparator:Wrong Channel Number",XMC_SCU_CHECK_CHNUM(channel));
   
  SCU_GENERAL->GORCEN[group] &= (uint32_t)~(1UL << channel);
 8002f48:	0080      	lsls	r0, r0, #2
 8002f4a:	f100 40a0 	add.w	r0, r0, #1342177280	; 0x50000000
 8002f4e:	f500 4080 	add.w	r0, r0, #16384	; 0x4000
 8002f52:	2201      	movs	r2, #1
 8002f54:	f8d0 30a0 	ldr.w	r3, [r0, #160]	; 0xa0
 8002f58:	fa02 f101 	lsl.w	r1, r2, r1
 8002f5c:	ea23 0301 	bic.w	r3, r3, r1
 8002f60:	f8c0 30a0 	str.w	r3, [r0, #160]	; 0xa0
}
 8002f64:	4770      	bx	lr
 8002f66:	bf00      	nop

08002f68 <XMC_SCU_CalibrateTemperatureSensor>:

/* API to calibrate temperature sensor */
void XMC_SCU_CalibrateTemperatureSensor(uint32_t offset, uint32_t gain)
{
  SCU_GENERAL->DTSCON = ((uint32_t)(offset << SCU_GENERAL_DTSCON_OFFSET_Pos) |
                        (uint32_t)(gain << SCU_GENERAL_DTSCON_GAIN_Pos) |
 8002f68:	02c9      	lsls	r1, r1, #11
  SCU_GENERAL->DTSCON = ((uint32_t)(offset << SCU_GENERAL_DTSCON_OFFSET_Pos) |
 8002f6a:	4b04      	ldr	r3, [pc, #16]	; (8002f7c <XMC_SCU_CalibrateTemperatureSensor+0x14>)
 8002f6c:	ea41 1100 	orr.w	r1, r1, r0, lsl #4
                        (uint32_t)(0x4UL << SCU_GENERAL_DTSCON_REFTRIM_Pos) |
 8002f70:	f441 0108 	orr.w	r1, r1, #8912896	; 0x880000
  SCU_GENERAL->DTSCON = ((uint32_t)(offset << SCU_GENERAL_DTSCON_OFFSET_Pos) |
 8002f74:	f8c3 108c 	str.w	r1, [r3, #140]	; 0x8c
                        (uint32_t)(0x8UL << SCU_GENERAL_DTSCON_BGTRIM_Pos));
}
 8002f78:	4770      	bx	lr
 8002f7a:	bf00      	nop
 8002f7c:	50004000 	.word	0x50004000

08002f80 <XMC_SCU_EnableTemperatureSensor>:
/* API to enable die temperature measurement by powering the DTS module. */
void XMC_SCU_EnableTemperatureSensor(void)
{
  SCU_GENERAL->DTSCON &= (uint32_t)~(SCU_GENERAL_DTSCON_PWD_Msk);
 8002f80:	4a03      	ldr	r2, [pc, #12]	; (8002f90 <XMC_SCU_EnableTemperatureSensor+0x10>)
 8002f82:	f8d2 308c 	ldr.w	r3, [r2, #140]	; 0x8c
 8002f86:	f023 0301 	bic.w	r3, r3, #1
 8002f8a:	f8c2 308c 	str.w	r3, [r2, #140]	; 0x8c
}
 8002f8e:	4770      	bx	lr
 8002f90:	50004000 	.word	0x50004000

08002f94 <XMC_SCU_DisableTemperatureSensor>:

/* API to disable die temperature measurement by powering the DTS module off. */
void XMC_SCU_DisableTemperatureSensor(void)
{
  SCU_GENERAL->DTSCON |= (uint32_t)SCU_GENERAL_DTSCON_PWD_Msk;
 8002f94:	4a03      	ldr	r2, [pc, #12]	; (8002fa4 <XMC_SCU_DisableTemperatureSensor+0x10>)
 8002f96:	f8d2 308c 	ldr.w	r3, [r2, #140]	; 0x8c
 8002f9a:	f043 0301 	orr.w	r3, r3, #1
 8002f9e:	f8c2 308c 	str.w	r3, [r2, #140]	; 0x8c
}
 8002fa2:	4770      	bx	lr
 8002fa4:	50004000 	.word	0x50004000

08002fa8 <XMC_SCU_IsTemperatureSensorEnabled>:

/* API to provide the die temperature sensor power status. */
bool XMC_SCU_IsTemperatureSensorEnabled(void)
{
  return ((SCU_GENERAL->DTSCON & SCU_GENERAL_DTSCON_PWD_Msk) == 0U);
 8002fa8:	4b03      	ldr	r3, [pc, #12]	; (8002fb8 <XMC_SCU_IsTemperatureSensorEnabled+0x10>)
 8002faa:	f8d3 008c 	ldr.w	r0, [r3, #140]	; 0x8c
 8002fae:	43c0      	mvns	r0, r0
}
 8002fb0:	f000 0001 	and.w	r0, r0, #1
 8002fb4:	4770      	bx	lr
 8002fb6:	bf00      	nop
 8002fb8:	50004000 	.word	0x50004000

08002fbc <XMC_SCU_IsTemperatureSensorReady>:

/* API to check if the die temperature sensor is ready to start a measurement. */
bool XMC_SCU_IsTemperatureSensorReady(void)
{
  return ((SCU_GENERAL->DTSSTAT & SCU_GENERAL_DTSSTAT_RDY_Msk) != 0U);
 8002fbc:	4b02      	ldr	r3, [pc, #8]	; (8002fc8 <XMC_SCU_IsTemperatureSensorReady+0xc>)
 8002fbe:	f8d3 0090 	ldr.w	r0, [r3, #144]	; 0x90
}
 8002fc2:	f3c0 3080 	ubfx	r0, r0, #14, #1
 8002fc6:	4770      	bx	lr
 8002fc8:	50004000 	.word	0x50004000

08002fcc <XMC_SCU_StartTemperatureMeasurement>:
  return ((SCU_GENERAL->DTSCON & SCU_GENERAL_DTSCON_PWD_Msk) == 0U);
 8002fcc:	4b08      	ldr	r3, [pc, #32]	; (8002ff0 <XMC_SCU_StartTemperatureMeasurement+0x24>)
  {
    status = XMC_SCU_STATUS_BUSY;
  }

  /* And start the measurement */
  SCU_GENERAL->DTSCON |= (uint32_t)SCU_GENERAL_DTSCON_START_Msk;
 8002fce:	4a08      	ldr	r2, [pc, #32]	; (8002ff0 <XMC_SCU_StartTemperatureMeasurement+0x24>)
  return ((SCU_GENERAL->DTSCON & SCU_GENERAL_DTSCON_PWD_Msk) == 0U);
 8002fd0:	f8d3 008c 	ldr.w	r0, [r3, #140]	; 0x8c
}

/* API to know whether Die temperature sensor is busy */
bool XMC_SCU_IsTemperatureSensorBusy(void)
{
  return ((SCU_GENERAL->DTSSTAT & SCU_GENERAL_DTSSTAT_BUSY_Msk) != 0U);
 8002fd4:	f8d3 3090 	ldr.w	r3, [r3, #144]	; 0x90
  if (XMC_SCU_IsTemperatureSensorBusy() == true)
 8002fd8:	041b      	lsls	r3, r3, #16
  SCU_GENERAL->DTSCON |= (uint32_t)SCU_GENERAL_DTSCON_START_Msk;
 8002fda:	f8d2 308c 	ldr.w	r3, [r2, #140]	; 0x8c
 8002fde:	f043 0302 	orr.w	r3, r3, #2
  XMC_SCU_STATUS_t status = XMC_SCU_STATUS_OK;
 8002fe2:	bf54      	ite	pl
 8002fe4:	f000 0001 	andpl.w	r0, r0, #1
    status = XMC_SCU_STATUS_BUSY;
 8002fe8:	2002      	movmi	r0, #2
  SCU_GENERAL->DTSCON |= (uint32_t)SCU_GENERAL_DTSCON_START_Msk;
 8002fea:	f8c2 308c 	str.w	r3, [r2, #140]	; 0x8c
}
 8002fee:	4770      	bx	lr
 8002ff0:	50004000 	.word	0x50004000

08002ff4 <XMC_SCU_GetTemperatureMeasurement>:
  return ((SCU_GENERAL->DTSCON & SCU_GENERAL_DTSCON_PWD_Msk) == 0U);
 8002ff4:	4b05      	ldr	r3, [pc, #20]	; (800300c <XMC_SCU_GetTemperatureMeasurement+0x18>)
 8002ff6:	f8d3 208c 	ldr.w	r2, [r3, #140]	; 0x8c
  if (XMC_SCU_IsTemperatureSensorEnabled() == false)
 8002ffa:	07d2      	lsls	r2, r2, #31
    temperature = (uint32_t)((SCU_GENERAL->DTSSTAT & SCU_GENERAL_DTSSTAT_RESULT_Msk) >> SCU_GENERAL_DTSSTAT_RESULT_Pos);
 8002ffc:	bf5a      	itte	pl
 8002ffe:	f8d3 0090 	ldrpl.w	r0, [r3, #144]	; 0x90
 8003002:	f3c0 0009 	ubfxpl	r0, r0, #0, #10
    temperature = 0x7FFFFFFFUL;
 8003006:	f06f 4000 	mvnmi.w	r0, #2147483648	; 0x80000000
}
 800300a:	4770      	bx	lr
 800300c:	50004000 	.word	0x50004000

08003010 <XMC_SCU_IsTemperatureSensorBusy>:
  return ((SCU_GENERAL->DTSSTAT & SCU_GENERAL_DTSSTAT_BUSY_Msk) != 0U);
 8003010:	4b02      	ldr	r3, [pc, #8]	; (800301c <XMC_SCU_IsTemperatureSensorBusy+0xc>)
 8003012:	f8d3 0090 	ldr.w	r0, [r3, #144]	; 0x90
}
 8003016:	f3c0 30c0 	ubfx	r0, r0, #15, #1
 800301a:	4770      	bx	lr
 800301c:	50004000 	.word	0x50004000

08003020 <XMC_SCU_WriteToRetentionMemory>:
void XMC_SCU_WriteToRetentionMemory(uint32_t address, uint32_t data)
{
  uint32_t rmacr;
  
  /* Get the address right */  
  rmacr = (uint32_t)((address << SCU_GENERAL_RMACR_ADDR_Pos) & (uint32_t)SCU_GENERAL_RMACR_ADDR_Msk);
 8003020:	0400      	lsls	r0, r0, #16
  
  /* Transfer from RMDATA to Retention memory */
  rmacr |= (uint32_t)(SCU_GENERAL_RMACR_RDWR_Msk);
  
  /* Write desired data into RMDATA register */  
  SCU_GENERAL->RMDATA = data;
 8003022:	4a07      	ldr	r2, [pc, #28]	; (8003040 <XMC_SCU_WriteToRetentionMemory+0x20>)
  rmacr = (uint32_t)((address << SCU_GENERAL_RMACR_ADDR_Pos) & (uint32_t)SCU_GENERAL_RMACR_ADDR_Msk);
 8003024:	f400 2070 	and.w	r0, r0, #983040	; 0xf0000
  rmacr |= (uint32_t)(SCU_GENERAL_RMACR_RDWR_Msk);
 8003028:	f040 0001 	orr.w	r0, r0, #1
  SCU_GENERAL->RMDATA = data;
 800302c:	f8c2 10cc 	str.w	r1, [r2, #204]	; 0xcc
  
  /* Write address & direction of transfer into RMACR register */  
  SCU_GENERAL->RMACR = rmacr;
 8003030:	f8c2 00c8 	str.w	r0, [r2, #200]	; 0xc8
  
  /* Wait until the update of RMX register in hibernate domain is completed */
  while((SCU_GENERAL->MIRRSTS) & SCU_GENERAL_MIRRSTS_RMX_Msk)
 8003034:	f8d2 30c4 	ldr.w	r3, [r2, #196]	; 0xc4
 8003038:	049b      	lsls	r3, r3, #18
 800303a:	d4fb      	bmi.n	8003034 <XMC_SCU_WriteToRetentionMemory+0x14>
  {
  }
}
 800303c:	4770      	bx	lr
 800303e:	bf00      	nop
 8003040:	50004000 	.word	0x50004000

08003044 <XMC_SCU_ReadFromRetentionMemory>:
  
  /* Transfer from RMDATA to Retention memory */
  rmacr &= ~((uint32_t)(SCU_GENERAL_RMACR_RDWR_Msk));
  
  /* Writing an adress & direction of transfer into RMACR register */  
  SCU_GENERAL->RMACR = rmacr;
 8003044:	4a06      	ldr	r2, [pc, #24]	; (8003060 <XMC_SCU_ReadFromRetentionMemory+0x1c>)
  rmacr = ((uint32_t)(address << SCU_GENERAL_RMACR_ADDR_Pos) & (uint32_t)SCU_GENERAL_RMACR_ADDR_Msk);
 8003046:	0400      	lsls	r0, r0, #16
 8003048:	f400 2070 	and.w	r0, r0, #983040	; 0xf0000
  SCU_GENERAL->RMACR = rmacr;
 800304c:	f8c2 00c8 	str.w	r0, [r2, #200]	; 0xc8
  
  /* Wait until the update of RMX register in hibernate domain is completed */
  while((SCU_GENERAL->MIRRSTS) & SCU_GENERAL_MIRRSTS_RMX_Msk)
 8003050:	f8d2 30c4 	ldr.w	r3, [r2, #196]	; 0xc4
 8003054:	049b      	lsls	r3, r3, #18
 8003056:	d4fb      	bmi.n	8003050 <XMC_SCU_ReadFromRetentionMemory+0xc>
  {
  }

  return (SCU_GENERAL->RMDATA);
 8003058:	f8d2 00cc 	ldr.w	r0, [r2, #204]	; 0xcc
}
 800305c:	4770      	bx	lr
 800305e:	bf00      	nop
 8003060:	50004000 	.word	0x50004000

08003064 <XMC_SCU_TRAP_Enable>:
}

/* API to enable a trap source */
void XMC_SCU_TRAP_Enable(const uint32_t trap)
{
  SCU_TRAP->TRAPDIS &= (uint32_t)~trap;
 8003064:	4a02      	ldr	r2, [pc, #8]	; (8003070 <XMC_SCU_TRAP_Enable+0xc>)
 8003066:	6e93      	ldr	r3, [r2, #104]	; 0x68
 8003068:	ea23 0000 	bic.w	r0, r3, r0
 800306c:	6690      	str	r0, [r2, #104]	; 0x68
}
 800306e:	4770      	bx	lr
 8003070:	50004100 	.word	0x50004100

08003074 <XMC_SCU_TRAP_Disable>:

/* API to disable a trap source */
void XMC_SCU_TRAP_Disable(const uint32_t trap)
{
  SCU_TRAP->TRAPDIS |= (uint32_t)trap;
 8003074:	4a02      	ldr	r2, [pc, #8]	; (8003080 <XMC_SCU_TRAP_Disable+0xc>)
 8003076:	6e93      	ldr	r3, [r2, #104]	; 0x68
 8003078:	4318      	orrs	r0, r3
 800307a:	6690      	str	r0, [r2, #104]	; 0x68
}
 800307c:	4770      	bx	lr
 800307e:	bf00      	nop
 8003080:	50004100 	.word	0x50004100

08003084 <XMC_SCU_TRAP_GetStatus>:

/* API to determine if a trap source has generated event */
uint32_t XMC_SCU_TRAP_GetStatus(void)
{
  return (SCU_TRAP->TRAPRAW);
 8003084:	4b01      	ldr	r3, [pc, #4]	; (800308c <XMC_SCU_TRAP_GetStatus+0x8>)
 8003086:	6e58      	ldr	r0, [r3, #100]	; 0x64
}
 8003088:	4770      	bx	lr
 800308a:	bf00      	nop
 800308c:	50004100 	.word	0x50004100

08003090 <XMC_SCU_TRAP_Trigger>:

/* API to manually trigger a trap event */
void XMC_SCU_TRAP_Trigger(const uint32_t trap)
{
  SCU_TRAP->TRAPSET = (uint32_t)trap;
 8003090:	4b01      	ldr	r3, [pc, #4]	; (8003098 <XMC_SCU_TRAP_Trigger+0x8>)
 8003092:	6718      	str	r0, [r3, #112]	; 0x70
}
 8003094:	4770      	bx	lr
 8003096:	bf00      	nop
 8003098:	50004100 	.word	0x50004100

0800309c <XMC_SCU_TRAP_ClearStatus>:

/* API to clear a trap event */
void XMC_SCU_TRAP_ClearStatus(const uint32_t trap)
{
  SCU_TRAP->TRAPCLR = (uint32_t)trap;
 800309c:	4b01      	ldr	r3, [pc, #4]	; (80030a4 <XMC_SCU_TRAP_ClearStatus+0x8>)
 800309e:	66d8      	str	r0, [r3, #108]	; 0x6c
}
 80030a0:	4770      	bx	lr
 80030a2:	bf00      	nop
 80030a4:	50004100 	.word	0x50004100

080030a8 <XMC_SCU_PARITY_ClearStatus>:

/* API to clear parity error event */
void XMC_SCU_PARITY_ClearStatus(const uint32_t memory)
{
  SCU_PARITY->PEFLAG |= (uint32_t)memory; 
 80030a8:	4a02      	ldr	r2, [pc, #8]	; (80030b4 <XMC_SCU_PARITY_ClearStatus+0xc>)
 80030aa:	6d13      	ldr	r3, [r2, #80]	; 0x50
 80030ac:	4318      	orrs	r0, r3
 80030ae:	6510      	str	r0, [r2, #80]	; 0x50
}
 80030b0:	4770      	bx	lr
 80030b2:	bf00      	nop
 80030b4:	50004100 	.word	0x50004100

080030b8 <XMC_SCU_PARITY_GetStatus>:

/* API to determine if the specified parity error has occured or not */
uint32_t XMC_SCU_PARITY_GetStatus(void)
{
  return (SCU_PARITY->PEFLAG);
 80030b8:	4b01      	ldr	r3, [pc, #4]	; (80030c0 <XMC_SCU_PARITY_GetStatus+0x8>)
 80030ba:	6d18      	ldr	r0, [r3, #80]	; 0x50
} 
 80030bc:	4770      	bx	lr
 80030be:	bf00      	nop
 80030c0:	50004100 	.word	0x50004100

080030c4 <XMC_SCU_PARITY_Enable>:

/* API to enable parity error checking for the selected on-chip RAM type */
void XMC_SCU_PARITY_Enable(const uint32_t memory)
{
  SCU_PARITY->PEEN |= (uint32_t)memory; 
 80030c4:	4a02      	ldr	r2, [pc, #8]	; (80030d0 <XMC_SCU_PARITY_Enable+0xc>)
 80030c6:	6bd3      	ldr	r3, [r2, #60]	; 0x3c
 80030c8:	4318      	orrs	r0, r3
 80030ca:	63d0      	str	r0, [r2, #60]	; 0x3c
}
 80030cc:	4770      	bx	lr
 80030ce:	bf00      	nop
 80030d0:	50004100 	.word	0x50004100

080030d4 <XMC_SCU_PARITY_Disable>:

/* API to disable parity error checking for the selected on-chip RAM type */
void XMC_SCU_PARITY_Disable(const uint32_t memory)
{
  SCU_PARITY->PEEN &= (uint32_t)~memory; 
 80030d4:	4a02      	ldr	r2, [pc, #8]	; (80030e0 <XMC_SCU_PARITY_Disable+0xc>)
 80030d6:	6bd3      	ldr	r3, [r2, #60]	; 0x3c
 80030d8:	ea23 0000 	bic.w	r0, r3, r0
 80030dc:	63d0      	str	r0, [r2, #60]	; 0x3c
}
 80030de:	4770      	bx	lr
 80030e0:	50004100 	.word	0x50004100

080030e4 <XMC_SCU_PARITY_EnableTrapGeneration>:

/* API to enable trap assertion for the parity error source */
void XMC_SCU_PARITY_EnableTrapGeneration(const uint32_t memory)
{
  SCU_PARITY->PETE |= (uint32_t)memory; 
 80030e4:	4a02      	ldr	r2, [pc, #8]	; (80030f0 <XMC_SCU_PARITY_EnableTrapGeneration+0xc>)
 80030e6:	6c53      	ldr	r3, [r2, #68]	; 0x44
 80030e8:	4318      	orrs	r0, r3
 80030ea:	6450      	str	r0, [r2, #68]	; 0x44
}
 80030ec:	4770      	bx	lr
 80030ee:	bf00      	nop
 80030f0:	50004100 	.word	0x50004100

080030f4 <XMC_SCU_PARITY_DisableTrapGeneration>:

/* API to disable the assertion of trap for the parity error source */
void XMC_SCU_PARITY_DisableTrapGeneration(const uint32_t memory)
{
  SCU_PARITY->PETE &= (uint32_t)~memory; 
 80030f4:	4a02      	ldr	r2, [pc, #8]	; (8003100 <XMC_SCU_PARITY_DisableTrapGeneration+0xc>)
 80030f6:	6c53      	ldr	r3, [r2, #68]	; 0x44
 80030f8:	ea23 0000 	bic.w	r0, r3, r0
 80030fc:	6450      	str	r0, [r2, #68]	; 0x44
}
 80030fe:	4770      	bx	lr
 8003100:	50004100 	.word	0x50004100

08003104 <XMC_SCU_INTERRUPT_EnableNmiRequest>:

/* Enables a NMI source */
void XMC_SCU_INTERRUPT_EnableNmiRequest(const uint32_t request)
{
  SCU_INTERRUPT->NMIREQEN |= (uint32_t)request;
 8003104:	4a03      	ldr	r2, [pc, #12]	; (8003114 <XMC_SCU_INTERRUPT_EnableNmiRequest+0x10>)
 8003106:	f8d2 3088 	ldr.w	r3, [r2, #136]	; 0x88
 800310a:	4318      	orrs	r0, r3
 800310c:	f8c2 0088 	str.w	r0, [r2, #136]	; 0x88
}
 8003110:	4770      	bx	lr
 8003112:	bf00      	nop
 8003114:	50004000 	.word	0x50004000

08003118 <XMC_SCU_INTERRUPT_DisableNmiRequest>:

/* Disables a NMI source */
void XMC_SCU_INTERRUPT_DisableNmiRequest(const uint32_t request)
{
  SCU_INTERRUPT->NMIREQEN &= (uint32_t)~request;
 8003118:	4a03      	ldr	r2, [pc, #12]	; (8003128 <XMC_SCU_INTERRUPT_DisableNmiRequest+0x10>)
 800311a:	f8d2 3088 	ldr.w	r3, [r2, #136]	; 0x88
 800311e:	ea23 0000 	bic.w	r0, r3, r0
 8003122:	f8c2 0088 	str.w	r0, [r2, #136]	; 0x88
}
 8003126:	4770      	bx	lr
 8003128:	50004000 	.word	0x50004000

0800312c <XMC_SCU_RESET_AssertPeripheralReset>:

/* API to manually assert a reset request */
void XMC_SCU_RESET_AssertPeripheralReset(const XMC_SCU_PERIPHERAL_RESET_t peripheral)
{
  uint32_t index = (uint32_t)((((uint32_t)peripheral) & 0xf0000000UL) >> 28UL);
 800312c:	0f03      	lsrs	r3, r0, #28
  uint32_t mask = (((uint32_t)peripheral) & ((uint32_t)~0xf0000000UL));

  *(uint32_t *)(&(SCU_RESET->PRSET0) + (index * 3U)) = (uint32_t)mask;
 800312e:	4a04      	ldr	r2, [pc, #16]	; (8003140 <XMC_SCU_RESET_AssertPeripheralReset+0x14>)
 8003130:	eb03 0343 	add.w	r3, r3, r3, lsl #1
  uint32_t mask = (((uint32_t)peripheral) & ((uint32_t)~0xf0000000UL));
 8003134:	f020 4070 	bic.w	r0, r0, #4026531840	; 0xf0000000
  *(uint32_t *)(&(SCU_RESET->PRSET0) + (index * 3U)) = (uint32_t)mask;
 8003138:	f842 0023 	str.w	r0, [r2, r3, lsl #2]
}
 800313c:	4770      	bx	lr
 800313e:	bf00      	nop
 8003140:	50004410 	.word	0x50004410

08003144 <XMC_SCU_RESET_DeassertPeripheralReset>:

/* API to manually de-assert a reset request */
void XMC_SCU_RESET_DeassertPeripheralReset(const XMC_SCU_PERIPHERAL_RESET_t peripheral)
{
  uint32_t index = (uint32_t)((((uint32_t)peripheral) & 0xf0000000UL) >> 28UL);
 8003144:	0f03      	lsrs	r3, r0, #28
  uint32_t mask = (((uint32_t)peripheral) & ((uint32_t)~0xf0000000UL));

  *(uint32_t *)(&(SCU_RESET->PRCLR0) + (index * 3U)) = (uint32_t)mask;
 8003146:	4a04      	ldr	r2, [pc, #16]	; (8003158 <XMC_SCU_RESET_DeassertPeripheralReset+0x14>)
 8003148:	eb03 0343 	add.w	r3, r3, r3, lsl #1
  uint32_t mask = (((uint32_t)peripheral) & ((uint32_t)~0xf0000000UL));
 800314c:	f020 4070 	bic.w	r0, r0, #4026531840	; 0xf0000000
  *(uint32_t *)(&(SCU_RESET->PRCLR0) + (index * 3U)) = (uint32_t)mask;
 8003150:	f842 0023 	str.w	r0, [r2, r3, lsl #2]
}
 8003154:	4770      	bx	lr
 8003156:	bf00      	nop
 8003158:	50004414 	.word	0x50004414

0800315c <XMC_SCU_RESET_IsPeripheralResetAsserted>:

/* Find out if the peripheral reset is asserted */
bool XMC_SCU_RESET_IsPeripheralResetAsserted(const XMC_SCU_PERIPHERAL_RESET_t peripheral)
{
  uint32_t index = (uint32_t)((((uint32_t)peripheral) & 0xf0000000UL) >> 28UL);
 800315c:	0f03      	lsrs	r3, r0, #28
  uint32_t mask = (((uint32_t)peripheral) & ((uint32_t)~0xf0000000UL));

  return ((*(uint32_t *)(&(SCU_RESET->PRSTAT0) + (index * 3U)) & mask) != 0U);
 800315e:	4a06      	ldr	r2, [pc, #24]	; (8003178 <XMC_SCU_RESET_IsPeripheralResetAsserted+0x1c>)
 8003160:	eb03 0343 	add.w	r3, r3, r3, lsl #1
 8003164:	f852 3023 	ldr.w	r3, [r2, r3, lsl #2]
 8003168:	4018      	ands	r0, r3
 800316a:	f030 4370 	bics.w	r3, r0, #4026531840	; 0xf0000000
}
 800316e:	bf14      	ite	ne
 8003170:	2001      	movne	r0, #1
 8003172:	2000      	moveq	r0, #0
 8003174:	4770      	bx	lr
 8003176:	bf00      	nop
 8003178:	5000440c 	.word	0x5000440c

0800317c <XMC_SCU_CLOCK_GetSystemPllClockFrequency>:
uint32_t XMC_SCU_CLOCK_GetSystemPllClockSourceFrequency(void)
{
  uint32_t clock_frequency;

  /* Prescalar mode - fOSC is the parent*/
  if((SCU_PLL->PLLCON2 & SCU_PLL_PLLCON2_PINSEL_Msk) == (uint32_t)XMC_SCU_CLOCK_SYSPLLCLKSRC_OSCHP)
 800317c:	4b12      	ldr	r3, [pc, #72]	; (80031c8 <XMC_SCU_CLOCK_GetSystemPllClockFrequency+0x4c>)
 800317e:	69db      	ldr	r3, [r3, #28]
 8003180:	07da      	lsls	r2, r3, #31
{
 8003182:	b510      	push	{r4, lr}
  if((SCU_PLL->PLLCON2 & SCU_PLL_PLLCON2_PINSEL_Msk) == (uint32_t)XMC_SCU_CLOCK_SYSPLLCLKSRC_OSCHP)
 8003184:	d51c      	bpl.n	80031c0 <XMC_SCU_CLOCK_GetSystemPllClockFrequency+0x44>
  {
    clock_frequency = OSCHP_GetFrequency();
  }
  else
  {
    clock_frequency = OFI_FREQUENCY;
 8003186:	4811      	ldr	r0, [pc, #68]	; (80031cc <XMC_SCU_CLOCK_GetSystemPllClockFrequency+0x50>)
  if(SCU_PLL->PLLSTAT & SCU_PLL_PLLSTAT_VCOBYST_Msk)
 8003188:	4a0f      	ldr	r2, [pc, #60]	; (80031c8 <XMC_SCU_CLOCK_GetSystemPllClockFrequency+0x4c>)
 800318a:	6913      	ldr	r3, [r2, #16]
 800318c:	07db      	lsls	r3, r3, #31
 800318e:	d506      	bpl.n	800319e <XMC_SCU_CLOCK_GetSystemPllClockFrequency+0x22>
                      ((((SCU_PLL->PLLCON1) & SCU_PLL_PLLCON1_K1DIV_Msk) >> SCU_PLL_PLLCON1_K1DIV_Pos) + 1UL));
 8003190:	6993      	ldr	r3, [r2, #24]
 8003192:	f003 037f 	and.w	r3, r3, #127	; 0x7f
 8003196:	3301      	adds	r3, #1
    clock_frequency = (uint32_t)(clock_frequency / 
 8003198:	fbb0 f0f3 	udiv	r0, r0, r3
}
 800319c:	bd10      	pop	{r4, pc}
    p_div  = (uint32_t)((((SCU_PLL->PLLCON1) & SCU_PLL_PLLCON1_PDIV_Msk) >> SCU_PLL_PLLCON1_PDIV_Pos) + 1UL);
 800319e:	6991      	ldr	r1, [r2, #24]
    n_div  = (uint32_t)((((SCU_PLL->PLLCON1) & SCU_PLL_PLLCON1_NDIV_Msk) >> SCU_PLL_PLLCON1_NDIV_Pos) + 1UL);
 80031a0:	6994      	ldr	r4, [r2, #24]
    k2_div = (uint32_t)((((SCU_PLL->PLLCON1) & SCU_PLL_PLLCON1_K2DIV_Msk) >> SCU_PLL_PLLCON1_K2DIV_Pos) + 1UL);
 80031a2:	6993      	ldr	r3, [r2, #24]
 80031a4:	f3c3 4306 	ubfx	r3, r3, #16, #7
    n_div  = (uint32_t)((((SCU_PLL->PLLCON1) & SCU_PLL_PLLCON1_NDIV_Msk) >> SCU_PLL_PLLCON1_NDIV_Pos) + 1UL);
 80031a8:	f3c4 2c06 	ubfx	ip, r4, #8, #7
    p_div  = (uint32_t)((((SCU_PLL->PLLCON1) & SCU_PLL_PLLCON1_PDIV_Msk) >> SCU_PLL_PLLCON1_PDIV_Pos) + 1UL);
 80031ac:	f3c1 6203 	ubfx	r2, r1, #24, #4
    k2_div = (uint32_t)((((SCU_PLL->PLLCON1) & SCU_PLL_PLLCON1_K2DIV_Msk) >> SCU_PLL_PLLCON1_K2DIV_Pos) + 1UL);
 80031b0:	3301      	adds	r3, #1
    clock_frequency = (clock_frequency * n_div) / (p_div * k2_div);
 80031b2:	fb0c 0000 	mla	r0, ip, r0, r0
 80031b6:	fb02 3303 	mla	r3, r2, r3, r3
 80031ba:	fbb0 f0f3 	udiv	r0, r0, r3
}
 80031be:	bd10      	pop	{r4, pc}
    clock_frequency = OSCHP_GetFrequency();
 80031c0:	f001 f8ba 	bl	8004338 <OSCHP_GetFrequency>
 80031c4:	e7e0      	b.n	8003188 <XMC_SCU_CLOCK_GetSystemPllClockFrequency+0xc>
 80031c6:	bf00      	nop
 80031c8:	50004700 	.word	0x50004700
 80031cc:	016e3600 	.word	0x016e3600

080031d0 <XMC_SCU_CLOCK_GetSystemPllClockSourceFrequency>:
  if((SCU_PLL->PLLCON2 & SCU_PLL_PLLCON2_PINSEL_Msk) == (uint32_t)XMC_SCU_CLOCK_SYSPLLCLKSRC_OSCHP)
 80031d0:	4b03      	ldr	r3, [pc, #12]	; (80031e0 <XMC_SCU_CLOCK_GetSystemPllClockSourceFrequency+0x10>)
 80031d2:	69db      	ldr	r3, [r3, #28]
 80031d4:	07db      	lsls	r3, r3, #31
 80031d6:	d501      	bpl.n	80031dc <XMC_SCU_CLOCK_GetSystemPllClockSourceFrequency+0xc>
  }
  
  return (clock_frequency);
}
 80031d8:	4802      	ldr	r0, [pc, #8]	; (80031e4 <XMC_SCU_CLOCK_GetSystemPllClockSourceFrequency+0x14>)
 80031da:	4770      	bx	lr
    clock_frequency = OSCHP_GetFrequency();
 80031dc:	f001 b8ac 	b.w	8004338 <OSCHP_GetFrequency>
 80031e0:	50004700 	.word	0x50004700
 80031e4:	016e3600 	.word	0x016e3600

080031e8 <XMC_SCU_CLOCK_GetUsbPllClockFrequency>:

/*
 * API to retrieve frequency of USB PLL output clock
 */
uint32_t XMC_SCU_CLOCK_GetUsbPllClockFrequency(void)
{
 80031e8:	b508      	push	{r3, lr}
  uint32_t clock_frequency;
  uint32_t n_div;
  uint32_t p_div;
  
  clock_frequency = OSCHP_GetFrequency();
 80031ea:	f001 f8a5 	bl	8004338 <OSCHP_GetFrequency>
  if((SCU_PLL->USBPLLSTAT & SCU_PLL_USBPLLSTAT_VCOBYST_Msk) == 0U)
 80031ee:	4b08      	ldr	r3, [pc, #32]	; (8003210 <XMC_SCU_CLOCK_GetUsbPllClockFrequency+0x28>)
 80031f0:	6a1a      	ldr	r2, [r3, #32]
 80031f2:	07d2      	lsls	r2, r2, #31
 80031f4:	d40b      	bmi.n	800320e <XMC_SCU_CLOCK_GetUsbPllClockFrequency+0x26>
  {
    /* Normal mode - fVCO is the parent*/
    n_div = (uint32_t)((((SCU_PLL->USBPLLCON) & SCU_PLL_USBPLLCON_NDIV_Msk) >> SCU_PLL_USBPLLCON_NDIV_Pos) + 1UL);
 80031f6:	6a5a      	ldr	r2, [r3, #36]	; 0x24
    p_div = (uint32_t)((((SCU_PLL->USBPLLCON) & SCU_PLL_USBPLLCON_PDIV_Msk) >> SCU_PLL_USBPLLCON_PDIV_Pos) + 1UL);
 80031f8:	6a5b      	ldr	r3, [r3, #36]	; 0x24
 80031fa:	f3c3 6303 	ubfx	r3, r3, #24, #4
    n_div = (uint32_t)((((SCU_PLL->USBPLLCON) & SCU_PLL_USBPLLCON_NDIV_Msk) >> SCU_PLL_USBPLLCON_NDIV_Pos) + 1UL);
 80031fe:	f3c2 2206 	ubfx	r2, r2, #8, #7
    p_div = (uint32_t)((((SCU_PLL->USBPLLCON) & SCU_PLL_USBPLLCON_PDIV_Msk) >> SCU_PLL_USBPLLCON_PDIV_Pos) + 1UL);
 8003202:	3301      	adds	r3, #1
    clock_frequency = (uint32_t)((clock_frequency * n_div)/ (uint32_t)(p_div * 2UL));
 8003204:	fb02 0000 	mla	r0, r2, r0, r0
 8003208:	005b      	lsls	r3, r3, #1
 800320a:	fbb0 f0f3 	udiv	r0, r0, r3
  }
  return (clock_frequency);
}
 800320e:	bd08      	pop	{r3, pc}
 8003210:	50004700 	.word	0x50004700

08003214 <XMC_SCU_CLOCK_GetCcuClockFrequency>:
 * \par<b>Related APIs:</b><BR>
 * XMC_SCU_CLOCK_GetUsbPllClockFrequency() \n\n\n
 */
__STATIC_INLINE uint32_t XMC_SCU_CLOCK_GetSystemClockFrequency(void)
{
  return SystemCoreClock << ((SCU_CLK->CPUCLKCR & SCU_CLK_CPUCLKCR_CPUDIV_Msk) >> SCU_CLK_CPUCLKCR_CPUDIV_Pos);
 8003214:	4b05      	ldr	r3, [pc, #20]	; (800322c <XMC_SCU_CLOCK_GetCcuClockFrequency+0x18>)
 8003216:	4906      	ldr	r1, [pc, #24]	; (8003230 <XMC_SCU_CLOCK_GetCcuClockFrequency+0x1c>)
 8003218:	691a      	ldr	r2, [r3, #16]
 800321a:	6808      	ldr	r0, [r1, #0]
uint32_t XMC_SCU_CLOCK_GetCcuClockFrequency(void)
{
  uint32_t frequency = 0UL;
  frequency = XMC_SCU_CLOCK_GetSystemClockFrequency();
  
  return (uint32_t)(frequency >> ((uint32_t)((SCU_CLK->CCUCLKCR & SCU_CLK_CCUCLKCR_CCUDIV_Msk) >>
 800321c:	6a1b      	ldr	r3, [r3, #32]
 800321e:	f002 0201 	and.w	r2, r2, #1
 8003222:	4090      	lsls	r0, r2
 8003224:	f003 0301 	and.w	r3, r3, #1
                                              SCU_CLK_CCUCLKCR_CCUDIV_Pos)));
}
 8003228:	40d8      	lsrs	r0, r3
 800322a:	4770      	bx	lr
 800322c:	50004600 	.word	0x50004600
 8003230:	2000ffc0 	.word	0x2000ffc0

08003234 <XMC_SCU_CLOCK_GetUsbClockFrequency>:

/*
 * API to retrieve USB and SDMMC clock frequency
 */
uint32_t XMC_SCU_CLOCK_GetUsbClockFrequency(void)
{
 8003234:	b508      	push	{r3, lr}
  return (XMC_SCU_CLOCK_USBCLKSRC_t)(SCU_CLK->USBCLKCR & SCU_CLK_USBCLKCR_USBSEL_Msk);
 8003236:	4b08      	ldr	r3, [pc, #32]	; (8003258 <XMC_SCU_CLOCK_GetUsbClockFrequency+0x24>)
 8003238:	699b      	ldr	r3, [r3, #24]
  uint32_t frequency = 0UL;
  XMC_SCU_CLOCK_USBCLKSRC_t clksrc;

  clksrc = XMC_SCU_CLOCK_GetUsbClockSource();

  if (clksrc == XMC_SCU_CLOCK_USBCLKSRC_SYSPLL)
 800323a:	03db      	lsls	r3, r3, #15
 800323c:	d509      	bpl.n	8003252 <XMC_SCU_CLOCK_GetUsbClockFrequency+0x1e>
  {
    frequency = XMC_SCU_CLOCK_GetSystemPllClockFrequency();
 800323e:	f7ff ff9d 	bl	800317c <XMC_SCU_CLOCK_GetSystemPllClockFrequency>
  }
  else
  {
  }

  return (uint32_t)(frequency / (((SCU_CLK->USBCLKCR & SCU_CLK_USBCLKCR_USBDIV_Msk) >>
 8003242:	4b05      	ldr	r3, [pc, #20]	; (8003258 <XMC_SCU_CLOCK_GetUsbClockFrequency+0x24>)
 8003244:	699b      	ldr	r3, [r3, #24]
 8003246:	f003 0307 	and.w	r3, r3, #7
                                   SCU_CLK_USBCLKCR_USBDIV_Pos) + 1UL));
 800324a:	3301      	adds	r3, #1
}
 800324c:	fbb0 f0f3 	udiv	r0, r0, r3
 8003250:	bd08      	pop	{r3, pc}
    frequency = XMC_SCU_CLOCK_GetUsbPllClockFrequency();
 8003252:	f7ff ffc9 	bl	80031e8 <XMC_SCU_CLOCK_GetUsbPllClockFrequency>
 8003256:	e7f4      	b.n	8003242 <XMC_SCU_CLOCK_GetUsbClockFrequency+0xe>
 8003258:	50004600 	.word	0x50004600

0800325c <XMC_SCU_CLOCK_GetEbuClockFrequency>:
#if defined(EBU)
/*
 * API to retrieve EBU clock frequency
 */
uint32_t XMC_SCU_CLOCK_GetEbuClockFrequency(void)
{
 800325c:	b508      	push	{r3, lr}
  uint32_t frequency = XMC_SCU_CLOCK_GetSystemPllClockFrequency();
 800325e:	f7ff ff8d 	bl	800317c <XMC_SCU_CLOCK_GetSystemPllClockFrequency>
  
  return (uint32_t)((frequency /(((SCU_CLK->EBUCLKCR & SCU_CLK_EBUCLKCR_EBUDIV_Msk) >>
 8003262:	4b04      	ldr	r3, [pc, #16]	; (8003274 <XMC_SCU_CLOCK_GetEbuClockFrequency+0x18>)
 8003264:	69db      	ldr	r3, [r3, #28]
 8003266:	f003 033f 	and.w	r3, r3, #63	; 0x3f
                                   SCU_CLK_EBUCLKCR_EBUDIV_Pos) + 1UL)));
 800326a:	3301      	adds	r3, #1
}
 800326c:	fbb0 f0f3 	udiv	r0, r0, r3
 8003270:	bd08      	pop	{r3, pc}
 8003272:	bf00      	nop
 8003274:	50004600 	.word	0x50004600

08003278 <XMC_SCU_CLOCK_GetWdtClockFrequency>:

/*
 * API to retrieve WDT clock frequency
 */
uint32_t XMC_SCU_CLOCK_GetWdtClockFrequency(void)
{
 8003278:	b508      	push	{r3, lr}
  return (XMC_SCU_CLOCK_WDTCLKSRC_t)(SCU_CLK->WDTCLKCR & SCU_CLK_WDTCLKCR_WDTSEL_Msk);
 800327a:	4b0d      	ldr	r3, [pc, #52]	; (80032b0 <XMC_SCU_CLOCK_GetWdtClockFrequency+0x38>)
 800327c:	6a5b      	ldr	r3, [r3, #36]	; 0x24
 800327e:	f403 3340 	and.w	r3, r3, #196608	; 0x30000
  uint32_t frequency = 0UL;
  XMC_SCU_CLOCK_WDTCLKSRC_t clksrc;

  clksrc = XMC_SCU_CLOCK_GetWdtClockSource();

  if (clksrc == XMC_SCU_CLOCK_WDTCLKSRC_PLL)
 8003282:	f5b3 3f00 	cmp.w	r3, #131072	; 0x20000
 8003286:	d00f      	beq.n	80032a8 <XMC_SCU_CLOCK_GetWdtClockFrequency+0x30>
  {
    frequency = XMC_SCU_CLOCK_GetSystemPllClockFrequency();
  }
  else if (clksrc == XMC_SCU_CLOCK_WDTCLKSRC_OFI)
 8003288:	b163      	cbz	r3, 80032a4 <XMC_SCU_CLOCK_GetWdtClockFrequency+0x2c>
  {
    frequency = OFI_FREQUENCY;
  }
  else if (clksrc == XMC_SCU_CLOCK_WDTCLKSRC_STDBY)
  {
    frequency = OSI_FREQUENCY;
 800328a:	f5b3 3f80 	cmp.w	r3, #65536	; 0x10000
 800328e:	bf14      	ite	ne
 8003290:	2000      	movne	r0, #0
 8003292:	f44f 4000 	moveq.w	r0, #32768	; 0x8000
  else
  {

  }

  return (uint32_t)((frequency / (((SCU_CLK->WDTCLKCR & SCU_CLK_WDTCLKCR_WDTDIV_Msk) >>
 8003296:	4b06      	ldr	r3, [pc, #24]	; (80032b0 <XMC_SCU_CLOCK_GetWdtClockFrequency+0x38>)
 8003298:	6a5b      	ldr	r3, [r3, #36]	; 0x24
 800329a:	b2db      	uxtb	r3, r3
                                    SCU_CLK_WDTCLKCR_WDTDIV_Pos) + 1UL)));
 800329c:	3301      	adds	r3, #1
}
 800329e:	fbb0 f0f3 	udiv	r0, r0, r3
 80032a2:	bd08      	pop	{r3, pc}
    frequency = OFI_FREQUENCY;
 80032a4:	4803      	ldr	r0, [pc, #12]	; (80032b4 <XMC_SCU_CLOCK_GetWdtClockFrequency+0x3c>)
 80032a6:	e7f6      	b.n	8003296 <XMC_SCU_CLOCK_GetWdtClockFrequency+0x1e>
    frequency = XMC_SCU_CLOCK_GetSystemPllClockFrequency();
 80032a8:	f7ff ff68 	bl	800317c <XMC_SCU_CLOCK_GetSystemPllClockFrequency>
 80032ac:	e7f3      	b.n	8003296 <XMC_SCU_CLOCK_GetWdtClockFrequency+0x1e>
 80032ae:	bf00      	nop
 80032b0:	50004600 	.word	0x50004600
 80032b4:	016e3600 	.word	0x016e3600

080032b8 <XMC_SCU_CLOCK_GetExternalOutputClockFrequency>:
/**
 * @brief API to retrieve EXTERNAL-OUT clock frequency
 * @retval Clock frequency
 */
uint32_t XMC_SCU_CLOCK_GetExternalOutputClockFrequency(void)
{
 80032b8:	b510      	push	{r4, lr}
  return (XMC_SCU_CLOCK_EXTOUTCLKSRC_t)(SCU_CLK->EXTCLKCR & SCU_CLK_EXTCLKCR_ECKSEL_Msk);
 80032ba:	4c12      	ldr	r4, [pc, #72]	; (8003304 <XMC_SCU_CLOCK_GetExternalOutputClockFrequency+0x4c>)
 80032bc:	6aa3      	ldr	r3, [r4, #40]	; 0x28
 80032be:	f003 0303 	and.w	r3, r3, #3
  uint32_t frequency = 0UL;
  XMC_SCU_CLOCK_EXTOUTCLKSRC_t clksrc;

  clksrc = XMC_SCU_CLOCK_GetExternalOutputClockSource();

  if (clksrc == XMC_SCU_CLOCK_EXTOUTCLKSRC_PLL)
 80032c2:	2b03      	cmp	r3, #3
 80032c4:	d00b      	beq.n	80032de <XMC_SCU_CLOCK_GetExternalOutputClockFrequency+0x26>
    frequency = XMC_SCU_CLOCK_GetSystemPllClockFrequency();
    
    frequency = (uint32_t)((frequency / ((((SCU_CLK->EXTCLKCR) & SCU_CLK_EXTCLKCR_ECKDIV_Msk) >>
                 SCU_CLK_EXTCLKCR_ECKDIV_Pos)+ 1UL)));
  }
  else if (clksrc == XMC_SCU_CLOCK_EXTOUTCLKSRC_SYS)
 80032c6:	b11b      	cbz	r3, 80032d0 <XMC_SCU_CLOCK_GetExternalOutputClockFrequency+0x18>
  {
    frequency = XMC_SCU_CLOCK_GetSystemClockFrequency();
  }
  else if (clksrc == XMC_SCU_CLOCK_EXTOUTCLKSRC_USB)
 80032c8:	2b02      	cmp	r3, #2
 80032ca:	d011      	beq.n	80032f0 <XMC_SCU_CLOCK_GetExternalOutputClockFrequency+0x38>
  uint32_t frequency = 0UL;
 80032cc:	2000      	movs	r0, #0
  {

  }

  return (frequency);
}
 80032ce:	bd10      	pop	{r4, pc}
  return SystemCoreClock << ((SCU_CLK->CPUCLKCR & SCU_CLK_CPUCLKCR_CPUDIV_Msk) >> SCU_CLK_CPUCLKCR_CPUDIV_Pos);
 80032d0:	4a0d      	ldr	r2, [pc, #52]	; (8003308 <XMC_SCU_CLOCK_GetExternalOutputClockFrequency+0x50>)
 80032d2:	6923      	ldr	r3, [r4, #16]
 80032d4:	6810      	ldr	r0, [r2, #0]
 80032d6:	f003 0301 	and.w	r3, r3, #1
 80032da:	4098      	lsls	r0, r3
 80032dc:	bd10      	pop	{r4, pc}
    frequency = XMC_SCU_CLOCK_GetSystemPllClockFrequency();
 80032de:	f7ff ff4d 	bl	800317c <XMC_SCU_CLOCK_GetSystemPllClockFrequency>
    frequency = (uint32_t)((frequency / ((((SCU_CLK->EXTCLKCR) & SCU_CLK_EXTCLKCR_ECKDIV_Msk) >>
 80032e2:	6aa3      	ldr	r3, [r4, #40]	; 0x28
 80032e4:	f3c3 4308 	ubfx	r3, r3, #16, #9
                 SCU_CLK_EXTCLKCR_ECKDIV_Pos)+ 1UL)));
 80032e8:	3301      	adds	r3, #1
    frequency = (uint32_t)((frequency / ((((SCU_CLK->EXTCLKCR) & SCU_CLK_EXTCLKCR_ECKDIV_Msk) >>
 80032ea:	fbb0 f0f3 	udiv	r0, r0, r3
}
 80032ee:	bd10      	pop	{r4, pc}
    frequency = XMC_SCU_CLOCK_GetUsbPllClockFrequency();
 80032f0:	f7ff ff7a 	bl	80031e8 <XMC_SCU_CLOCK_GetUsbPllClockFrequency>
    frequency = (uint32_t)((frequency / ((((SCU_CLK->EXTCLKCR) & SCU_CLK_EXTCLKCR_ECKDIV_Msk) >>
 80032f4:	6aa3      	ldr	r3, [r4, #40]	; 0x28
 80032f6:	f3c3 4308 	ubfx	r3, r3, #16, #9
                 SCU_CLK_EXTCLKCR_ECKDIV_Pos)+ 1UL)));
 80032fa:	3301      	adds	r3, #1
    frequency = (uint32_t)((frequency / ((((SCU_CLK->EXTCLKCR) & SCU_CLK_EXTCLKCR_ECKDIV_Msk) >>
 80032fc:	fbb0 f0f3 	udiv	r0, r0, r3
}
 8003300:	bd10      	pop	{r4, pc}
 8003302:	bf00      	nop
 8003304:	50004600 	.word	0x50004600
 8003308:	2000ffc0 	.word	0x2000ffc0

0800330c <XMC_SCU_CLOCK_GetPeripheralClockFrequency>:
 * API to retrieve clock frequency of peripherals on the peripheral bus using a shared functional clock
 */
uint32_t XMC_SCU_CLOCK_GetPeripheralClockFrequency(void)
{
  return (uint32_t)(XMC_SCU_CLOCK_GetCpuClockFrequency() >>
         ((SCU_CLK->PBCLKCR & SCU_CLK_PBCLKCR_PBDIV_Msk) >> SCU_CLK_PBCLKCR_PBDIV_Pos));  
 800330c:	4b03      	ldr	r3, [pc, #12]	; (800331c <XMC_SCU_CLOCK_GetPeripheralClockFrequency+0x10>)
 * \par<b>Related APIs:</b><BR>
 * XMC_SCU_CLOCK_GetPeripheralClockFrequency(), XMC_SCU_CLOCK_GatePeripheralClock() \n\n\n
 */
__STATIC_INLINE uint32_t XMC_SCU_CLOCK_GetCpuClockFrequency(void)
{
  return SystemCoreClock;
 800330e:	4a04      	ldr	r2, [pc, #16]	; (8003320 <XMC_SCU_CLOCK_GetPeripheralClockFrequency+0x14>)
 8003310:	695b      	ldr	r3, [r3, #20]
  return (uint32_t)(XMC_SCU_CLOCK_GetCpuClockFrequency() >>
 8003312:	6810      	ldr	r0, [r2, #0]
         ((SCU_CLK->PBCLKCR & SCU_CLK_PBCLKCR_PBDIV_Msk) >> SCU_CLK_PBCLKCR_PBDIV_Pos));  
 8003314:	f003 0301 	and.w	r3, r3, #1
}
 8003318:	40d8      	lsrs	r0, r3
 800331a:	4770      	bx	lr
 800331c:	50004600 	.word	0x50004600
 8003320:	2000ffc0 	.word	0x2000ffc0

08003324 <XMC_SCU_CLOCK_SetSystemClockSource>:

/* API to select fSYS */
void XMC_SCU_CLOCK_SetSystemClockSource(const XMC_SCU_CLOCK_SYSCLKSRC_t source)
{
  SCU_CLK->SYSCLKCR = (SCU_CLK->SYSCLKCR & ((uint32_t)~SCU_CLK_SYSCLKCR_SYSSEL_Msk)) |
 8003324:	4a03      	ldr	r2, [pc, #12]	; (8003334 <XMC_SCU_CLOCK_SetSystemClockSource+0x10>)
 8003326:	68d3      	ldr	r3, [r2, #12]
 8003328:	f423 3380 	bic.w	r3, r3, #65536	; 0x10000
 800332c:	4318      	orrs	r0, r3
 800332e:	60d0      	str	r0, [r2, #12]
                      ((uint32_t)source);
}
 8003330:	4770      	bx	lr
 8003332:	bf00      	nop
 8003334:	50004600 	.word	0x50004600

08003338 <XMC_SCU_CLOCK_SetUsbClockSource>:

/* API to select fUSB */
void XMC_SCU_CLOCK_SetUsbClockSource(const XMC_SCU_CLOCK_USBCLKSRC_t source)
{
  SCU_CLK->USBCLKCR = (SCU_CLK->USBCLKCR & ((uint32_t)~SCU_CLK_USBCLKCR_USBSEL_Msk)) |
 8003338:	4a03      	ldr	r2, [pc, #12]	; (8003348 <XMC_SCU_CLOCK_SetUsbClockSource+0x10>)
 800333a:	6993      	ldr	r3, [r2, #24]
 800333c:	f423 3380 	bic.w	r3, r3, #65536	; 0x10000
 8003340:	4318      	orrs	r0, r3
 8003342:	6190      	str	r0, [r2, #24]
                      ((uint32_t)source);
}
 8003344:	4770      	bx	lr
 8003346:	bf00      	nop
 8003348:	50004600 	.word	0x50004600

0800334c <XMC_SCU_CLOCK_SetWdtClockSource>:

/* API to select fWDT */
void XMC_SCU_CLOCK_SetWdtClockSource(const XMC_SCU_CLOCK_WDTCLKSRC_t source)
{
  SCU_CLK->WDTCLKCR = (SCU_CLK->WDTCLKCR & ((uint32_t)~SCU_CLK_WDTCLKCR_WDTSEL_Msk)) |
 800334c:	4a03      	ldr	r2, [pc, #12]	; (800335c <XMC_SCU_CLOCK_SetWdtClockSource+0x10>)
 800334e:	6a53      	ldr	r3, [r2, #36]	; 0x24
 8003350:	f423 3340 	bic.w	r3, r3, #196608	; 0x30000
 8003354:	4318      	orrs	r0, r3
 8003356:	6250      	str	r0, [r2, #36]	; 0x24
                      ((uint32_t)source);
}
 8003358:	4770      	bx	lr
 800335a:	bf00      	nop
 800335c:	50004600 	.word	0x50004600

08003360 <XMC_SCU_CLOCK_SetExternalOutputClockSource>:

/* API to select fEXT */
void XMC_SCU_CLOCK_SetExternalOutputClockSource(const XMC_SCU_CLOCK_EXTOUTCLKSRC_t source)
{
  SCU_CLK->EXTCLKCR = (SCU_CLK->EXTCLKCR & ((uint32_t)~SCU_CLK_EXTCLKCR_ECKSEL_Msk)) |
 8003360:	4a03      	ldr	r2, [pc, #12]	; (8003370 <XMC_SCU_CLOCK_SetExternalOutputClockSource+0x10>)
 8003362:	6a93      	ldr	r3, [r2, #40]	; 0x28
 8003364:	f023 0303 	bic.w	r3, r3, #3
 8003368:	4318      	orrs	r0, r3
 800336a:	6290      	str	r0, [r2, #40]	; 0x28
                      ((uint32_t)source);
}
 800336c:	4770      	bx	lr
 800336e:	bf00      	nop
 8003370:	50004600 	.word	0x50004600

08003374 <XMC_SCU_CLOCK_SetSystemPllClockSource>:
void XMC_SCU_CLOCK_SetSystemPllClockSource(const XMC_SCU_CLOCK_SYSPLLCLKSRC_t source)
{
  /* Check input clock */
  if (source == XMC_SCU_CLOCK_SYSPLLCLKSRC_OSCHP) /* Select PLLClockSource */
  {
    SCU_PLL->PLLCON2 &= (uint32_t)~(SCU_PLL_PLLCON2_PINSEL_Msk | SCU_PLL_PLLCON2_K1INSEL_Msk);
 8003374:	4a07      	ldr	r2, [pc, #28]	; (8003394 <XMC_SCU_CLOCK_SetSystemPllClockSource+0x20>)
 8003376:	69d3      	ldr	r3, [r2, #28]
  if (source == XMC_SCU_CLOCK_SYSPLLCLKSRC_OSCHP) /* Select PLLClockSource */
 8003378:	b928      	cbnz	r0, 8003386 <XMC_SCU_CLOCK_SetSystemPllClockSource+0x12>
    SCU_PLL->PLLCON2 &= (uint32_t)~(SCU_PLL_PLLCON2_PINSEL_Msk | SCU_PLL_PLLCON2_K1INSEL_Msk);
 800337a:	f423 7380 	bic.w	r3, r3, #256	; 0x100
 800337e:	f023 0301 	bic.w	r3, r3, #1
 8003382:	61d3      	str	r3, [r2, #28]
  }
  else
  {
    SCU_PLL->PLLCON2 |= (uint32_t)(SCU_PLL_PLLCON2_PINSEL_Msk | SCU_PLL_PLLCON2_K1INSEL_Msk);
  }
}
 8003384:	4770      	bx	lr
    SCU_PLL->PLLCON2 |= (uint32_t)(SCU_PLL_PLLCON2_PINSEL_Msk | SCU_PLL_PLLCON2_K1INSEL_Msk);
 8003386:	f443 7380 	orr.w	r3, r3, #256	; 0x100
 800338a:	f043 0301 	orr.w	r3, r3, #1
 800338e:	61d3      	str	r3, [r2, #28]
}
 8003390:	4770      	bx	lr
 8003392:	bf00      	nop
 8003394:	50004700 	.word	0x50004700

08003398 <XMC_SCU_HIB_SetRtcClockSource>:

/* API to select fRTC */
void XMC_SCU_HIB_SetRtcClockSource(const XMC_SCU_HIB_RTCCLKSRC_t source)
{ 
  /* Wait until the update of HDCR register in hibernate domain is completed */
  while((SCU_GENERAL->MIRRSTS) & SCU_GENERAL_MIRRSTS_HDCR_Msk)
 8003398:	4a05      	ldr	r2, [pc, #20]	; (80033b0 <XMC_SCU_HIB_SetRtcClockSource+0x18>)
 800339a:	f8d2 30c4 	ldr.w	r3, [r2, #196]	; 0xc4
 800339e:	071b      	lsls	r3, r3, #28
 80033a0:	d4fb      	bmi.n	800339a <XMC_SCU_HIB_SetRtcClockSource+0x2>
  {
  }

  SCU_HIBERNATE->HDCR = (SCU_HIBERNATE->HDCR & ((uint32_t)~SCU_HIBERNATE_HDCR_RCS_Msk)) |
 80033a2:	4a04      	ldr	r2, [pc, #16]	; (80033b4 <XMC_SCU_HIB_SetRtcClockSource+0x1c>)
 80033a4:	68d3      	ldr	r3, [r2, #12]
 80033a6:	f023 0340 	bic.w	r3, r3, #64	; 0x40
 80033aa:	4318      	orrs	r0, r3
 80033ac:	60d0      	str	r0, [r2, #12]
                        ((uint32_t)source);
}
 80033ae:	4770      	bx	lr
 80033b0:	50004000 	.word	0x50004000
 80033b4:	50004300 	.word	0x50004300

080033b8 <XMC_SCU_HIB_SetStandbyClockSource>:

/* API to select fSTDBY */
void XMC_SCU_HIB_SetStandbyClockSource(const XMC_SCU_HIB_STDBYCLKSRC_t source)
{
  while((SCU_GENERAL->MIRRSTS) & SCU_GENERAL_MIRRSTS_HDCR_Msk)
 80033b8:	4a05      	ldr	r2, [pc, #20]	; (80033d0 <XMC_SCU_HIB_SetStandbyClockSource+0x18>)
 80033ba:	f8d2 30c4 	ldr.w	r3, [r2, #196]	; 0xc4
 80033be:	071b      	lsls	r3, r3, #28
 80033c0:	d4fb      	bmi.n	80033ba <XMC_SCU_HIB_SetStandbyClockSource+0x2>
  {
    /* check SCU_MIRRSTS to ensure that no transfer over serial interface is pending */
  }
  SCU_HIBERNATE->HDCR = (SCU_HIBERNATE->HDCR & ((uint32_t)~SCU_HIBERNATE_HDCR_STDBYSEL_Msk)) |
 80033c2:	4a04      	ldr	r2, [pc, #16]	; (80033d4 <XMC_SCU_HIB_SetStandbyClockSource+0x1c>)
 80033c4:	68d3      	ldr	r3, [r2, #12]
 80033c6:	f023 0380 	bic.w	r3, r3, #128	; 0x80
 80033ca:	4318      	orrs	r0, r3
 80033cc:	60d0      	str	r0, [r2, #12]
                        ((uint32_t)source);
}
 80033ce:	4770      	bx	lr
 80033d0:	50004000 	.word	0x50004000
 80033d4:	50004300 	.word	0x50004300

080033d8 <XMC_SCU_CLOCK_SetSystemClockDivider>:
void XMC_SCU_CLOCK_SetSystemClockDivider(const uint32_t divider)
{
  XMC_ASSERT("XMC_SCU_CLOCK_SetSystemClockDivider:Wrong clock divider value",
              (divider <= (SCU_CLK_SYSCLKCR_SYSDIV_Msk + 1UL)) );

  SCU_CLK->SYSCLKCR = (SCU_CLK->SYSCLKCR & ((uint32_t)~SCU_CLK_SYSCLKCR_SYSDIV_Msk)) |
 80033d8:	4a03      	ldr	r2, [pc, #12]	; (80033e8 <XMC_SCU_CLOCK_SetSystemClockDivider+0x10>)
 80033da:	68d3      	ldr	r3, [r2, #12]
                      ((uint32_t)(((uint32_t)(divider - 1UL)) << SCU_CLK_SYSCLKCR_SYSDIV_Pos));
 80033dc:	3801      	subs	r0, #1
  SCU_CLK->SYSCLKCR = (SCU_CLK->SYSCLKCR & ((uint32_t)~SCU_CLK_SYSCLKCR_SYSDIV_Msk)) |
 80033de:	f023 03ff 	bic.w	r3, r3, #255	; 0xff
 80033e2:	4303      	orrs	r3, r0
 80033e4:	60d3      	str	r3, [r2, #12]
}
 80033e6:	4770      	bx	lr
 80033e8:	50004600 	.word	0x50004600

080033ec <XMC_SCU_CLOCK_SetCcuClockDivider>:
/* API to program the divider placed between fccu and its parent */
void XMC_SCU_CLOCK_SetCcuClockDivider(const uint32_t divider)
{
  XMC_ASSERT("XMC_SCU_CLOCK_SetCapcomClockDivider:Wrong clock divider value", (divider <= 2UL) );

  SCU_CLK->CCUCLKCR = (SCU_CLK->CCUCLKCR & ((uint32_t)~SCU_CLK_CCUCLKCR_CCUDIV_Msk)) |
 80033ec:	4a03      	ldr	r2, [pc, #12]	; (80033fc <XMC_SCU_CLOCK_SetCcuClockDivider+0x10>)
 80033ee:	6a13      	ldr	r3, [r2, #32]
                      (uint32_t)((uint32_t)(divider - 1UL) << SCU_CLK_CCUCLKCR_CCUDIV_Pos);
 80033f0:	3801      	subs	r0, #1
  SCU_CLK->CCUCLKCR = (SCU_CLK->CCUCLKCR & ((uint32_t)~SCU_CLK_CCUCLKCR_CCUDIV_Msk)) |
 80033f2:	f023 0301 	bic.w	r3, r3, #1
 80033f6:	4303      	orrs	r3, r0
 80033f8:	6213      	str	r3, [r2, #32]
}
 80033fa:	4770      	bx	lr
 80033fc:	50004600 	.word	0x50004600

08003400 <XMC_SCU_CLOCK_SetCpuClockDivider>:
/* API to program the divider placed between fcpu and its parent */
void XMC_SCU_CLOCK_SetCpuClockDivider(const uint32_t divider)
{
  XMC_ASSERT("XMC_SCU_CLOCK_SetCpuClockDivider:Wrong clock divider value", (divider <= 2UL) );

  SCU_CLK->CPUCLKCR = (SCU_CLK->CPUCLKCR & ((uint32_t)~SCU_CLK_CPUCLKCR_CPUDIV_Msk)) |
 8003400:	4a03      	ldr	r2, [pc, #12]	; (8003410 <XMC_SCU_CLOCK_SetCpuClockDivider+0x10>)
 8003402:	6913      	ldr	r3, [r2, #16]
                      (uint32_t)((uint32_t)(divider - 1UL) << SCU_CLK_CPUCLKCR_CPUDIV_Pos);
 8003404:	3801      	subs	r0, #1
  SCU_CLK->CPUCLKCR = (SCU_CLK->CPUCLKCR & ((uint32_t)~SCU_CLK_CPUCLKCR_CPUDIV_Msk)) |
 8003406:	f023 0301 	bic.w	r3, r3, #1
 800340a:	4303      	orrs	r3, r0
 800340c:	6113      	str	r3, [r2, #16]
}
 800340e:	4770      	bx	lr
 8003410:	50004600 	.word	0x50004600

08003414 <XMC_SCU_CLOCK_SetPeripheralClockDivider>:
/* API to program the divider placed between fperiph and its parent */
void XMC_SCU_CLOCK_SetPeripheralClockDivider(const uint32_t divider)
{
  XMC_ASSERT("XMC_SCU_CLOCK_SetPeripheralClockDivider:Wrong clock divider value", (divider <= 2UL) );

  SCU_CLK->PBCLKCR = (SCU_CLK->PBCLKCR & ((uint32_t)~SCU_CLK_PBCLKCR_PBDIV_Msk)) |
 8003414:	4a03      	ldr	r2, [pc, #12]	; (8003424 <XMC_SCU_CLOCK_SetPeripheralClockDivider+0x10>)
 8003416:	6953      	ldr	r3, [r2, #20]
                     ((uint32_t)((uint32_t)(divider - 1UL) << SCU_CLK_PBCLKCR_PBDIV_Pos));
 8003418:	3801      	subs	r0, #1
  SCU_CLK->PBCLKCR = (SCU_CLK->PBCLKCR & ((uint32_t)~SCU_CLK_PBCLKCR_PBDIV_Msk)) |
 800341a:	f023 0301 	bic.w	r3, r3, #1
 800341e:	4303      	orrs	r3, r0
 8003420:	6153      	str	r3, [r2, #20]
}
 8003422:	4770      	bx	lr
 8003424:	50004600 	.word	0x50004600

08003428 <XMC_SCU_CLOCK_SetUsbClockDivider>:
void XMC_SCU_CLOCK_SetUsbClockDivider(const uint32_t divider)
{
  XMC_ASSERT("XMC_SCU_CLOCK_SetSdmmcClockDivider:Wrong clock divider value",
              (divider <= (SCU_CLK_USBCLKCR_USBDIV_Msk + 1UL)) );

  SCU_CLK->USBCLKCR = (SCU_CLK->USBCLKCR & ((uint32_t)~SCU_CLK_USBCLKCR_USBDIV_Msk)) |
 8003428:	4a03      	ldr	r2, [pc, #12]	; (8003438 <XMC_SCU_CLOCK_SetUsbClockDivider+0x10>)
 800342a:	6993      	ldr	r3, [r2, #24]
                      (uint32_t)((uint32_t)(divider - 1UL) << SCU_CLK_USBCLKCR_USBDIV_Pos); 
 800342c:	3801      	subs	r0, #1
  SCU_CLK->USBCLKCR = (SCU_CLK->USBCLKCR & ((uint32_t)~SCU_CLK_USBCLKCR_USBDIV_Msk)) |
 800342e:	f023 0307 	bic.w	r3, r3, #7
 8003432:	4303      	orrs	r3, r0
 8003434:	6193      	str	r3, [r2, #24]
}
 8003436:	4770      	bx	lr
 8003438:	50004600 	.word	0x50004600

0800343c <XMC_SCU_CLOCK_SetEbuClockDivider>:
void XMC_SCU_CLOCK_SetEbuClockDivider(const uint32_t divider)
{
  XMC_ASSERT("XMC_SCU_CLOCK_SetEbuClockDivider:Wrong clock divider value",
              (divider <= (SCU_CLK_EBUCLKCR_EBUDIV_Msk + 1UL) ) );

  SCU_CLK->EBUCLKCR = (SCU_CLK->EBUCLKCR & ((uint32_t)~SCU_CLK_EBUCLKCR_EBUDIV_Msk)) |
 800343c:	4a03      	ldr	r2, [pc, #12]	; (800344c <XMC_SCU_CLOCK_SetEbuClockDivider+0x10>)
 800343e:	69d3      	ldr	r3, [r2, #28]
                      (uint32_t)(((uint32_t)(divider - 1UL)) << SCU_CLK_EBUCLKCR_EBUDIV_Pos);
 8003440:	3801      	subs	r0, #1
  SCU_CLK->EBUCLKCR = (SCU_CLK->EBUCLKCR & ((uint32_t)~SCU_CLK_EBUCLKCR_EBUDIV_Msk)) |
 8003442:	f023 033f 	bic.w	r3, r3, #63	; 0x3f
 8003446:	4303      	orrs	r3, r0
 8003448:	61d3      	str	r3, [r2, #28]
}
 800344a:	4770      	bx	lr
 800344c:	50004600 	.word	0x50004600

08003450 <XMC_SCU_CLOCK_SetWdtClockDivider>:
void XMC_SCU_CLOCK_SetWdtClockDivider(const uint32_t divider)
{
  XMC_ASSERT("XMC_SCU_CLOCK_SetWdtClockDivider:Wrong clock divider value",
              (divider <= (SCU_CLK_WDTCLKCR_WDTDIV_Msk + 1UL) ) );

  SCU_CLK->WDTCLKCR = (SCU_CLK->WDTCLKCR & ((uint32_t)~SCU_CLK_WDTCLKCR_WDTDIV_Msk)) |
 8003450:	4a03      	ldr	r2, [pc, #12]	; (8003460 <XMC_SCU_CLOCK_SetWdtClockDivider+0x10>)
 8003452:	6a53      	ldr	r3, [r2, #36]	; 0x24
                      (uint32_t)(((uint32_t)(divider - 1UL)) << SCU_CLK_WDTCLKCR_WDTDIV_Pos);
 8003454:	3801      	subs	r0, #1
  SCU_CLK->WDTCLKCR = (SCU_CLK->WDTCLKCR & ((uint32_t)~SCU_CLK_WDTCLKCR_WDTDIV_Msk)) |
 8003456:	f023 03ff 	bic.w	r3, r3, #255	; 0xff
 800345a:	4303      	orrs	r3, r0
 800345c:	6253      	str	r3, [r2, #36]	; 0x24
}
 800345e:	4770      	bx	lr
 8003460:	50004600 	.word	0x50004600

08003464 <XMC_SCU_CLOCK_SetExternalOutputClockDivider>:
void XMC_SCU_CLOCK_SetExternalOutputClockDivider(const uint32_t divider)
{
  XMC_ASSERT("XMC_SCU_CLOCK_SetExternalOutputClockDivider:Wrong clock divider value",
              (divider <= (SCU_CLK_EXTCLKCR_ECKDIV_Msk + 1UL) ) );

  SCU_CLK->EXTCLKCR = (SCU_CLK->EXTCLKCR & ((uint32_t)~SCU_CLK_EXTCLKCR_ECKDIV_Msk)) |
 8003464:	4a05      	ldr	r2, [pc, #20]	; (800347c <XMC_SCU_CLOCK_SetExternalOutputClockDivider+0x18>)
 8003466:	6a93      	ldr	r3, [r2, #40]	; 0x28
 8003468:	f023 73ff 	bic.w	r3, r3, #33423360	; 0x1fe0000
                      (uint32_t)(((uint32_t)(divider - 1UL)) << SCU_CLK_EXTCLKCR_ECKDIV_Pos);
 800346c:	3801      	subs	r0, #1
  SCU_CLK->EXTCLKCR = (SCU_CLK->EXTCLKCR & ((uint32_t)~SCU_CLK_EXTCLKCR_ECKDIV_Msk)) |
 800346e:	f423 3380 	bic.w	r3, r3, #65536	; 0x10000
 8003472:	ea43 4300 	orr.w	r3, r3, r0, lsl #16
 8003476:	6293      	str	r3, [r2, #40]	; 0x28
}
 8003478:	4770      	bx	lr
 800347a:	bf00      	nop
 800347c:	50004600 	.word	0x50004600

08003480 <XMC_SCU_CLOCK_EnableClock>:
#endif

/* API to enable a given module clock */
void XMC_SCU_CLOCK_EnableClock(const XMC_SCU_CLOCK_t clock)
{
  SCU_CLK->CLKSET = ((uint32_t)clock);
 8003480:	4b01      	ldr	r3, [pc, #4]	; (8003488 <XMC_SCU_CLOCK_EnableClock+0x8>)
 8003482:	6058      	str	r0, [r3, #4]
}
 8003484:	4770      	bx	lr
 8003486:	bf00      	nop
 8003488:	50004600 	.word	0x50004600

0800348c <XMC_SCU_CLOCK_DisableClock>:

/* API to disable a given module clock */
void XMC_SCU_CLOCK_DisableClock(const XMC_SCU_CLOCK_t clock)
{
  SCU_CLK->CLKCLR = ((uint32_t)clock);
 800348c:	4b01      	ldr	r3, [pc, #4]	; (8003494 <XMC_SCU_CLOCK_DisableClock+0x8>)
 800348e:	6098      	str	r0, [r3, #8]
}
 8003490:	4770      	bx	lr
 8003492:	bf00      	nop
 8003494:	50004600 	.word	0x50004600

08003498 <XMC_SCU_CLOCK_IsClockEnabled>:

/* API to determine if module clock of the given peripheral is enabled */
bool XMC_SCU_CLOCK_IsClockEnabled(const XMC_SCU_CLOCK_t clock)
{
  return (bool)(SCU_CLK->CLKSTAT & ((uint32_t)clock));
 8003498:	4b03      	ldr	r3, [pc, #12]	; (80034a8 <XMC_SCU_CLOCK_IsClockEnabled+0x10>)
 800349a:	681b      	ldr	r3, [r3, #0]
 800349c:	4218      	tst	r0, r3
}
 800349e:	bf14      	ite	ne
 80034a0:	2001      	movne	r0, #1
 80034a2:	2000      	moveq	r0, #0
 80034a4:	4770      	bx	lr
 80034a6:	bf00      	nop
 80034a8:	50004600 	.word	0x50004600

080034ac <XMC_SCU_POWER_GetEVR13Voltage>:
}
#endif

float XMC_SCU_POWER_GetEVR13Voltage(void)
{
  return (SCU_POWER->EVRVADCSTAT & SCU_POWER_EVRVADCSTAT_VADC13V_Msk) * XMC_SCU_POWER_LSB13V;
 80034ac:	4b06      	ldr	r3, [pc, #24]	; (80034c8 <XMC_SCU_POWER_GetEVR13Voltage+0x1c>)
 80034ae:	ed9f 7a07 	vldr	s14, [pc, #28]	; 80034cc <XMC_SCU_POWER_GetEVR13Voltage+0x20>
 80034b2:	695b      	ldr	r3, [r3, #20]
 80034b4:	b2db      	uxtb	r3, r3
 80034b6:	ee07 3a90 	vmov	s15, r3
 80034ba:	eef8 7ae7 	vcvt.f32.s32	s15, s15
}
 80034be:	ee67 7a87 	vmul.f32	s15, s15, s14
 80034c2:	ee17 0a90 	vmov	r0, s15
 80034c6:	4770      	bx	lr
 80034c8:	50004200 	.word	0x50004200
 80034cc:	3bbe0ded 	.word	0x3bbe0ded

080034d0 <XMC_SCU_POWER_GetEVR33Voltage>:

float XMC_SCU_POWER_GetEVR33Voltage(void)
{
  return ((SCU_POWER->EVRVADCSTAT & SCU_POWER_EVRVADCSTAT_VADC33V_Msk) >> SCU_POWER_EVRVADCSTAT_VADC33V_Pos) * XMC_SCU_POWER_LSB33V;
 80034d0:	4b07      	ldr	r3, [pc, #28]	; (80034f0 <XMC_SCU_POWER_GetEVR33Voltage+0x20>)
 80034d2:	ed9f 7a08 	vldr	s14, [pc, #32]	; 80034f4 <XMC_SCU_POWER_GetEVR33Voltage+0x24>
 80034d6:	695b      	ldr	r3, [r3, #20]
 80034d8:	f3c3 2307 	ubfx	r3, r3, #8, #8
 80034dc:	ee07 3a90 	vmov	s15, r3
 80034e0:	eef8 7ae7 	vcvt.f32.s32	s15, s15
}
 80034e4:	ee67 7a87 	vmul.f32	s15, s15, s14
 80034e8:	ee17 0a90 	vmov	r0, s15
 80034ec:	4770      	bx	lr
 80034ee:	bf00      	nop
 80034f0:	50004200 	.word	0x50004200
 80034f4:	3cb851ec 	.word	0x3cb851ec

080034f8 <XMC_SCU_CLOCK_EnableUsbPll>:

/* API to enable USB PLL for USB clock */
void XMC_SCU_CLOCK_EnableUsbPll(void)
{
  SCU_PLL->USBPLLCON &= (uint32_t)~(SCU_PLL_USBPLLCON_VCOPWD_Msk | SCU_PLL_USBPLLCON_PLLPWD_Msk);
 80034f8:	4a03      	ldr	r2, [pc, #12]	; (8003508 <XMC_SCU_CLOCK_EnableUsbPll+0x10>)
 80034fa:	6a53      	ldr	r3, [r2, #36]	; 0x24
 80034fc:	f423 3380 	bic.w	r3, r3, #65536	; 0x10000
 8003500:	f023 0302 	bic.w	r3, r3, #2
 8003504:	6253      	str	r3, [r2, #36]	; 0x24
}
 8003506:	4770      	bx	lr
 8003508:	50004700 	.word	0x50004700

0800350c <XMC_SCU_CLOCK_DisableUsbPll>:

/* API to disable USB PLL for USB clock */
void XMC_SCU_CLOCK_DisableUsbPll(void)
{
  SCU_PLL->USBPLLCON |= (uint32_t)(SCU_PLL_USBPLLCON_VCOPWD_Msk | SCU_PLL_USBPLLCON_PLLPWD_Msk);
 800350c:	4a03      	ldr	r2, [pc, #12]	; (800351c <XMC_SCU_CLOCK_DisableUsbPll+0x10>)
 800350e:	6a53      	ldr	r3, [r2, #36]	; 0x24
 8003510:	f443 3380 	orr.w	r3, r3, #65536	; 0x10000
 8003514:	f043 0302 	orr.w	r3, r3, #2
 8003518:	6253      	str	r3, [r2, #36]	; 0x24
}
 800351a:	4770      	bx	lr
 800351c:	50004700 	.word	0x50004700

08003520 <XMC_SCU_CLOCK_StartUsbPll>:

/* API to configure USB PLL */
void XMC_SCU_CLOCK_StartUsbPll(uint32_t pdiv, uint32_t ndiv)
{
  /* Go to bypass the USB PLL */
  SCU_PLL->USBPLLCON |= (uint32_t)SCU_PLL_USBPLLCON_VCOBYP_Msk;
 8003520:	4b0f      	ldr	r3, [pc, #60]	; (8003560 <XMC_SCU_CLOCK_StartUsbPll+0x40>)
 8003522:	6a5a      	ldr	r2, [r3, #36]	; 0x24
 8003524:	f042 0201 	orr.w	r2, r2, #1
 8003528:	625a      	str	r2, [r3, #36]	; 0x24

  /* disconnect Oscillator from USB PLL */
  SCU_PLL->USBPLLCON |= (uint32_t)SCU_PLL_USBPLLCON_FINDIS_Msk;
 800352a:	6a5a      	ldr	r2, [r3, #36]	; 0x24

  /* Setup Divider settings for USB PLL */
  SCU_PLL->USBPLLCON = (uint32_t)((uint32_t)((ndiv -1U) << SCU_PLL_USBPLLCON_NDIV_Pos) |
                       (uint32_t)((pdiv - 1U) << SCU_PLL_USBPLLCON_PDIV_Pos));
 800352c:	3801      	subs	r0, #1
  SCU_PLL->USBPLLCON = (uint32_t)((uint32_t)((ndiv -1U) << SCU_PLL_USBPLLCON_NDIV_Pos) |
 800352e:	3901      	subs	r1, #1
                       (uint32_t)((pdiv - 1U) << SCU_PLL_USBPLLCON_PDIV_Pos));
 8003530:	0600      	lsls	r0, r0, #24
  SCU_PLL->USBPLLCON |= (uint32_t)SCU_PLL_USBPLLCON_FINDIS_Msk;
 8003532:	f042 0210 	orr.w	r2, r2, #16
  SCU_PLL->USBPLLCON = (uint32_t)((uint32_t)((ndiv -1U) << SCU_PLL_USBPLLCON_NDIV_Pos) |
 8003536:	ea40 2001 	orr.w	r0, r0, r1, lsl #8
  SCU_PLL->USBPLLCON |= (uint32_t)SCU_PLL_USBPLLCON_FINDIS_Msk;
 800353a:	625a      	str	r2, [r3, #36]	; 0x24
  SCU_PLL->USBPLLCON = (uint32_t)((uint32_t)((ndiv -1U) << SCU_PLL_USBPLLCON_NDIV_Pos) |
 800353c:	6258      	str	r0, [r3, #36]	; 0x24

  /* Set OSCDISCDIS */
  SCU_PLL->USBPLLCON |= (uint32_t)SCU_PLL_USBPLLCON_OSCDISCDIS_Msk;
 800353e:	6a5a      	ldr	r2, [r3, #36]	; 0x24
 8003540:	f042 0240 	orr.w	r2, r2, #64	; 0x40
 8003544:	625a      	str	r2, [r3, #36]	; 0x24

  /* connect Oscillator to USB PLL */
  SCU_PLL->USBPLLCON &= (uint32_t)~SCU_PLL_USBPLLCON_FINDIS_Msk;
 8003546:	6a5a      	ldr	r2, [r3, #36]	; 0x24
 8003548:	f022 0210 	bic.w	r2, r2, #16
 800354c:	625a      	str	r2, [r3, #36]	; 0x24

  /* restart PLL Lock detection */
  SCU_PLL->USBPLLCON |= (uint32_t)SCU_PLL_USBPLLCON_RESLD_Msk;
 800354e:	6a5a      	ldr	r2, [r3, #36]	; 0x24
 8003550:	f442 2280 	orr.w	r2, r2, #262144	; 0x40000
 8003554:	625a      	str	r2, [r3, #36]	; 0x24

  while ((SCU_PLL->USBPLLSTAT & SCU_PLL_USBPLLSTAT_VCOLOCK_Msk) == 0U)
 8003556:	6a1a      	ldr	r2, [r3, #32]
 8003558:	0752      	lsls	r2, r2, #29
 800355a:	d5fc      	bpl.n	8003556 <XMC_SCU_CLOCK_StartUsbPll+0x36>
  {
    /* wait for PLL Lock */
  }

}
 800355c:	4770      	bx	lr
 800355e:	bf00      	nop
 8003560:	50004700 	.word	0x50004700

08003564 <XMC_SCU_CLOCK_StopUsbPll>:

/* API to disable USB PLL operation */
void XMC_SCU_CLOCK_StopUsbPll(void)
{
  SCU_PLL->USBPLLCON = (uint32_t)(SCU_PLL_USBPLLCON_VCOPWD_Msk | SCU_PLL_USBPLLCON_PLLPWD_Msk |
 8003564:	4b01      	ldr	r3, [pc, #4]	; (800356c <XMC_SCU_CLOCK_StopUsbPll+0x8>)
 8003566:	4a02      	ldr	r2, [pc, #8]	; (8003570 <XMC_SCU_CLOCK_StopUsbPll+0xc>)
 8003568:	625a      	str	r2, [r3, #36]	; 0x24
                                  SCU_PLL_USBPLLCON_VCOBYP_Msk);
}
 800356a:	4770      	bx	lr
 800356c:	50004700 	.word	0x50004700
 8003570:	00010003 	.word	0x00010003

08003574 <XMC_SCU_CLOCK_SetBackupClockCalibrationMode>:

/* API to onfigure the calibration mode for internal oscillator */
void XMC_SCU_CLOCK_SetBackupClockCalibrationMode(XMC_SCU_CLOCK_FOFI_CALIBRATION_MODE_t mode)
{
  /* Enable factory calibration based trimming */
  SCU_PLL->PLLCON0 |= (uint32_t)SCU_PLL_PLLCON0_FOTR_Msk;
 8003574:	4a1a      	ldr	r2, [pc, #104]	; (80035e0 <XMC_SCU_CLOCK_SetBackupClockCalibrationMode+0x6c>)
 8003576:	6953      	ldr	r3, [r2, #20]

  if (mode == XMC_SCU_CLOCK_FOFI_CALIBRATION_MODE_AUTOMATIC)
 8003578:	2801      	cmp	r0, #1
  SCU_PLL->PLLCON0 |= (uint32_t)SCU_PLL_PLLCON0_FOTR_Msk;
 800357a:	f443 1380 	orr.w	r3, r3, #1048576	; 0x100000
{
 800357e:	b510      	push	{r4, lr}
  SCU_PLL->PLLCON0 |= (uint32_t)SCU_PLL_PLLCON0_FOTR_Msk;
 8003580:	6153      	str	r3, [r2, #20]
  if (mode == XMC_SCU_CLOCK_FOFI_CALIBRATION_MODE_AUTOMATIC)
 8003582:	d011      	beq.n	80035a8 <XMC_SCU_CLOCK_SetBackupClockCalibrationMode+0x34>
 8003584:	4c17      	ldr	r4, [pc, #92]	; (80035e4 <XMC_SCU_CLOCK_SetBackupClockCalibrationMode+0x70>)
  SystemCoreClockUpdate();
 8003586:	f000 fedb 	bl	8004340 <SystemCoreClockUpdate>
  delay =  delay * (uint32_t)(SystemCoreClock / FREQ_1MHZ);
 800358a:	6822      	ldr	r2, [r4, #0]
 800358c:	4916      	ldr	r1, [pc, #88]	; (80035e8 <XMC_SCU_CLOCK_SetBackupClockCalibrationMode+0x74>)
 800358e:	fba1 1202 	umull	r1, r2, r1, r2
 8003592:	2364      	movs	r3, #100	; 0x64
 8003594:	0c92      	lsrs	r2, r2, #18
 8003596:	fb03 f202 	mul.w	r2, r3, r2
  for (i = 0U; i < delay; ++i)
 800359a:	b122      	cbz	r2, 80035a6 <XMC_SCU_CLOCK_SetBackupClockCalibrationMode+0x32>
 800359c:	2300      	movs	r3, #0
    __NOP();
 800359e:	bf00      	nop
  for (i = 0U; i < delay; ++i)
 80035a0:	3301      	adds	r3, #1
 80035a2:	429a      	cmp	r2, r3
 80035a4:	d1fb      	bne.n	800359e <XMC_SCU_CLOCK_SetBackupClockCalibrationMode+0x2a>
    /* Enable automatic calibration */
    SCU_PLL->PLLCON0 |= (uint32_t)SCU_PLL_PLLCON0_AOTREN_Msk;
  }

  XMC_SCU_lDelay(100UL);
}
 80035a6:	bd10      	pop	{r4, pc}
    SCU_PLL->PLLCON0 &= (uint32_t)~SCU_PLL_PLLCON0_FOTR_Msk;
 80035a8:	6953      	ldr	r3, [r2, #20]
  delay =  delay * (uint32_t)(SystemCoreClock / FREQ_1MHZ);
 80035aa:	4c0e      	ldr	r4, [pc, #56]	; (80035e4 <XMC_SCU_CLOCK_SetBackupClockCalibrationMode+0x70>)
    SCU_PLL->PLLCON0 &= (uint32_t)~SCU_PLL_PLLCON0_FOTR_Msk;
 80035ac:	f423 1380 	bic.w	r3, r3, #1048576	; 0x100000
 80035b0:	6153      	str	r3, [r2, #20]
  SystemCoreClockUpdate();
 80035b2:	f000 fec5 	bl	8004340 <SystemCoreClockUpdate>
  delay =  delay * (uint32_t)(SystemCoreClock / FREQ_1MHZ);
 80035b6:	6823      	ldr	r3, [r4, #0]
 80035b8:	4a0b      	ldr	r2, [pc, #44]	; (80035e8 <XMC_SCU_CLOCK_SetBackupClockCalibrationMode+0x74>)
 80035ba:	fba2 3203 	umull	r3, r2, r2, r3
 80035be:	2164      	movs	r1, #100	; 0x64
 80035c0:	0c92      	lsrs	r2, r2, #18
 80035c2:	fb01 f202 	mul.w	r2, r1, r2
  for (i = 0U; i < delay; ++i)
 80035c6:	b122      	cbz	r2, 80035d2 <XMC_SCU_CLOCK_SetBackupClockCalibrationMode+0x5e>
 80035c8:	2300      	movs	r3, #0
    __NOP();
 80035ca:	bf00      	nop
  for (i = 0U; i < delay; ++i)
 80035cc:	3301      	adds	r3, #1
 80035ce:	429a      	cmp	r2, r3
 80035d0:	d1fb      	bne.n	80035ca <XMC_SCU_CLOCK_SetBackupClockCalibrationMode+0x56>
    SCU_PLL->PLLCON0 |= (uint32_t)SCU_PLL_PLLCON0_AOTREN_Msk;
 80035d2:	4a03      	ldr	r2, [pc, #12]	; (80035e0 <XMC_SCU_CLOCK_SetBackupClockCalibrationMode+0x6c>)
 80035d4:	6953      	ldr	r3, [r2, #20]
 80035d6:	f443 2300 	orr.w	r3, r3, #524288	; 0x80000
 80035da:	6153      	str	r3, [r2, #20]
 80035dc:	e7d3      	b.n	8003586 <XMC_SCU_CLOCK_SetBackupClockCalibrationMode+0x12>
 80035de:	bf00      	nop
 80035e0:	50004700 	.word	0x50004700
 80035e4:	2000ffc0 	.word	0x2000ffc0
 80035e8:	431bde83 	.word	0x431bde83

080035ec <XMC_SCU_POWER_EnableUsb>:

/* API to enable USB Phy and comparator */
void XMC_SCU_POWER_EnableUsb(void)
{
#if defined(USB_OTG_SUPPORTED)
  SCU_POWER->PWRSET = (uint32_t)(SCU_POWER_PWRSET_USBOTGEN_Msk | SCU_POWER_PWRSET_USBPHYPDQ_Msk);
 80035ec:	4b02      	ldr	r3, [pc, #8]	; (80035f8 <XMC_SCU_POWER_EnableUsb+0xc>)
 80035ee:	f44f 3240 	mov.w	r2, #196608	; 0x30000
 80035f2:	605a      	str	r2, [r3, #4]
#else
  SCU_POWER->PWRSET = (uint32_t)SCU_POWER_PWRSET_USBPHYPDQ_Msk;
#endif
}
 80035f4:	4770      	bx	lr
 80035f6:	bf00      	nop
 80035f8:	50004200 	.word	0x50004200

080035fc <XMC_SCU_POWER_DisableUsb>:

/* API to power down USB Phy and comparator */
void XMC_SCU_POWER_DisableUsb(void)
{
#if defined(USB_OTG_SUPPORTED)
  SCU_POWER->PWRCLR = (uint32_t)(SCU_POWER_PWRCLR_USBOTGEN_Msk | SCU_POWER_PWRSET_USBPHYPDQ_Msk);
 80035fc:	4b02      	ldr	r3, [pc, #8]	; (8003608 <XMC_SCU_POWER_DisableUsb+0xc>)
 80035fe:	f44f 3240 	mov.w	r2, #196608	; 0x30000
 8003602:	609a      	str	r2, [r3, #8]
#else
  SCU_POWER->PWRCLR = (uint32_t)SCU_POWER_PWRCLR_USBPHYPDQ_Msk;
#endif    
}
 8003604:	4770      	bx	lr
 8003606:	bf00      	nop
 8003608:	50004200 	.word	0x50004200

0800360c <XMC_SCU_CLOCK_IsUsbPllLocked>:

/* API to check USB PLL is locked or not */
bool XMC_SCU_CLOCK_IsUsbPllLocked(void)
{
  return (bool)((SCU_PLL->USBPLLSTAT & SCU_PLL_USBPLLSTAT_VCOLOCK_Msk) != 0UL);
 800360c:	4b02      	ldr	r3, [pc, #8]	; (8003618 <XMC_SCU_CLOCK_IsUsbPllLocked+0xc>)
 800360e:	6a18      	ldr	r0, [r3, #32]
}
 8003610:	f3c0 0080 	ubfx	r0, r0, #2, #1
 8003614:	4770      	bx	lr
 8003616:	bf00      	nop
 8003618:	50004700 	.word	0x50004700

0800361c <XMC_SCU_HIB_EnableHibernateDomain>:

/* API to power up the hibernation domain */
void XMC_SCU_HIB_EnableHibernateDomain(void)
{
  /* Power up HIB domain if and only if it is currently powered down */
  if((SCU_POWER->PWRSTAT & SCU_POWER_PWRSTAT_HIBEN_Msk) == 0UL)
 800361c:	4a09      	ldr	r2, [pc, #36]	; (8003644 <XMC_SCU_HIB_EnableHibernateDomain+0x28>)
 800361e:	6813      	ldr	r3, [r2, #0]
 8003620:	07db      	lsls	r3, r3, #31
 8003622:	d404      	bmi.n	800362e <XMC_SCU_HIB_EnableHibernateDomain+0x12>
  {
    SCU_POWER->PWRSET = (uint32_t)SCU_POWER_PWRSET_HIB_Msk;
 8003624:	2301      	movs	r3, #1
 8003626:	6053      	str	r3, [r2, #4]
    
    while((SCU_POWER->PWRSTAT & SCU_POWER_PWRSTAT_HIBEN_Msk) == 0UL)
 8003628:	6813      	ldr	r3, [r2, #0]
 800362a:	07d8      	lsls	r0, r3, #31
 800362c:	d5fc      	bpl.n	8003628 <XMC_SCU_HIB_EnableHibernateDomain+0xc>
      /* wait until HIB domain is enabled */
    }    
  }
  
  /* Remove the reset only if HIB domain were in a state of reset */
  if((SCU_RESET->RSTSTAT) & SCU_RESET_RSTSTAT_HIBRS_Msk)
 800362e:	4a06      	ldr	r2, [pc, #24]	; (8003648 <XMC_SCU_HIB_EnableHibernateDomain+0x2c>)
 8003630:	6813      	ldr	r3, [r2, #0]
 8003632:	0599      	lsls	r1, r3, #22
 8003634:	d505      	bpl.n	8003642 <XMC_SCU_HIB_EnableHibernateDomain+0x26>
  {
    SCU_RESET->RSTCLR = (uint32_t)SCU_RESET_RSTCLR_HIBRS_Msk;
 8003636:	f44f 7300 	mov.w	r3, #512	; 0x200
 800363a:	6093      	str	r3, [r2, #8]
    while((SCU_RESET->RSTSTAT & SCU_RESET_RSTSTAT_HIBRS_Msk) != 0UL)
 800363c:	6813      	ldr	r3, [r2, #0]
 800363e:	059b      	lsls	r3, r3, #22
 8003640:	d4fc      	bmi.n	800363c <XMC_SCU_HIB_EnableHibernateDomain+0x20>
    {
      /* wait until HIB domain is enabled */
    }
  }
}
 8003642:	4770      	bx	lr
 8003644:	50004200 	.word	0x50004200
 8003648:	50004400 	.word	0x50004400

0800364c <XMC_SCU_HIB_DisableHibernateDomain>:

/* API to power down the hibernation domain */
void XMC_SCU_HIB_DisableHibernateDomain(void)
{
  /* Disable hibernate domain */   
  SCU_POWER->PWRCLR = (uint32_t)SCU_POWER_PWRCLR_HIB_Msk;
 800364c:	4903      	ldr	r1, [pc, #12]	; (800365c <XMC_SCU_HIB_DisableHibernateDomain+0x10>)
  /* Reset of hibernate domain reset */  
  SCU_RESET->RSTSET = (uint32_t)SCU_RESET_RSTSET_HIBRS_Msk;
 800364e:	4b04      	ldr	r3, [pc, #16]	; (8003660 <XMC_SCU_HIB_DisableHibernateDomain+0x14>)
  SCU_POWER->PWRCLR = (uint32_t)SCU_POWER_PWRCLR_HIB_Msk;
 8003650:	2001      	movs	r0, #1
  SCU_RESET->RSTSET = (uint32_t)SCU_RESET_RSTSET_HIBRS_Msk;
 8003652:	f44f 7200 	mov.w	r2, #512	; 0x200
  SCU_POWER->PWRCLR = (uint32_t)SCU_POWER_PWRCLR_HIB_Msk;
 8003656:	6088      	str	r0, [r1, #8]
  SCU_RESET->RSTSET = (uint32_t)SCU_RESET_RSTSET_HIBRS_Msk;
 8003658:	605a      	str	r2, [r3, #4]
}
 800365a:	4770      	bx	lr
 800365c:	50004200 	.word	0x50004200
 8003660:	50004400 	.word	0x50004400

08003664 <XMC_SCU_HIB_IsHibernateDomainEnabled>:

/* API to check the hibernation domain is enabled or not */
bool XMC_SCU_HIB_IsHibernateDomainEnabled(void)
{
  return ((bool)(SCU_POWER->PWRSTAT & SCU_POWER_PWRSTAT_HIBEN_Msk) && 
 8003664:	4b05      	ldr	r3, [pc, #20]	; (800367c <XMC_SCU_HIB_IsHibernateDomainEnabled+0x18>)
 8003666:	6818      	ldr	r0, [r3, #0]
 8003668:	f010 0001 	ands.w	r0, r0, #1
 800366c:	d005      	beq.n	800367a <XMC_SCU_HIB_IsHibernateDomainEnabled+0x16>
          !(bool)(SCU_RESET->RSTSTAT & SCU_RESET_RSTSTAT_HIBRS_Msk));
 800366e:	f8d3 0200 	ldr.w	r0, [r3, #512]	; 0x200
  return ((bool)(SCU_POWER->PWRSTAT & SCU_POWER_PWRSTAT_HIBEN_Msk) && 
 8003672:	f480 7000 	eor.w	r0, r0, #512	; 0x200
 8003676:	f3c0 2040 	ubfx	r0, r0, #9, #1
}
 800367a:	4770      	bx	lr
 800367c:	50004200 	.word	0x50004200

08003680 <XMC_SCU_HIB_EnableInternalSlowClock>:

/* API to enable internal slow clock - fOSI (32.768kHz) in hibernate domain */
void XMC_SCU_HIB_EnableInternalSlowClock(void)
{
  while((SCU_GENERAL->MIRRSTS) & SCU_GENERAL_MIRRSTS_OSCSICTRL_Msk)
 8003680:	4a05      	ldr	r2, [pc, #20]	; (8003698 <XMC_SCU_HIB_EnableInternalSlowClock+0x18>)
 8003682:	f8d2 30c4 	ldr.w	r3, [r2, #196]	; 0xc4
 8003686:	069b      	lsls	r3, r3, #26
 8003688:	d4fb      	bmi.n	8003682 <XMC_SCU_HIB_EnableInternalSlowClock+0x2>
  {
    /* Wait until OSCSICTRL register in hibernate domain is ready to accept a write */  
  }
  SCU_HIBERNATE->OSCSICTRL &= (uint32_t)~(SCU_HIBERNATE_OSCSICTRL_PWD_Msk);
 800368a:	4a04      	ldr	r2, [pc, #16]	; (800369c <XMC_SCU_HIB_EnableInternalSlowClock+0x1c>)
 800368c:	6953      	ldr	r3, [r2, #20]
 800368e:	f023 0301 	bic.w	r3, r3, #1
 8003692:	6153      	str	r3, [r2, #20]
}
 8003694:	4770      	bx	lr
 8003696:	bf00      	nop
 8003698:	50004000 	.word	0x50004000
 800369c:	50004300 	.word	0x50004300

080036a0 <XMC_SCU_HIB_DisableInternalSlowClock>:

/* API to disable internal slow clock - fOSI (32.768kHz) in hibernate domain */
void XMC_SCU_HIB_DisableInternalSlowClock(void)
{
  while((SCU_GENERAL->MIRRSTS) & SCU_GENERAL_MIRRSTS_OSCSICTRL_Msk)
 80036a0:	4a05      	ldr	r2, [pc, #20]	; (80036b8 <XMC_SCU_HIB_DisableInternalSlowClock+0x18>)
 80036a2:	f8d2 30c4 	ldr.w	r3, [r2, #196]	; 0xc4
 80036a6:	069b      	lsls	r3, r3, #26
 80036a8:	d4fb      	bmi.n	80036a2 <XMC_SCU_HIB_DisableInternalSlowClock+0x2>
  {
    /* Wait until OSCSICTRL register in hibernate domain is ready to accept a write */  
  }
  SCU_HIBERNATE->OSCSICTRL |= (uint32_t)SCU_HIBERNATE_OSCSICTRL_PWD_Msk;
 80036aa:	4a04      	ldr	r2, [pc, #16]	; (80036bc <XMC_SCU_HIB_DisableInternalSlowClock+0x1c>)
 80036ac:	6953      	ldr	r3, [r2, #20]
 80036ae:	f043 0301 	orr.w	r3, r3, #1
 80036b2:	6153      	str	r3, [r2, #20]
}
 80036b4:	4770      	bx	lr
 80036b6:	bf00      	nop
 80036b8:	50004000 	.word	0x50004000
 80036bc:	50004300 	.word	0x50004300

080036c0 <XMC_SCU_HIB_ClearEventStatus>:

void XMC_SCU_HIB_ClearEventStatus(int32_t event)
{
  while((SCU_GENERAL->MIRRSTS) & SCU_GENERAL_MIRRSTS_HDCLR_Msk)
 80036c0:	4a03      	ldr	r2, [pc, #12]	; (80036d0 <XMC_SCU_HIB_ClearEventStatus+0x10>)
 80036c2:	f8d2 30c4 	ldr.w	r3, [r2, #196]	; 0xc4
 80036c6:	079b      	lsls	r3, r3, #30
 80036c8:	d4fb      	bmi.n	80036c2 <XMC_SCU_HIB_ClearEventStatus+0x2>
  {
    /* Wait until HDCLR register in hibernate domain is ready to accept a write */  
  }
  SCU_HIBERNATE->HDCLR = event;
 80036ca:	4b02      	ldr	r3, [pc, #8]	; (80036d4 <XMC_SCU_HIB_ClearEventStatus+0x14>)
 80036cc:	6058      	str	r0, [r3, #4]
}
 80036ce:	4770      	bx	lr
 80036d0:	50004000 	.word	0x50004000
 80036d4:	50004300 	.word	0x50004300

080036d8 <XMC_SCU_HIB_TriggerEvent>:

void XMC_SCU_HIB_TriggerEvent(int32_t event)
{
  while((SCU_GENERAL->MIRRSTS) & SCU_GENERAL_MIRRSTS_HDSET_Msk)
 80036d8:	4a03      	ldr	r2, [pc, #12]	; (80036e8 <XMC_SCU_HIB_TriggerEvent+0x10>)
 80036da:	f8d2 30c4 	ldr.w	r3, [r2, #196]	; 0xc4
 80036de:	075b      	lsls	r3, r3, #29
 80036e0:	d4fb      	bmi.n	80036da <XMC_SCU_HIB_TriggerEvent+0x2>
  {
    /* Wait until HDSET register in hibernate domain is ready to accept a write */    
  }
  SCU_HIBERNATE->HDSET = event;
 80036e2:	4b02      	ldr	r3, [pc, #8]	; (80036ec <XMC_SCU_HIB_TriggerEvent+0x14>)
 80036e4:	6098      	str	r0, [r3, #8]
}
 80036e6:	4770      	bx	lr
 80036e8:	50004000 	.word	0x50004000
 80036ec:	50004300 	.word	0x50004300

080036f0 <XMC_SCU_HIB_EnableEvent>:
  event = ((event & XMC_SCU_HIB_EVENT_LPAC_HIB_IO_1_POSEDGE) << (SCU_HIBERNATE_HDCR_AHIBIO1HI_Pos - SCU_HIBERNATE_HDSTAT_AHIBIO1PEV_Pos)) | (event & (uint32_t)~XMC_SCU_HIB_EVENT_LPAC_HIB_IO_1_POSEDGE);
  event = ((event & XMC_SCU_HIB_EVENT_LPAC_HIB_IO_1_NEGEDGE) << (SCU_HIBERNATE_HDCR_AHIBIO1LO_Pos - SCU_HIBERNATE_HDSTAT_AHIBIO1NEV_Pos)) | (event & (uint32_t)~XMC_SCU_HIB_EVENT_LPAC_HIB_IO_1_NEGEDGE);
#endif
#endif

  while((SCU_GENERAL->MIRRSTS) & SCU_GENERAL_MIRRSTS_HDCR_Msk)
 80036f0:	4a04      	ldr	r2, [pc, #16]	; (8003704 <XMC_SCU_HIB_EnableEvent+0x14>)
 80036f2:	f8d2 30c4 	ldr.w	r3, [r2, #196]	; 0xc4
 80036f6:	071b      	lsls	r3, r3, #28
 80036f8:	d4fb      	bmi.n	80036f2 <XMC_SCU_HIB_EnableEvent+0x2>
  {
    /* Wait until HDCR register in hibernate domain is ready to accept a write */    
  }
  SCU_HIBERNATE->HDCR |= event;
 80036fa:	4b03      	ldr	r3, [pc, #12]	; (8003708 <XMC_SCU_HIB_EnableEvent+0x18>)
 80036fc:	68da      	ldr	r2, [r3, #12]
 80036fe:	4310      	orrs	r0, r2
 8003700:	60d8      	str	r0, [r3, #12]
}
 8003702:	4770      	bx	lr
 8003704:	50004000 	.word	0x50004000
 8003708:	50004300 	.word	0x50004300

0800370c <XMC_SCU_HIB_DisableEvent>:
  event = ((event & XMC_SCU_HIB_EVENT_LPAC_HIB_IO_1_POSEDGE) << (SCU_HIBERNATE_HDCR_AHIBIO1HI_Pos - SCU_HIBERNATE_HDSTAT_AHIBIO1PEV_Pos)) | (event & (uint32_t)~XMC_SCU_HIB_EVENT_LPAC_HIB_IO_1_POSEDGE);
  event = ((event & XMC_SCU_HIB_EVENT_LPAC_HIB_IO_1_NEGEDGE) << (SCU_HIBERNATE_HDCR_AHIBIO1LO_Pos - SCU_HIBERNATE_HDSTAT_AHIBIO1NEV_Pos)) | (event & (uint32_t)~XMC_SCU_HIB_EVENT_LPAC_HIB_IO_1_NEGEDGE);
#endif
#endif

  while((SCU_GENERAL->MIRRSTS) & SCU_GENERAL_MIRRSTS_HDCR_Msk)
 800370c:	4a05      	ldr	r2, [pc, #20]	; (8003724 <XMC_SCU_HIB_DisableEvent+0x18>)
 800370e:	f8d2 30c4 	ldr.w	r3, [r2, #196]	; 0xc4
 8003712:	071b      	lsls	r3, r3, #28
 8003714:	d4fb      	bmi.n	800370e <XMC_SCU_HIB_DisableEvent+0x2>
  {
    /* Wait until HDCR register in hibernate domain is ready to accept a write */    
  }
  SCU_HIBERNATE->HDCR &= ~event;
 8003716:	4a04      	ldr	r2, [pc, #16]	; (8003728 <XMC_SCU_HIB_DisableEvent+0x1c>)
 8003718:	68d3      	ldr	r3, [r2, #12]
 800371a:	ea23 0000 	bic.w	r0, r3, r0
 800371e:	60d0      	str	r0, [r2, #12]
}
 8003720:	4770      	bx	lr
 8003722:	bf00      	nop
 8003724:	50004000 	.word	0x50004000
 8003728:	50004300 	.word	0x50004300

0800372c <XMC_SCU_HIB_EnterHibernateState>:

void XMC_SCU_HIB_EnterHibernateState(void) 
{
  while((SCU_GENERAL->MIRRSTS) & SCU_GENERAL_MIRRSTS_HDCR_Msk)
 800372c:	4a05      	ldr	r2, [pc, #20]	; (8003744 <XMC_SCU_HIB_EnterHibernateState+0x18>)
 800372e:	f8d2 30c4 	ldr.w	r3, [r2, #196]	; 0xc4
 8003732:	071b      	lsls	r3, r3, #28
 8003734:	d4fb      	bmi.n	800372e <XMC_SCU_HIB_EnterHibernateState+0x2>
  {
    /* Wait until HDCR register in hibernate domain is ready to accept a write */    
  }
  SCU_HIBERNATE->HDCR |= SCU_HIBERNATE_HDCR_HIB_Msk;
 8003736:	4a04      	ldr	r2, [pc, #16]	; (8003748 <XMC_SCU_HIB_EnterHibernateState+0x1c>)
 8003738:	68d3      	ldr	r3, [r2, #12]
 800373a:	f043 0310 	orr.w	r3, r3, #16
 800373e:	60d3      	str	r3, [r2, #12]
}
 8003740:	4770      	bx	lr
 8003742:	bf00      	nop
 8003744:	50004000 	.word	0x50004000
 8003748:	50004300 	.word	0x50004300

0800374c <XMC_SCU_HIB_EnterHibernateStateEx>:

void XMC_SCU_HIB_EnterHibernateStateEx(XMC_SCU_HIB_HIBERNATE_MODE_t mode)
{
  if (mode == XMC_SCU_HIB_HIBERNATE_MODE_EXTERNAL)
 800374c:	b948      	cbnz	r0, 8003762 <XMC_SCU_HIB_EnterHibernateStateEx+0x16>
  while((SCU_GENERAL->MIRRSTS) & SCU_GENERAL_MIRRSTS_HDCR_Msk)
 800374e:	4a05      	ldr	r2, [pc, #20]	; (8003764 <XMC_SCU_HIB_EnterHibernateStateEx+0x18>)
 8003750:	f8d2 30c4 	ldr.w	r3, [r2, #196]	; 0xc4
 8003754:	071b      	lsls	r3, r3, #28
 8003756:	d4fb      	bmi.n	8003750 <XMC_SCU_HIB_EnterHibernateStateEx+0x4>
  SCU_HIBERNATE->HDCR |= SCU_HIBERNATE_HDCR_HIB_Msk;
 8003758:	4a03      	ldr	r2, [pc, #12]	; (8003768 <XMC_SCU_HIB_EnterHibernateStateEx+0x1c>)
 800375a:	68d3      	ldr	r3, [r2, #12]
 800375c:	f043 0310 	orr.w	r3, r3, #16
 8003760:	60d3      	str	r3, [r2, #12]
      /* Wait until HDCR register in hibernate domain is ready to accept a write */
    }
    SCU_HIBERNATE->HINTSET = SCU_HIBERNATE_HINTSET_HIBNINT_Msk;
  }
#endif
}
 8003762:	4770      	bx	lr
 8003764:	50004000 	.word	0x50004000
 8003768:	50004300 	.word	0x50004300

0800376c <XMC_SCU_HIB_SetWakeupTriggerInput>:

void XMC_SCU_HIB_SetWakeupTriggerInput(XMC_SCU_HIB_IO_t pin)
{
  while((SCU_GENERAL->MIRRSTS) & SCU_GENERAL_MIRRSTS_HDCR_Msk)
 800376c:	4a07      	ldr	r2, [pc, #28]	; (800378c <XMC_SCU_HIB_SetWakeupTriggerInput+0x20>)
 800376e:	f8d2 30c4 	ldr.w	r3, [r2, #196]	; 0xc4
 8003772:	071b      	lsls	r3, r3, #28
 8003774:	d4fb      	bmi.n	800376e <XMC_SCU_HIB_SetWakeupTriggerInput+0x2>
    /* Wait until HDCR register in hibernate domain is ready to accept a write */    
  }

  if (pin == XMC_SCU_HIB_IO_0)
  {
    SCU_HIBERNATE->HDCR |= SCU_HIBERNATE_HDCR_WKUPSEL_Msk;
 8003776:	4a06      	ldr	r2, [pc, #24]	; (8003790 <XMC_SCU_HIB_SetWakeupTriggerInput+0x24>)
 8003778:	68d3      	ldr	r3, [r2, #12]
  if (pin == XMC_SCU_HIB_IO_0)
 800377a:	b918      	cbnz	r0, 8003784 <XMC_SCU_HIB_SetWakeupTriggerInput+0x18>
    SCU_HIBERNATE->HDCR |= SCU_HIBERNATE_HDCR_WKUPSEL_Msk;
 800377c:	f443 7380 	orr.w	r3, r3, #256	; 0x100
 8003780:	60d3      	str	r3, [r2, #12]
 8003782:	4770      	bx	lr
  }
  else
  {
    SCU_HIBERNATE->HDCR &= ~SCU_HIBERNATE_HDCR_WKUPSEL_Msk; 
 8003784:	f423 7380 	bic.w	r3, r3, #256	; 0x100
 8003788:	60d3      	str	r3, [r2, #12]
  }
}
 800378a:	4770      	bx	lr
 800378c:	50004000 	.word	0x50004000
 8003790:	50004300 	.word	0x50004300

08003794 <XMC_SCU_HIB_SetPinMode>:

void XMC_SCU_HIB_SetPinMode(XMC_SCU_HIB_IO_t pin, XMC_SCU_HIB_PIN_MODE_t mode)
{
 8003794:	b410      	push	{r4}
  while((SCU_GENERAL->MIRRSTS) & SCU_GENERAL_MIRRSTS_HDCR_Msk)
 8003796:	4a0a      	ldr	r2, [pc, #40]	; (80037c0 <XMC_SCU_HIB_SetPinMode+0x2c>)
 8003798:	f8d2 30c4 	ldr.w	r3, [r2, #196]	; 0xc4
 800379c:	071b      	lsls	r3, r3, #28
 800379e:	d4fb      	bmi.n	8003798 <XMC_SCU_HIB_SetPinMode+0x4>
  {
    /* Wait until HDCR register in hibernate domain is ready to accept a write */    
  }
  SCU_HIBERNATE->HDCR = (SCU_HIBERNATE->HDCR & ~(SCU_HIBERNATE_HDCR_HIBIO0SEL_Msk << (SCU_HIBERNATE_HDCR_HIBIOSEL_Size * pin))) |
 80037a0:	4c08      	ldr	r4, [pc, #32]	; (80037c4 <XMC_SCU_HIB_SetPinMode+0x30>)
 80037a2:	0080      	lsls	r0, r0, #2
 80037a4:	68e3      	ldr	r3, [r4, #12]
 80037a6:	f44f 2270 	mov.w	r2, #983040	; 0xf0000
 80037aa:	4082      	lsls	r2, r0
 80037ac:	ea23 0302 	bic.w	r3, r3, r2
                        (mode << (SCU_HIBERNATE_HDCR_HIBIOSEL_Size * pin));
 80037b0:	fa01 f000 	lsl.w	r0, r1, r0
  SCU_HIBERNATE->HDCR = (SCU_HIBERNATE->HDCR & ~(SCU_HIBERNATE_HDCR_HIBIO0SEL_Msk << (SCU_HIBERNATE_HDCR_HIBIOSEL_Size * pin))) |
 80037b4:	4318      	orrs	r0, r3
 80037b6:	60e0      	str	r0, [r4, #12]
}
 80037b8:	f85d 4b04 	ldr.w	r4, [sp], #4
 80037bc:	4770      	bx	lr
 80037be:	bf00      	nop
 80037c0:	50004000 	.word	0x50004000
 80037c4:	50004300 	.word	0x50004300

080037c8 <XMC_SCU_HIB_SetPinOutputLevel>:

void XMC_SCU_HIB_SetPinOutputLevel(XMC_SCU_HIB_IO_t pin, XMC_SCU_HIB_IO_OUTPUT_LEVEL_t level)
{
 80037c8:	b410      	push	{r4}
  while((SCU_GENERAL->MIRRSTS) & SCU_GENERAL_MIRRSTS_HDCR_Msk)
 80037ca:	4a09      	ldr	r2, [pc, #36]	; (80037f0 <XMC_SCU_HIB_SetPinOutputLevel+0x28>)
 80037cc:	f8d2 30c4 	ldr.w	r3, [r2, #196]	; 0xc4
 80037d0:	071b      	lsls	r3, r3, #28
 80037d2:	d4fb      	bmi.n	80037cc <XMC_SCU_HIB_SetPinOutputLevel+0x4>
  {
    /* Wait until HDCR register in hibernate domain is ready to accept a write */    
  }
  SCU_HIBERNATE->HDCR = (SCU_HIBERNATE->HDCR & ~(SCU_HIBERNATE_HDCR_HIBIO0POL_Msk << pin)) |
 80037d4:	4c07      	ldr	r4, [pc, #28]	; (80037f4 <XMC_SCU_HIB_SetPinOutputLevel+0x2c>)
 80037d6:	f44f 5380 	mov.w	r3, #4096	; 0x1000
 80037da:	68e2      	ldr	r2, [r4, #12]
 80037dc:	4083      	lsls	r3, r0
 80037de:	ea22 0203 	bic.w	r2, r2, r3
                        (level << pin);
 80037e2:	fa01 f300 	lsl.w	r3, r1, r0
  SCU_HIBERNATE->HDCR = (SCU_HIBERNATE->HDCR & ~(SCU_HIBERNATE_HDCR_HIBIO0POL_Msk << pin)) |
 80037e6:	4313      	orrs	r3, r2
 80037e8:	60e3      	str	r3, [r4, #12]
}
 80037ea:	f85d 4b04 	ldr.w	r4, [sp], #4
 80037ee:	4770      	bx	lr
 80037f0:	50004000 	.word	0x50004000
 80037f4:	50004300 	.word	0x50004300

080037f8 <XMC_SCU_HIB_SetInput0>:

void XMC_SCU_HIB_SetInput0(XMC_SCU_HIB_IO_t pin)
{
  while((SCU_GENERAL->MIRRSTS) & SCU_GENERAL_MIRRSTS_HDCR_Msk)
 80037f8:	4a07      	ldr	r2, [pc, #28]	; (8003818 <XMC_SCU_HIB_SetInput0+0x20>)
 80037fa:	f8d2 30c4 	ldr.w	r3, [r2, #196]	; 0xc4
 80037fe:	071b      	lsls	r3, r3, #28
 8003800:	d4fb      	bmi.n	80037fa <XMC_SCU_HIB_SetInput0+0x2>
    /* Wait until HDCR register in hibernate domain is ready to accept a write */    
  }

  if (pin == XMC_SCU_HIB_IO_0)
  {
    SCU_HIBERNATE->HDCR |= SCU_HIBERNATE_HDCR_GPI0SEL_Msk;
 8003802:	4a06      	ldr	r2, [pc, #24]	; (800381c <XMC_SCU_HIB_SetInput0+0x24>)
 8003804:	68d3      	ldr	r3, [r2, #12]
  if (pin == XMC_SCU_HIB_IO_0)
 8003806:	b918      	cbnz	r0, 8003810 <XMC_SCU_HIB_SetInput0+0x18>
    SCU_HIBERNATE->HDCR |= SCU_HIBERNATE_HDCR_GPI0SEL_Msk;
 8003808:	f443 6380 	orr.w	r3, r3, #1024	; 0x400
 800380c:	60d3      	str	r3, [r2, #12]
 800380e:	4770      	bx	lr
  }
  else
  {
    SCU_HIBERNATE->HDCR &= ~SCU_HIBERNATE_HDCR_GPI0SEL_Msk; 
 8003810:	f423 6380 	bic.w	r3, r3, #1024	; 0x400
 8003814:	60d3      	str	r3, [r2, #12]
  }
}
 8003816:	4770      	bx	lr
 8003818:	50004000 	.word	0x50004000
 800381c:	50004300 	.word	0x50004300

08003820 <XMC_SCU_HIB_SetSR0Input>:

void XMC_SCU_HIB_SetSR0Input(XMC_SCU_HIB_SR0_INPUT_t input)
{
  while((SCU_GENERAL->MIRRSTS) & SCU_GENERAL_MIRRSTS_HDCR_Msk)
 8003820:	4a05      	ldr	r2, [pc, #20]	; (8003838 <XMC_SCU_HIB_SetSR0Input+0x18>)
 8003822:	f8d2 30c4 	ldr.w	r3, [r2, #196]	; 0xc4
 8003826:	071b      	lsls	r3, r3, #28
 8003828:	d4fb      	bmi.n	8003822 <XMC_SCU_HIB_SetSR0Input+0x2>
    /* Wait until HDCR register in hibernate domain is ready to accept a write */
  }
#if ((UC_SERIES == XMC44) || (UC_SERIES == XMC42) || (UC_SERIES == XMC41))
  SCU_HIBERNATE->HDCR = (SCU_HIBERNATE->HDCR & (uint32_t)~(SCU_HIBERNATE_HDCR_GPI0SEL_Msk | SCU_HIBERNATE_HDCR_ADIG0SEL_Msk)) | 
#else
  SCU_HIBERNATE->HDCR = (SCU_HIBERNATE->HDCR & (uint32_t)~(SCU_HIBERNATE_HDCR_GPI0SEL_Msk)) | 
 800382a:	4a04      	ldr	r2, [pc, #16]	; (800383c <XMC_SCU_HIB_SetSR0Input+0x1c>)
 800382c:	68d3      	ldr	r3, [r2, #12]
 800382e:	f423 6380 	bic.w	r3, r3, #1024	; 0x400
 8003832:	4318      	orrs	r0, r3
 8003834:	60d0      	str	r0, [r2, #12]
#endif  
                        input;
}
 8003836:	4770      	bx	lr
 8003838:	50004000 	.word	0x50004000
 800383c:	50004300 	.word	0x50004300

08003840 <XMC_SCU_CLOCK_IsLowPowerOscillatorStable>:

#endif

bool XMC_SCU_CLOCK_IsLowPowerOscillatorStable(void)
{
  return ((SCU_HIBERNATE->HDSTAT & SCU_HIBERNATE_HDSTAT_ULPWDG_Msk) == 0UL);
 8003840:	4b03      	ldr	r3, [pc, #12]	; (8003850 <XMC_SCU_CLOCK_IsLowPowerOscillatorStable+0x10>)
 8003842:	6818      	ldr	r0, [r3, #0]
 8003844:	f080 0008 	eor.w	r0, r0, #8
}
 8003848:	f3c0 00c0 	ubfx	r0, r0, #3, #1
 800384c:	4770      	bx	lr
 800384e:	bf00      	nop
 8003850:	50004300 	.word	0x50004300

08003854 <XMC_SCU_CLOCK_EnableLowPowerOscillator>:

/* API to configure the 32khz Ultra Low Power oscillator */
void XMC_SCU_CLOCK_EnableLowPowerOscillator(void)
{
  /* Enable OSC_ULP */
  while((SCU_GENERAL->MIRRSTS) & SCU_GENERAL_MIRRSTS_OSCULCTRL_Msk)
 8003854:	4a10      	ldr	r2, [pc, #64]	; (8003898 <XMC_SCU_CLOCK_EnableLowPowerOscillator+0x44>)
 8003856:	f8d2 30c4 	ldr.w	r3, [r2, #196]	; 0xc4
 800385a:	0618      	lsls	r0, r3, #24
 800385c:	d4fb      	bmi.n	8003856 <XMC_SCU_CLOCK_EnableLowPowerOscillator+0x2>
  {
    /* Wait until no pending update to OSCULCTRL register in hibernate domain */
  }
  SCU_HIBERNATE->OSCULCTRL &= ~SCU_HIBERNATE_OSCULCTRL_MODE_Msk;
 800385e:	490f      	ldr	r1, [pc, #60]	; (800389c <XMC_SCU_CLOCK_EnableLowPowerOscillator+0x48>)

  /* Enable OSC_ULP Oscillator Watchdog*/
  while (SCU_GENERAL->MIRRSTS & SCU_GENERAL_MIRRSTS_HDCR_Msk)
 8003860:	4a0d      	ldr	r2, [pc, #52]	; (8003898 <XMC_SCU_CLOCK_EnableLowPowerOscillator+0x44>)
  SCU_HIBERNATE->OSCULCTRL &= ~SCU_HIBERNATE_OSCULCTRL_MODE_Msk;
 8003862:	69cb      	ldr	r3, [r1, #28]
 8003864:	f023 0330 	bic.w	r3, r3, #48	; 0x30
 8003868:	61cb      	str	r3, [r1, #28]
  while (SCU_GENERAL->MIRRSTS & SCU_GENERAL_MIRRSTS_HDCR_Msk)
 800386a:	f8d2 30c4 	ldr.w	r3, [r2, #196]	; 0xc4
 800386e:	0719      	lsls	r1, r3, #28
 8003870:	d4fb      	bmi.n	800386a <XMC_SCU_CLOCK_EnableLowPowerOscillator+0x16>
  {
    /* check SCU_MIRRSTS to ensure that no transfer over serial interface is pending */
  }
  SCU_HIBERNATE->HDCR |= (uint32_t)SCU_HIBERNATE_HDCR_ULPWDGEN_Msk;
 8003872:	490a      	ldr	r1, [pc, #40]	; (800389c <XMC_SCU_CLOCK_EnableLowPowerOscillator+0x48>)

  /* Enable OSC_ULP Oscillator Watchdog*/
  while (SCU_GENERAL->MIRRSTS & SCU_GENERAL_MIRRSTS_HDSET_Msk)
 8003874:	4a08      	ldr	r2, [pc, #32]	; (8003898 <XMC_SCU_CLOCK_EnableLowPowerOscillator+0x44>)
  SCU_HIBERNATE->HDCR |= (uint32_t)SCU_HIBERNATE_HDCR_ULPWDGEN_Msk;
 8003876:	68cb      	ldr	r3, [r1, #12]
 8003878:	f043 0308 	orr.w	r3, r3, #8
 800387c:	60cb      	str	r3, [r1, #12]
  while (SCU_GENERAL->MIRRSTS & SCU_GENERAL_MIRRSTS_HDSET_Msk)
 800387e:	f8d2 30c4 	ldr.w	r3, [r2, #196]	; 0xc4
 8003882:	075b      	lsls	r3, r3, #29
 8003884:	d4fb      	bmi.n	800387e <XMC_SCU_CLOCK_EnableLowPowerOscillator+0x2a>
  {
    /* check SCU_MIRRSTS to ensure that no transfer over serial interface is pending */
  }
  SCU_HIBERNATE->HDSET = (uint32_t)SCU_HIBERNATE_HDSET_ULPWDG_Msk;
 8003886:	4b05      	ldr	r3, [pc, #20]	; (800389c <XMC_SCU_CLOCK_EnableLowPowerOscillator+0x48>)
 * is busy with executing the previous operation.\n
 * Note: There is no hibernate domain in XMC1x devices. This register is retained for legacy purpose.
 */
__STATIC_INLINE uint32_t XMC_SCU_GetMirrorStatus(void)
{
  return(SCU_GENERAL->MIRRSTS);
 8003888:	4a03      	ldr	r2, [pc, #12]	; (8003898 <XMC_SCU_CLOCK_EnableLowPowerOscillator+0x44>)
 800388a:	2108      	movs	r1, #8
 800388c:	6099      	str	r1, [r3, #8]
 800388e:	f8d2 30c4 	ldr.w	r3, [r2, #196]	; 0xc4

  while (XMC_SCU_GetMirrorStatus() != 0)
 8003892:	2b00      	cmp	r3, #0
 8003894:	d1fb      	bne.n	800388e <XMC_SCU_CLOCK_EnableLowPowerOscillator+0x3a>
  {
    /* Wait until update of the stanby clock source is done in the HIB domain */    
  }
}
 8003896:	4770      	bx	lr
 8003898:	50004000 	.word	0x50004000
 800389c:	50004300 	.word	0x50004300

080038a0 <XMC_SCU_CLOCK_DisableLowPowerOscillator>:

/* API to configure the 32khz Ultra Low Power oscillator */
void XMC_SCU_CLOCK_DisableLowPowerOscillator(void)
{
  while((SCU_GENERAL->MIRRSTS) & SCU_GENERAL_MIRRSTS_OSCULCTRL_Msk)
 80038a0:	4a05      	ldr	r2, [pc, #20]	; (80038b8 <XMC_SCU_CLOCK_DisableLowPowerOscillator+0x18>)
 80038a2:	f8d2 30c4 	ldr.w	r3, [r2, #196]	; 0xc4
 80038a6:	061b      	lsls	r3, r3, #24
 80038a8:	d4fb      	bmi.n	80038a2 <XMC_SCU_CLOCK_DisableLowPowerOscillator+0x2>
  {
    /* Wait until OSCULCTRL register in hibernate domain is ready to accept a write */    
  }
  SCU_HIBERNATE->OSCULCTRL |= (uint32_t)SCU_HIBERNATE_OSCULCTRL_MODE_Msk;
 80038aa:	4a04      	ldr	r2, [pc, #16]	; (80038bc <XMC_SCU_CLOCK_DisableLowPowerOscillator+0x1c>)
 80038ac:	69d3      	ldr	r3, [r2, #28]
 80038ae:	f043 0330 	orr.w	r3, r3, #48	; 0x30
 80038b2:	61d3      	str	r3, [r2, #28]
}
 80038b4:	4770      	bx	lr
 80038b6:	bf00      	nop
 80038b8:	50004000 	.word	0x50004000
 80038bc:	50004300 	.word	0x50004300

080038c0 <XMC_SCU_CLOCK_EnableLowPowerOscillatorGeneralPurposeInput>:

void XMC_SCU_CLOCK_EnableLowPowerOscillatorGeneralPurposeInput(void)
{
  while((SCU_GENERAL->MIRRSTS) & SCU_GENERAL_MIRRSTS_OSCULCTRL_Msk)
 80038c0:	4a05      	ldr	r2, [pc, #20]	; (80038d8 <XMC_SCU_CLOCK_EnableLowPowerOscillatorGeneralPurposeInput+0x18>)
 80038c2:	f8d2 30c4 	ldr.w	r3, [r2, #196]	; 0xc4
 80038c6:	061b      	lsls	r3, r3, #24
 80038c8:	d4fb      	bmi.n	80038c2 <XMC_SCU_CLOCK_EnableLowPowerOscillatorGeneralPurposeInput+0x2>
  {
    /* Wait until OSCULCTRL register in hibernate domain is ready to accept a write */    
  }
  SCU_HIBERNATE->OSCULCTRL |= SCU_HIBERNATE_OSCULCTRL_X1DEN_Msk | SCU_HIBERNATE_OSCULCTRL_MODE_Msk;
 80038ca:	4a04      	ldr	r2, [pc, #16]	; (80038dc <XMC_SCU_CLOCK_EnableLowPowerOscillatorGeneralPurposeInput+0x1c>)
 80038cc:	69d3      	ldr	r3, [r2, #28]
 80038ce:	f043 0331 	orr.w	r3, r3, #49	; 0x31
 80038d2:	61d3      	str	r3, [r2, #28]
}
 80038d4:	4770      	bx	lr
 80038d6:	bf00      	nop
 80038d8:	50004000 	.word	0x50004000
 80038dc:	50004300 	.word	0x50004300

080038e0 <XMC_SCU_CLOCK_DisableLowPowerOscillatorGeneralPurposeInput>:

void XMC_SCU_CLOCK_DisableLowPowerOscillatorGeneralPurposeInput(void)
{
  while((SCU_GENERAL->MIRRSTS) & SCU_GENERAL_MIRRSTS_OSCULCTRL_Msk)
 80038e0:	4a06      	ldr	r2, [pc, #24]	; (80038fc <XMC_SCU_CLOCK_DisableLowPowerOscillatorGeneralPurposeInput+0x1c>)
 80038e2:	f8d2 30c4 	ldr.w	r3, [r2, #196]	; 0xc4
 80038e6:	061b      	lsls	r3, r3, #24
 80038e8:	d4fb      	bmi.n	80038e2 <XMC_SCU_CLOCK_DisableLowPowerOscillatorGeneralPurposeInput+0x2>
  {
    /* Wait until OSCULCTRL register in hibernate domain is ready to accept a write */    
  }
  SCU_HIBERNATE->OSCULCTRL = (SCU_HIBERNATE->OSCULCTRL & ~(uint32_t)(SCU_HIBERNATE_OSCULCTRL_X1DEN_Msk | SCU_HIBERNATE_OSCULCTRL_MODE_Msk)) |
 80038ea:	4a05      	ldr	r2, [pc, #20]	; (8003900 <XMC_SCU_CLOCK_DisableLowPowerOscillatorGeneralPurposeInput+0x20>)
 80038ec:	69d3      	ldr	r3, [r2, #28]
 80038ee:	f023 0331 	bic.w	r3, r3, #49	; 0x31
 80038f2:	f043 0320 	orr.w	r3, r3, #32
 80038f6:	61d3      	str	r3, [r2, #28]
                             (SCU_HIBERNATE_OSCULCTRL_MODE_OSC_POWER_DOWN << SCU_HIBERNATE_OSCULCTRL_MODE_Pos);                       
}
 80038f8:	4770      	bx	lr
 80038fa:	bf00      	nop
 80038fc:	50004000 	.word	0x50004000
 8003900:	50004300 	.word	0x50004300

08003904 <XMC_SCU_CLOCK_GetLowPowerOscillatorGeneralPurposeInputStatus>:

uint32_t XMC_SCU_CLOCK_GetLowPowerOscillatorGeneralPurposeInputStatus(void)
{
  return (SCU_HIBERNATE->OSCULSTAT & SCU_HIBERNATE_OSCULSTAT_X1D_Msk);
 8003904:	4b02      	ldr	r3, [pc, #8]	; (8003910 <XMC_SCU_CLOCK_GetLowPowerOscillatorGeneralPurposeInputStatus+0xc>)
 8003906:	6998      	ldr	r0, [r3, #24]
}
 8003908:	f000 0001 	and.w	r0, r0, #1
 800390c:	4770      	bx	lr
 800390e:	bf00      	nop
 8003910:	50004300 	.word	0x50004300

08003914 <XMC_SCU_CLOCK_EnableHighPerformanceOscillator>:

/* API to enable High Precision High Speed oscillator */
void XMC_SCU_CLOCK_EnableHighPerformanceOscillator(void)
{
 8003914:	b538      	push	{r3, r4, r5, lr}
  SCU_PLL->PLLCON0 &= (uint32_t)~SCU_PLL_PLLCON0_PLLPWD_Msk;
 8003916:	4d0c      	ldr	r5, [pc, #48]	; (8003948 <XMC_SCU_CLOCK_EnableHighPerformanceOscillator+0x34>)
 8003918:	696b      	ldr	r3, [r5, #20]
 800391a:	f423 3380 	bic.w	r3, r3, #65536	; 0x10000
 800391e:	616b      	str	r3, [r5, #20]

  SCU_OSC->OSCHPCTRL = (uint32_t)((SCU_OSC->OSCHPCTRL & ~(SCU_OSC_OSCHPCTRL_MODE_Msk | SCU_OSC_OSCHPCTRL_OSCVAL_Msk)) |
 8003920:	686c      	ldr	r4, [r5, #4]
                                  (((OSCHP_GetFrequency() / FOSCREF) - 1UL) << SCU_OSC_OSCHPCTRL_OSCVAL_Pos));
 8003922:	f000 fd09 	bl	8004338 <OSCHP_GetFrequency>
 8003926:	4b09      	ldr	r3, [pc, #36]	; (800394c <XMC_SCU_CLOCK_EnableHighPerformanceOscillator+0x38>)
 8003928:	fba3 3000 	umull	r3, r0, r3, r0
 800392c:	0d03      	lsrs	r3, r0, #20
  SCU_OSC->OSCHPCTRL = (uint32_t)((SCU_OSC->OSCHPCTRL & ~(SCU_OSC_OSCHPCTRL_MODE_Msk | SCU_OSC_OSCHPCTRL_OSCVAL_Msk)) |
 800392e:	f424 2270 	bic.w	r2, r4, #983040	; 0xf0000
                                  (((OSCHP_GetFrequency() / FOSCREF) - 1UL) << SCU_OSC_OSCHPCTRL_OSCVAL_Pos));
 8003932:	3b01      	subs	r3, #1
  SCU_OSC->OSCHPCTRL = (uint32_t)((SCU_OSC->OSCHPCTRL & ~(SCU_OSC_OSCHPCTRL_MODE_Msk | SCU_OSC_OSCHPCTRL_OSCVAL_Msk)) |
 8003934:	f022 0230 	bic.w	r2, r2, #48	; 0x30
 8003938:	ea42 4303 	orr.w	r3, r2, r3, lsl #16
 800393c:	606b      	str	r3, [r5, #4]

  /* restart OSC Watchdog */
  SCU_PLL->PLLCON0 &= (uint32_t)~SCU_PLL_PLLCON0_OSCRES_Msk;
 800393e:	696b      	ldr	r3, [r5, #20]
 8003940:	f423 3300 	bic.w	r3, r3, #131072	; 0x20000
 8003944:	616b      	str	r3, [r5, #20]
}
 8003946:	bd38      	pop	{r3, r4, r5, pc}
 8003948:	50004700 	.word	0x50004700
 800394c:	6b5fca6b 	.word	0x6b5fca6b

08003950 <XMC_SCU_CLOCK_IsHighPerformanceOscillatorStable>:

bool XMC_SCU_CLOCK_IsHighPerformanceOscillatorStable(void)
{
  return ((SCU_PLL->PLLSTAT & XMC_SCU_PLL_PLLSTAT_OSC_USABLE) == XMC_SCU_PLL_PLLSTAT_OSC_USABLE);
 8003950:	4b04      	ldr	r3, [pc, #16]	; (8003964 <XMC_SCU_CLOCK_IsHighPerformanceOscillatorStable+0x14>)
 8003952:	6918      	ldr	r0, [r3, #16]
 8003954:	f400 7060 	and.w	r0, r0, #896	; 0x380
}
 8003958:	f5a0 7060 	sub.w	r0, r0, #896	; 0x380
 800395c:	fab0 f080 	clz	r0, r0
 8003960:	0940      	lsrs	r0, r0, #5
 8003962:	4770      	bx	lr
 8003964:	50004700 	.word	0x50004700

08003968 <XMC_SCU_CLOCK_DisableHighPerformanceOscillator>:

/* API to disable High Precision High Speed oscillator */
void XMC_SCU_CLOCK_DisableHighPerformanceOscillator(void)
{
  SCU_OSC->OSCHPCTRL |= (uint32_t)SCU_OSC_OSCHPCTRL_MODE_Msk;
 8003968:	4a02      	ldr	r2, [pc, #8]	; (8003974 <XMC_SCU_CLOCK_DisableHighPerformanceOscillator+0xc>)
 800396a:	6853      	ldr	r3, [r2, #4]
 800396c:	f043 0330 	orr.w	r3, r3, #48	; 0x30
 8003970:	6053      	str	r3, [r2, #4]
}
 8003972:	4770      	bx	lr
 8003974:	50004700 	.word	0x50004700

08003978 <XMC_SCU_CLOCK_EnableHighPerformanceOscillatorGeneralPurposeInput>:

void XMC_SCU_CLOCK_EnableHighPerformanceOscillatorGeneralPurposeInput(void)
{
  SCU_OSC->OSCHPCTRL |= SCU_OSC_OSCHPCTRL_X1DEN_Msk;
 8003978:	4a02      	ldr	r2, [pc, #8]	; (8003984 <XMC_SCU_CLOCK_EnableHighPerformanceOscillatorGeneralPurposeInput+0xc>)
 800397a:	6853      	ldr	r3, [r2, #4]
 800397c:	f043 0301 	orr.w	r3, r3, #1
 8003980:	6053      	str	r3, [r2, #4]
}
 8003982:	4770      	bx	lr
 8003984:	50004700 	.word	0x50004700

08003988 <XMC_SCU_CLOCK_DisableHighPerformanceOscillatorGeneralPurposeInput>:

void XMC_SCU_CLOCK_DisableHighPerformanceOscillatorGeneralPurposeInput(void)
{
  SCU_OSC->OSCHPCTRL &= ~SCU_OSC_OSCHPCTRL_X1DEN_Msk;
 8003988:	4a02      	ldr	r2, [pc, #8]	; (8003994 <XMC_SCU_CLOCK_DisableHighPerformanceOscillatorGeneralPurposeInput+0xc>)
 800398a:	6853      	ldr	r3, [r2, #4]
 800398c:	f023 0301 	bic.w	r3, r3, #1
 8003990:	6053      	str	r3, [r2, #4]
}
 8003992:	4770      	bx	lr
 8003994:	50004700 	.word	0x50004700

08003998 <XMC_SCU_CLOCK_GetHighPerformanceOscillatorGeneralPurposeInputStatus>:

uint32_t XMC_SCU_CLOCK_GetHighPerformanceOscillatorGeneralPurposeInputStatus(void)
{
  return (SCU_OSC->OSCHPSTAT & SCU_OSC_OSCHPSTAT_X1D_Msk);
 8003998:	4b02      	ldr	r3, [pc, #8]	; (80039a4 <XMC_SCU_CLOCK_GetHighPerformanceOscillatorGeneralPurposeInputStatus+0xc>)
 800399a:	6818      	ldr	r0, [r3, #0]
}
 800399c:	f000 0001 	and.w	r0, r0, #1
 80039a0:	4770      	bx	lr
 80039a2:	bf00      	nop
 80039a4:	50004700 	.word	0x50004700

080039a8 <XMC_SCU_CLOCK_EnableSystemPll>:

/* API to enable main PLL */
void XMC_SCU_CLOCK_EnableSystemPll(void)
{
  SCU_PLL->PLLCON0 &= (uint32_t)~(SCU_PLL_PLLCON0_VCOPWD_Msk | SCU_PLL_PLLCON0_PLLPWD_Msk);
 80039a8:	4a03      	ldr	r2, [pc, #12]	; (80039b8 <XMC_SCU_CLOCK_EnableSystemPll+0x10>)
 80039aa:	6953      	ldr	r3, [r2, #20]
 80039ac:	f423 3380 	bic.w	r3, r3, #65536	; 0x10000
 80039b0:	f023 0302 	bic.w	r3, r3, #2
 80039b4:	6153      	str	r3, [r2, #20]
}
 80039b6:	4770      	bx	lr
 80039b8:	50004700 	.word	0x50004700

080039bc <XMC_SCU_CLOCK_DisableSystemPll>:

/* API to disable main PLL */
void XMC_SCU_CLOCK_DisableSystemPll(void)
{
  SCU_PLL->PLLCON0 |= (uint32_t)(SCU_PLL_PLLCON0_VCOPWD_Msk | SCU_PLL_PLLCON0_PLLPWD_Msk);
 80039bc:	4a03      	ldr	r2, [pc, #12]	; (80039cc <XMC_SCU_CLOCK_DisableSystemPll+0x10>)
 80039be:	6953      	ldr	r3, [r2, #20]
 80039c0:	f443 3380 	orr.w	r3, r3, #65536	; 0x10000
 80039c4:	f043 0302 	orr.w	r3, r3, #2
 80039c8:	6153      	str	r3, [r2, #20]
}
 80039ca:	4770      	bx	lr
 80039cc:	50004700 	.word	0x50004700

080039d0 <XMC_SCU_CLOCK_StartSystemPll>:
void XMC_SCU_CLOCK_StartSystemPll(XMC_SCU_CLOCK_SYSPLLCLKSRC_t source,
                                  XMC_SCU_CLOCK_SYSPLL_MODE_t mode,
                                  uint32_t pdiv,
                                  uint32_t ndiv,
                                  uint32_t kdiv)
{
 80039d0:	e92d 41f0 	stmdb	sp!, {r4, r5, r6, r7, r8, lr}
 80039d4:	9e06      	ldr	r6, [sp, #24]
    SCU_PLL->PLLCON2 &= (uint32_t)~(SCU_PLL_PLLCON2_PINSEL_Msk | SCU_PLL_PLLCON2_K1INSEL_Msk);
 80039d6:	4c62      	ldr	r4, [pc, #392]	; (8003b60 <XMC_SCU_CLOCK_StartSystemPll+0x190>)
{
 80039d8:	4690      	mov	r8, r2
 80039da:	461f      	mov	r7, r3
  if (source == XMC_SCU_CLOCK_SYSPLLCLKSRC_OSCHP) /* Select PLLClockSource */
 80039dc:	b9b8      	cbnz	r0, 8003a0e <XMC_SCU_CLOCK_StartSystemPll+0x3e>
    SCU_PLL->PLLCON2 &= (uint32_t)~(SCU_PLL_PLLCON2_PINSEL_Msk | SCU_PLL_PLLCON2_K1INSEL_Msk);
 80039de:	69e0      	ldr	r0, [r4, #28]
 80039e0:	f420 7080 	bic.w	r0, r0, #256	; 0x100
 80039e4:	f020 0001 	bic.w	r0, r0, #1
  uint32_t vco_frequency; /* Q10.22, max VCO frequency = 520MHz */
  uint32_t kdiv_temp;

  XMC_SCU_CLOCK_SetSystemPllClockSource(source);

  if (mode == XMC_SCU_CLOCK_SYSPLL_MODE_NORMAL)
 80039e8:	2901      	cmp	r1, #1
    SCU_PLL->PLLCON2 &= (uint32_t)~(SCU_PLL_PLLCON2_PINSEL_Msk | SCU_PLL_PLLCON2_K1INSEL_Msk);
 80039ea:	61e0      	str	r0, [r4, #28]
  if (mode == XMC_SCU_CLOCK_SYSPLL_MODE_NORMAL)
 80039ec:	d07c      	beq.n	8003ae8 <XMC_SCU_CLOCK_StartSystemPll+0x118>

    XMC_SCU_CLOCK_StepSystemPllFrequency(kdiv);
  }
  else
  {
    SCU_PLL->PLLCON1 = (uint32_t)((SCU_PLL->PLLCON1 & ~SCU_PLL_PLLCON1_K1DIV_Msk) |
 80039ee:	4a5c      	ldr	r2, [pc, #368]	; (8003b60 <XMC_SCU_CLOCK_StartSystemPll+0x190>)
 80039f0:	6993      	ldr	r3, [r2, #24]
                       ((kdiv -1UL) << SCU_PLL_PLLCON1_K1DIV_Pos));
 80039f2:	3e01      	subs	r6, #1
    SCU_PLL->PLLCON1 = (uint32_t)((SCU_PLL->PLLCON1 & ~SCU_PLL_PLLCON1_K1DIV_Msk) |
 80039f4:	f023 037f 	bic.w	r3, r3, #127	; 0x7f
 80039f8:	431e      	orrs	r6, r3
 80039fa:	6196      	str	r6, [r2, #24]

    /* Switch to prescaler mode */
    SCU_PLL->PLLCON0 |= (uint32_t)SCU_PLL_PLLCON0_VCOBYP_Msk;
 80039fc:	6953      	ldr	r3, [r2, #20]
 80039fe:	f043 0301 	orr.w	r3, r3, #1
 8003a02:	6153      	str	r3, [r2, #20]

    while ((SCU_PLL->PLLSTAT & SCU_PLL_PLLSTAT_VCOBYST_Msk) == 0U)
 8003a04:	6913      	ldr	r3, [r2, #16]
 8003a06:	07db      	lsls	r3, r3, #31
 8003a08:	d5fc      	bpl.n	8003a04 <XMC_SCU_CLOCK_StartSystemPll+0x34>
    {
      /* wait for prescaler mode */
    }
  }
}
 8003a0a:	e8bd 81f0 	ldmia.w	sp!, {r4, r5, r6, r7, r8, pc}
    SCU_PLL->PLLCON2 |= (uint32_t)(SCU_PLL_PLLCON2_PINSEL_Msk | SCU_PLL_PLLCON2_K1INSEL_Msk);
 8003a0e:	69e0      	ldr	r0, [r4, #28]
 8003a10:	f440 7080 	orr.w	r0, r0, #256	; 0x100
 8003a14:	f040 0001 	orr.w	r0, r0, #1
  if (mode == XMC_SCU_CLOCK_SYSPLL_MODE_NORMAL)
 8003a18:	2901      	cmp	r1, #1
    SCU_PLL->PLLCON2 |= (uint32_t)(SCU_PLL_PLLCON2_PINSEL_Msk | SCU_PLL_PLLCON2_K1INSEL_Msk);
 8003a1a:	61e0      	str	r0, [r4, #28]
  if (mode == XMC_SCU_CLOCK_SYSPLL_MODE_NORMAL)
 8003a1c:	d1e7      	bne.n	80039ee <XMC_SCU_CLOCK_StartSystemPll+0x1e>
      vco_frequency = (OFI_FREQUENCY / 1000000U) << 22;
 8003a1e:	f04f 65c0 	mov.w	r5, #100663296	; 0x6000000
    SCU_PLL->PLLCON0 |= (uint32_t)SCU_PLL_PLLCON0_VCOBYP_Msk;
 8003a22:	494f      	ldr	r1, [pc, #316]	; (8003b60 <XMC_SCU_CLOCK_StartSystemPll+0x190>)
 8003a24:	6948      	ldr	r0, [r1, #20]
 8003a26:	f040 0001 	orr.w	r0, r0, #1
 8003a2a:	6148      	str	r0, [r1, #20]
    SCU_PLL->PLLCON0 |= (uint32_t)SCU_PLL_PLLCON0_FINDIS_Msk;
 8003a2c:	6948      	ldr	r0, [r1, #20]
 8003a2e:	f040 0010 	orr.w	r0, r0, #16
 8003a32:	6148      	str	r0, [r1, #20]
    SCU_PLL->PLLCON1 = (uint32_t)((SCU_PLL->PLLCON1 & ~(SCU_PLL_PLLCON1_NDIV_Msk | SCU_PLL_PLLCON1_K2DIV_Msk |
 8003a34:	698c      	ldr	r4, [r1, #24]
 8003a36:	484b      	ldr	r0, [pc, #300]	; (8003b64 <XMC_SCU_CLOCK_StartSystemPll+0x194>)
                                   ((pdiv - 1UL)<< SCU_PLL_PLLCON1_PDIV_Pos));
 8003a38:	f108 32ff 	add.w	r2, r8, #4294967295	; 0xffffffff
    SCU_PLL->PLLCON1 = (uint32_t)((SCU_PLL->PLLCON1 & ~(SCU_PLL_PLLCON1_NDIV_Msk | SCU_PLL_PLLCON1_K2DIV_Msk |
 8003a3c:	4020      	ands	r0, r4
 8003a3e:	ea40 6002 	orr.w	r0, r0, r2, lsl #24
    kdiv_temp = (vco_frequency / (OFI_FREQUENCY / 1000000U)) >> 22;
 8003a42:	4a49      	ldr	r2, [pc, #292]	; (8003b68 <XMC_SCU_CLOCK_StartSystemPll+0x198>)
                                   SCU_PLL_PLLCON1_PDIV_Msk)) | ((ndiv - 1UL) << SCU_PLL_PLLCON1_NDIV_Pos) |
 8003a44:	1e7b      	subs	r3, r7, #1
    SCU_PLL->PLLCON1 = (uint32_t)((SCU_PLL->PLLCON1 & ~(SCU_PLL_PLLCON1_NDIV_Msk | SCU_PLL_PLLCON1_K2DIV_Msk |
 8003a46:	ea40 2303 	orr.w	r3, r0, r3, lsl #8
    vco_frequency = ((vco_frequency * ndiv) / pdiv);
 8003a4a:	fb07 f505 	mul.w	r5, r7, r5
 8003a4e:	fbb5 f5f8 	udiv	r5, r5, r8
    kdiv_temp = (vco_frequency / (OFI_FREQUENCY / 1000000U)) >> 22;
 8003a52:	fba2 0205 	umull	r0, r2, r2, r5
 8003a56:	0e92      	lsrs	r2, r2, #26
                                   ((kdiv_temp - 1UL) << SCU_PLL_PLLCON1_K2DIV_Pos) |
 8003a58:	3a01      	subs	r2, #1
    SCU_PLL->PLLCON1 = (uint32_t)((SCU_PLL->PLLCON1 & ~(SCU_PLL_PLLCON1_NDIV_Msk | SCU_PLL_PLLCON1_K2DIV_Msk |
 8003a5a:	ea43 4302 	orr.w	r3, r3, r2, lsl #16
 8003a5e:	618b      	str	r3, [r1, #24]
    SCU_PLL->PLLCON0 |= (uint32_t)SCU_PLL_PLLCON0_OSCDISCDIS_Msk;
 8003a60:	694b      	ldr	r3, [r1, #20]
 8003a62:	f043 0340 	orr.w	r3, r3, #64	; 0x40
 8003a66:	614b      	str	r3, [r1, #20]
    SCU_PLL->PLLCON0 &= (uint32_t)~SCU_PLL_PLLCON0_FINDIS_Msk;
 8003a68:	694b      	ldr	r3, [r1, #20]
 8003a6a:	f023 0310 	bic.w	r3, r3, #16
 8003a6e:	614b      	str	r3, [r1, #20]
    SCU_PLL->PLLCON0 |= (uint32_t)SCU_PLL_PLLCON0_RESLD_Msk;
 8003a70:	694b      	ldr	r3, [r1, #20]
 8003a72:	f443 2380 	orr.w	r3, r3, #262144	; 0x40000
 8003a76:	614b      	str	r3, [r1, #20]
    while ((SCU_PLL->PLLSTAT & SCU_PLL_PLLSTAT_VCOLOCK_Msk) == 0U)
 8003a78:	690b      	ldr	r3, [r1, #16]
 8003a7a:	075a      	lsls	r2, r3, #29
 8003a7c:	d5fc      	bpl.n	8003a78 <XMC_SCU_CLOCK_StartSystemPll+0xa8>
    SCU_PLL->PLLCON0 &= (uint32_t)~SCU_PLL_PLLCON0_VCOBYP_Msk;
 8003a7e:	694a      	ldr	r2, [r1, #20]
    while ((SCU_PLL->PLLSTAT & SCU_PLL_PLLSTAT_VCOBYST_Msk) != 0U)
 8003a80:	4b37      	ldr	r3, [pc, #220]	; (8003b60 <XMC_SCU_CLOCK_StartSystemPll+0x190>)
    SCU_PLL->PLLCON0 &= (uint32_t)~SCU_PLL_PLLCON0_VCOBYP_Msk;
 8003a82:	f022 0201 	bic.w	r2, r2, #1
 8003a86:	614a      	str	r2, [r1, #20]
    while ((SCU_PLL->PLLSTAT & SCU_PLL_PLLSTAT_VCOBYST_Msk) != 0U)
 8003a88:	691c      	ldr	r4, [r3, #16]
 8003a8a:	f014 0401 	ands.w	r4, r4, #1
 8003a8e:	d1fb      	bne.n	8003a88 <XMC_SCU_CLOCK_StartSystemPll+0xb8>
    kdiv_temp = (vco_frequency / 60UL) >> 22;
 8003a90:	4a36      	ldr	r2, [pc, #216]	; (8003b6c <XMC_SCU_CLOCK_StartSystemPll+0x19c>)
 8003a92:	fba2 1205 	umull	r1, r2, r2, r5
    if (kdiv < kdiv_temp)
 8003a96:	ebb6 6fd2 	cmp.w	r6, r2, lsr #27
    kdiv_temp = (vco_frequency / 60UL) >> 22;
 8003a9a:	ea4f 61d2 	mov.w	r1, r2, lsr #27
    if (kdiv < kdiv_temp)
 8003a9e:	d345      	bcc.n	8003b2c <XMC_SCU_CLOCK_StartSystemPll+0x15c>
 8003aa0:	4f33      	ldr	r7, [pc, #204]	; (8003b70 <XMC_SCU_CLOCK_StartSystemPll+0x1a0>)
    kdiv_temp = (vco_frequency / 90UL) >> 22;
 8003aa2:	4b34      	ldr	r3, [pc, #208]	; (8003b74 <XMC_SCU_CLOCK_StartSystemPll+0x1a4>)
 8003aa4:	086d      	lsrs	r5, r5, #1
 8003aa6:	fba3 3505 	umull	r3, r5, r3, r5
    if (kdiv < kdiv_temp)
 8003aaa:	ebb6 6fd5 	cmp.w	r6, r5, lsr #27
    kdiv_temp = (vco_frequency / 90UL) >> 22;
 8003aae:	ea4f 63d5 	mov.w	r3, r5, lsr #27
    if (kdiv < kdiv_temp)
 8003ab2:	d321      	bcc.n	8003af8 <XMC_SCU_CLOCK_StartSystemPll+0x128>
}

/* API to step up/down the main PLL frequency */
void XMC_SCU_CLOCK_StepSystemPllFrequency(uint32_t kdiv)
{
  SCU_PLL->PLLCON1 = (uint32_t)((SCU_PLL->PLLCON1 & ~SCU_PLL_PLLCON1_K2DIV_Msk) |
 8003ab4:	4a2a      	ldr	r2, [pc, #168]	; (8003b60 <XMC_SCU_CLOCK_StartSystemPll+0x190>)
 8003ab6:	6993      	ldr	r3, [r2, #24]
                     ((kdiv - 1UL) << SCU_PLL_PLLCON1_K2DIV_Pos));
 8003ab8:	3e01      	subs	r6, #1
  SCU_PLL->PLLCON1 = (uint32_t)((SCU_PLL->PLLCON1 & ~SCU_PLL_PLLCON1_K2DIV_Msk) |
 8003aba:	f423 03fe 	bic.w	r3, r3, #8323072	; 0x7f0000
 8003abe:	ea43 4606 	orr.w	r6, r3, r6, lsl #16
 8003ac2:	6196      	str	r6, [r2, #24]
  SystemCoreClockUpdate();
 8003ac4:	f000 fc3c 	bl	8004340 <SystemCoreClockUpdate>
  delay =  delay * (uint32_t)(SystemCoreClock / FREQ_1MHZ);
 8003ac8:	683b      	ldr	r3, [r7, #0]
 8003aca:	492b      	ldr	r1, [pc, #172]	; (8003b78 <XMC_SCU_CLOCK_StartSystemPll+0x1a8>)
 8003acc:	fba1 1303 	umull	r1, r3, r1, r3
 8003ad0:	2232      	movs	r2, #50	; 0x32
 8003ad2:	0c9b      	lsrs	r3, r3, #18
 8003ad4:	fb02 f303 	mul.w	r3, r2, r3
  for (i = 0U; i < delay; ++i)
 8003ad8:	2b00      	cmp	r3, #0
 8003ada:	d096      	beq.n	8003a0a <XMC_SCU_CLOCK_StartSystemPll+0x3a>
    __NOP();
 8003adc:	bf00      	nop
  for (i = 0U; i < delay; ++i)
 8003ade:	3401      	adds	r4, #1
 8003ae0:	42a3      	cmp	r3, r4
 8003ae2:	d1fb      	bne.n	8003adc <XMC_SCU_CLOCK_StartSystemPll+0x10c>
}
 8003ae4:	e8bd 81f0 	ldmia.w	sp!, {r4, r5, r6, r7, r8, pc}
      vco_frequency = (OSCHP_GetFrequency() / 1000000U) << 22;
 8003ae8:	f000 fc26 	bl	8004338 <OSCHP_GetFrequency>
 8003aec:	4d22      	ldr	r5, [pc, #136]	; (8003b78 <XMC_SCU_CLOCK_StartSystemPll+0x1a8>)
 8003aee:	fba5 3500 	umull	r3, r5, r5, r0
 8003af2:	0cad      	lsrs	r5, r5, #18
 8003af4:	05ad      	lsls	r5, r5, #22
 8003af6:	e794      	b.n	8003a22 <XMC_SCU_CLOCK_StartSystemPll+0x52>
  SCU_PLL->PLLCON1 = (uint32_t)((SCU_PLL->PLLCON1 & ~SCU_PLL_PLLCON1_K2DIV_Msk) |
 8003af8:	4919      	ldr	r1, [pc, #100]	; (8003b60 <XMC_SCU_CLOCK_StartSystemPll+0x190>)
 8003afa:	698a      	ldr	r2, [r1, #24]
                     ((kdiv - 1UL) << SCU_PLL_PLLCON1_K2DIV_Pos));
 8003afc:	3b01      	subs	r3, #1
  SCU_PLL->PLLCON1 = (uint32_t)((SCU_PLL->PLLCON1 & ~SCU_PLL_PLLCON1_K2DIV_Msk) |
 8003afe:	f422 02fe 	bic.w	r2, r2, #8323072	; 0x7f0000
 8003b02:	ea42 4303 	orr.w	r3, r2, r3, lsl #16
 8003b06:	618b      	str	r3, [r1, #24]
  SystemCoreClockUpdate();
 8003b08:	f000 fc1a 	bl	8004340 <SystemCoreClockUpdate>
  delay =  delay * (uint32_t)(SystemCoreClock / FREQ_1MHZ);
 8003b0c:	683b      	ldr	r3, [r7, #0]
 8003b0e:	4a1a      	ldr	r2, [pc, #104]	; (8003b78 <XMC_SCU_CLOCK_StartSystemPll+0x1a8>)
 8003b10:	fba2 3203 	umull	r3, r2, r2, r3
 8003b14:	0c92      	lsrs	r2, r2, #18
 8003b16:	2332      	movs	r3, #50	; 0x32
 8003b18:	fb03 f202 	mul.w	r2, r3, r2
  for (i = 0U; i < delay; ++i)
 8003b1c:	2a00      	cmp	r2, #0
 8003b1e:	d0c9      	beq.n	8003ab4 <XMC_SCU_CLOCK_StartSystemPll+0xe4>
 8003b20:	2300      	movs	r3, #0
    __NOP();
 8003b22:	bf00      	nop
  for (i = 0U; i < delay; ++i)
 8003b24:	3301      	adds	r3, #1
 8003b26:	429a      	cmp	r2, r3
 8003b28:	d1fb      	bne.n	8003b22 <XMC_SCU_CLOCK_StartSystemPll+0x152>
 8003b2a:	e7c3      	b.n	8003ab4 <XMC_SCU_CLOCK_StartSystemPll+0xe4>
  SCU_PLL->PLLCON1 = (uint32_t)((SCU_PLL->PLLCON1 & ~SCU_PLL_PLLCON1_K2DIV_Msk) |
 8003b2c:	699a      	ldr	r2, [r3, #24]
  delay =  delay * (uint32_t)(SystemCoreClock / FREQ_1MHZ);
 8003b2e:	4f10      	ldr	r7, [pc, #64]	; (8003b70 <XMC_SCU_CLOCK_StartSystemPll+0x1a0>)
  SCU_PLL->PLLCON1 = (uint32_t)((SCU_PLL->PLLCON1 & ~SCU_PLL_PLLCON1_K2DIV_Msk) |
 8003b30:	f422 02fe 	bic.w	r2, r2, #8323072	; 0x7f0000
                     ((kdiv - 1UL) << SCU_PLL_PLLCON1_K2DIV_Pos));
 8003b34:	3901      	subs	r1, #1
  SCU_PLL->PLLCON1 = (uint32_t)((SCU_PLL->PLLCON1 & ~SCU_PLL_PLLCON1_K2DIV_Msk) |
 8003b36:	ea42 4101 	orr.w	r1, r2, r1, lsl #16
 8003b3a:	6199      	str	r1, [r3, #24]
  SystemCoreClockUpdate();
 8003b3c:	f000 fc00 	bl	8004340 <SystemCoreClockUpdate>
  delay =  delay * (uint32_t)(SystemCoreClock / FREQ_1MHZ);
 8003b40:	683b      	ldr	r3, [r7, #0]
 8003b42:	4a0d      	ldr	r2, [pc, #52]	; (8003b78 <XMC_SCU_CLOCK_StartSystemPll+0x1a8>)
 8003b44:	fba2 3203 	umull	r3, r2, r2, r3
 8003b48:	0c92      	lsrs	r2, r2, #18
 8003b4a:	2332      	movs	r3, #50	; 0x32
 8003b4c:	fb03 f202 	mul.w	r2, r3, r2
  for (i = 0U; i < delay; ++i)
 8003b50:	2a00      	cmp	r2, #0
 8003b52:	d0a6      	beq.n	8003aa2 <XMC_SCU_CLOCK_StartSystemPll+0xd2>
 8003b54:	4623      	mov	r3, r4
    __NOP();
 8003b56:	bf00      	nop
  for (i = 0U; i < delay; ++i)
 8003b58:	3301      	adds	r3, #1
 8003b5a:	429a      	cmp	r2, r3
 8003b5c:	d1fb      	bne.n	8003b56 <XMC_SCU_CLOCK_StartSystemPll+0x186>
 8003b5e:	e7a0      	b.n	8003aa2 <XMC_SCU_CLOCK_StartSystemPll+0xd2>
 8003b60:	50004700 	.word	0x50004700
 8003b64:	f08080ff 	.word	0xf08080ff
 8003b68:	aaaaaaab 	.word	0xaaaaaaab
 8003b6c:	88888889 	.word	0x88888889
 8003b70:	2000ffc0 	.word	0x2000ffc0
 8003b74:	b60b60b7 	.word	0xb60b60b7
 8003b78:	431bde83 	.word	0x431bde83

08003b7c <XMC_SCU_CLOCK_Init>:
{
 8003b7c:	b570      	push	{r4, r5, r6, lr}
  SCU_CLK->SYSCLKCR = (SCU_CLK->SYSCLKCR & ((uint32_t)~SCU_CLK_SYSCLKCR_SYSSEL_Msk)) |
 8003b7e:	4a44      	ldr	r2, [pc, #272]	; (8003c90 <XMC_SCU_CLOCK_Init+0x114>)
 8003b80:	68d3      	ldr	r3, [r2, #12]
{
 8003b82:	4604      	mov	r4, r0
  SCU_CLK->SYSCLKCR = (SCU_CLK->SYSCLKCR & ((uint32_t)~SCU_CLK_SYSCLKCR_SYSSEL_Msk)) |
 8003b84:	f423 3380 	bic.w	r3, r3, #65536	; 0x10000
 8003b88:	60d3      	str	r3, [r2, #12]
{
 8003b8a:	b082      	sub	sp, #8
  XMC_SCU_HIB_EnableHibernateDomain();
 8003b8c:	f7ff fd46 	bl	800361c <XMC_SCU_HIB_EnableHibernateDomain>
  if (config->enable_osculp == true)
 8003b90:	79e3      	ldrb	r3, [r4, #7]
 8003b92:	2b00      	cmp	r3, #0
 8003b94:	d175      	bne.n	8003c82 <XMC_SCU_CLOCK_Init+0x106>
  XMC_SCU_HIB_SetStandbyClockSource(config->fstdby_clksrc);  
 8003b96:	7a60      	ldrb	r0, [r4, #9]
  while((SCU_GENERAL->MIRRSTS) & SCU_GENERAL_MIRRSTS_HDCR_Msk)
 8003b98:	4a3e      	ldr	r2, [pc, #248]	; (8003c94 <XMC_SCU_CLOCK_Init+0x118>)
 8003b9a:	f8d2 30c4 	ldr.w	r3, [r2, #196]	; 0xc4
 8003b9e:	071b      	lsls	r3, r3, #28
 8003ba0:	d4fb      	bmi.n	8003b9a <XMC_SCU_CLOCK_Init+0x1e>
  SCU_HIBERNATE->HDCR = (SCU_HIBERNATE->HDCR & ((uint32_t)~SCU_HIBERNATE_HDCR_STDBYSEL_Msk)) |
 8003ba2:	493d      	ldr	r1, [pc, #244]	; (8003c98 <XMC_SCU_CLOCK_Init+0x11c>)
 8003ba4:	4a3b      	ldr	r2, [pc, #236]	; (8003c94 <XMC_SCU_CLOCK_Init+0x118>)
 8003ba6:	68cb      	ldr	r3, [r1, #12]
 8003ba8:	f023 0380 	bic.w	r3, r3, #128	; 0x80
 8003bac:	4303      	orrs	r3, r0
 8003bae:	60cb      	str	r3, [r1, #12]
 8003bb0:	f8d2 30c4 	ldr.w	r3, [r2, #196]	; 0xc4
  while (XMC_SCU_GetMirrorStatus() != 0)
 8003bb4:	2b00      	cmp	r3, #0
 8003bb6:	d1fb      	bne.n	8003bb0 <XMC_SCU_CLOCK_Init+0x34>
  XMC_SCU_CLOCK_SetBackupClockCalibrationMode(config->calibration_mode);
 8003bb8:	7a20      	ldrb	r0, [r4, #8]
 8003bba:	f7ff fcdb 	bl	8003574 <XMC_SCU_CLOCK_SetBackupClockCalibrationMode>
  SCU_CLK->SYSCLKCR = (SCU_CLK->SYSCLKCR & ((uint32_t)~SCU_CLK_SYSCLKCR_SYSDIV_Msk)) |
 8003bbe:	4b34      	ldr	r3, [pc, #208]	; (8003c90 <XMC_SCU_CLOCK_Init+0x114>)
  XMC_SCU_CLOCK_SetSystemClockDivider((uint32_t)config->fsys_clkdiv);
 8003bc0:	7c22      	ldrb	r2, [r4, #16]
  SCU_CLK->SYSCLKCR = (SCU_CLK->SYSCLKCR & ((uint32_t)~SCU_CLK_SYSCLKCR_SYSDIV_Msk)) |
 8003bc2:	68d9      	ldr	r1, [r3, #12]
  if (config->enable_oschp == true)
 8003bc4:	79a0      	ldrb	r0, [r4, #6]
  SCU_CLK->SYSCLKCR = (SCU_CLK->SYSCLKCR & ((uint32_t)~SCU_CLK_SYSCLKCR_SYSDIV_Msk)) |
 8003bc6:	f021 01ff 	bic.w	r1, r1, #255	; 0xff
                      ((uint32_t)(((uint32_t)(divider - 1UL)) << SCU_CLK_SYSCLKCR_SYSDIV_Pos));
 8003bca:	3a01      	subs	r2, #1
  SCU_CLK->SYSCLKCR = (SCU_CLK->SYSCLKCR & ((uint32_t)~SCU_CLK_SYSCLKCR_SYSDIV_Msk)) |
 8003bcc:	430a      	orrs	r2, r1
 8003bce:	60da      	str	r2, [r3, #12]
  SCU_CLK->CPUCLKCR = (SCU_CLK->CPUCLKCR & ((uint32_t)~SCU_CLK_CPUCLKCR_CPUDIV_Msk)) |
 8003bd0:	6919      	ldr	r1, [r3, #16]
  XMC_SCU_CLOCK_SetCpuClockDivider((uint32_t)config->fcpu_clkdiv);
 8003bd2:	7c62      	ldrb	r2, [r4, #17]
  SCU_CLK->CPUCLKCR = (SCU_CLK->CPUCLKCR & ((uint32_t)~SCU_CLK_CPUCLKCR_CPUDIV_Msk)) |
 8003bd4:	f021 0101 	bic.w	r1, r1, #1
                      (uint32_t)((uint32_t)(divider - 1UL) << SCU_CLK_CPUCLKCR_CPUDIV_Pos);
 8003bd8:	3a01      	subs	r2, #1
  SCU_CLK->CPUCLKCR = (SCU_CLK->CPUCLKCR & ((uint32_t)~SCU_CLK_CPUCLKCR_CPUDIV_Msk)) |
 8003bda:	430a      	orrs	r2, r1
 8003bdc:	611a      	str	r2, [r3, #16]
  SCU_CLK->CCUCLKCR = (SCU_CLK->CCUCLKCR & ((uint32_t)~SCU_CLK_CCUCLKCR_CCUDIV_Msk)) |
 8003bde:	6a19      	ldr	r1, [r3, #32]
  XMC_SCU_CLOCK_SetCcuClockDivider((uint32_t)config->fccu_clkdiv);
 8003be0:	7ca2      	ldrb	r2, [r4, #18]
  SCU_CLK->CCUCLKCR = (SCU_CLK->CCUCLKCR & ((uint32_t)~SCU_CLK_CCUCLKCR_CCUDIV_Msk)) |
 8003be2:	f021 0101 	bic.w	r1, r1, #1
                      (uint32_t)((uint32_t)(divider - 1UL) << SCU_CLK_CCUCLKCR_CCUDIV_Pos);
 8003be6:	3a01      	subs	r2, #1
  SCU_CLK->CCUCLKCR = (SCU_CLK->CCUCLKCR & ((uint32_t)~SCU_CLK_CCUCLKCR_CCUDIV_Msk)) |
 8003be8:	430a      	orrs	r2, r1
 8003bea:	621a      	str	r2, [r3, #32]
  SCU_CLK->PBCLKCR = (SCU_CLK->PBCLKCR & ((uint32_t)~SCU_CLK_PBCLKCR_PBDIV_Msk)) |
 8003bec:	6959      	ldr	r1, [r3, #20]
  XMC_SCU_CLOCK_SetPeripheralClockDivider((uint32_t)config->fperipheral_clkdiv);
 8003bee:	7ce2      	ldrb	r2, [r4, #19]
  SCU_CLK->PBCLKCR = (SCU_CLK->PBCLKCR & ((uint32_t)~SCU_CLK_PBCLKCR_PBDIV_Msk)) |
 8003bf0:	f021 0101 	bic.w	r1, r1, #1
                     ((uint32_t)((uint32_t)(divider - 1UL) << SCU_CLK_PBCLKCR_PBDIV_Pos));
 8003bf4:	3a01      	subs	r2, #1
  SCU_CLK->PBCLKCR = (SCU_CLK->PBCLKCR & ((uint32_t)~SCU_CLK_PBCLKCR_PBDIV_Msk)) |
 8003bf6:	430a      	orrs	r2, r1
 8003bf8:	615a      	str	r2, [r3, #20]
  if (config->enable_oschp == true)
 8003bfa:	bb18      	cbnz	r0, 8003c44 <XMC_SCU_CLOCK_Init+0xc8>
  SCU_PLL->PLLCON0 |= (uint32_t)(SCU_PLL_PLLCON0_VCOPWD_Msk | SCU_PLL_PLLCON0_PLLPWD_Msk);
 8003bfc:	4a27      	ldr	r2, [pc, #156]	; (8003c9c <XMC_SCU_CLOCK_Init+0x120>)
  if (config->syspll_config.mode == XMC_SCU_CLOCK_SYSPLL_MODE_DISABLED)
 8003bfe:	78e1      	ldrb	r1, [r4, #3]
  SCU_PLL->PLLCON0 |= (uint32_t)(SCU_PLL_PLLCON0_VCOPWD_Msk | SCU_PLL_PLLCON0_PLLPWD_Msk);
 8003c00:	6953      	ldr	r3, [r2, #20]
  if (config->syspll_config.mode == XMC_SCU_CLOCK_SYSPLL_MODE_DISABLED)
 8003c02:	b991      	cbnz	r1, 8003c2a <XMC_SCU_CLOCK_Init+0xae>
  SCU_PLL->PLLCON0 |= (uint32_t)(SCU_PLL_PLLCON0_VCOPWD_Msk | SCU_PLL_PLLCON0_PLLPWD_Msk);
 8003c04:	f443 3380 	orr.w	r3, r3, #65536	; 0x10000
 8003c08:	f043 0302 	orr.w	r3, r3, #2
 8003c0c:	6153      	str	r3, [r2, #20]
  if (config->fsys_clksrc == XMC_SCU_CLOCK_SYSCLKSRC_PLL)
 8003c0e:	68e3      	ldr	r3, [r4, #12]
 8003c10:	f5b3 3f80 	cmp.w	r3, #65536	; 0x10000
 8003c14:	d104      	bne.n	8003c20 <XMC_SCU_CLOCK_Init+0xa4>
  SCU_CLK->SYSCLKCR = (SCU_CLK->SYSCLKCR & ((uint32_t)~SCU_CLK_SYSCLKCR_SYSSEL_Msk)) |
 8003c16:	4a1e      	ldr	r2, [pc, #120]	; (8003c90 <XMC_SCU_CLOCK_Init+0x114>)
 8003c18:	68d3      	ldr	r3, [r2, #12]
 8003c1a:	f443 3380 	orr.w	r3, r3, #65536	; 0x10000
 8003c1e:	60d3      	str	r3, [r2, #12]
}
 8003c20:	b002      	add	sp, #8
 8003c22:	e8bd 4070 	ldmia.w	sp!, {r4, r5, r6, lr}
  SystemCoreClockUpdate();
 8003c26:	f000 bb8b 	b.w	8004340 <SystemCoreClockUpdate>
  SCU_PLL->PLLCON0 &= (uint32_t)~(SCU_PLL_PLLCON0_VCOPWD_Msk | SCU_PLL_PLLCON0_PLLPWD_Msk);
 8003c2a:	f423 3380 	bic.w	r3, r3, #65536	; 0x10000
 8003c2e:	f023 0302 	bic.w	r3, r3, #2
 8003c32:	6153      	str	r3, [r2, #20]
    XMC_SCU_CLOCK_StartSystemPll(config->syspll_config.clksrc,
 8003c34:	78a0      	ldrb	r0, [r4, #2]
 8003c36:	7823      	ldrb	r3, [r4, #0]
 8003c38:	7862      	ldrb	r2, [r4, #1]
 8003c3a:	9000      	str	r0, [sp, #0]
 8003c3c:	88a0      	ldrh	r0, [r4, #4]
 8003c3e:	f7ff fec7 	bl	80039d0 <XMC_SCU_CLOCK_StartSystemPll>
 8003c42:	e7e4      	b.n	8003c0e <XMC_SCU_CLOCK_Init+0x92>
  SCU_PLL->PLLCON0 &= (uint32_t)~SCU_PLL_PLLCON0_PLLPWD_Msk;
 8003c44:	4d15      	ldr	r5, [pc, #84]	; (8003c9c <XMC_SCU_CLOCK_Init+0x120>)
 8003c46:	696b      	ldr	r3, [r5, #20]
 8003c48:	f423 3380 	bic.w	r3, r3, #65536	; 0x10000
 8003c4c:	616b      	str	r3, [r5, #20]
  SCU_OSC->OSCHPCTRL = (uint32_t)((SCU_OSC->OSCHPCTRL & ~(SCU_OSC_OSCHPCTRL_MODE_Msk | SCU_OSC_OSCHPCTRL_OSCVAL_Msk)) |
 8003c4e:	686e      	ldr	r6, [r5, #4]
                                  (((OSCHP_GetFrequency() / FOSCREF) - 1UL) << SCU_OSC_OSCHPCTRL_OSCVAL_Pos));
 8003c50:	f000 fb72 	bl	8004338 <OSCHP_GetFrequency>
 8003c54:	4b12      	ldr	r3, [pc, #72]	; (8003ca0 <XMC_SCU_CLOCK_Init+0x124>)
 8003c56:	fba3 2300 	umull	r2, r3, r3, r0
 8003c5a:	0d1b      	lsrs	r3, r3, #20
  SCU_OSC->OSCHPCTRL = (uint32_t)((SCU_OSC->OSCHPCTRL & ~(SCU_OSC_OSCHPCTRL_MODE_Msk | SCU_OSC_OSCHPCTRL_OSCVAL_Msk)) |
 8003c5c:	f426 2270 	bic.w	r2, r6, #983040	; 0xf0000
                                  (((OSCHP_GetFrequency() / FOSCREF) - 1UL) << SCU_OSC_OSCHPCTRL_OSCVAL_Pos));
 8003c60:	3b01      	subs	r3, #1
  SCU_OSC->OSCHPCTRL = (uint32_t)((SCU_OSC->OSCHPCTRL & ~(SCU_OSC_OSCHPCTRL_MODE_Msk | SCU_OSC_OSCHPCTRL_OSCVAL_Msk)) |
 8003c62:	f022 0230 	bic.w	r2, r2, #48	; 0x30
 8003c66:	ea42 4303 	orr.w	r3, r2, r3, lsl #16
 8003c6a:	606b      	str	r3, [r5, #4]
  SCU_PLL->PLLCON0 &= (uint32_t)~SCU_PLL_PLLCON0_OSCRES_Msk;
 8003c6c:	696b      	ldr	r3, [r5, #20]
 8003c6e:	f423 3300 	bic.w	r3, r3, #131072	; 0x20000
 8003c72:	616b      	str	r3, [r5, #20]
  return ((SCU_PLL->PLLSTAT & XMC_SCU_PLL_PLLSTAT_OSC_USABLE) == XMC_SCU_PLL_PLLSTAT_OSC_USABLE);
 8003c74:	692b      	ldr	r3, [r5, #16]
 8003c76:	f403 7360 	and.w	r3, r3, #896	; 0x380
    while(XMC_SCU_CLOCK_IsHighPerformanceOscillatorStable() == false);
 8003c7a:	f5b3 7f60 	cmp.w	r3, #896	; 0x380
 8003c7e:	d1f9      	bne.n	8003c74 <XMC_SCU_CLOCK_Init+0xf8>
 8003c80:	e7bc      	b.n	8003bfc <XMC_SCU_CLOCK_Init+0x80>
    XMC_SCU_CLOCK_EnableLowPowerOscillator();
 8003c82:	f7ff fde7 	bl	8003854 <XMC_SCU_CLOCK_EnableLowPowerOscillator>
  return ((SCU_HIBERNATE->HDSTAT & SCU_HIBERNATE_HDSTAT_ULPWDG_Msk) == 0UL);
 8003c86:	4a04      	ldr	r2, [pc, #16]	; (8003c98 <XMC_SCU_CLOCK_Init+0x11c>)
 8003c88:	6813      	ldr	r3, [r2, #0]
    while (XMC_SCU_CLOCK_IsLowPowerOscillatorStable() == false);
 8003c8a:	0719      	lsls	r1, r3, #28
 8003c8c:	d4fc      	bmi.n	8003c88 <XMC_SCU_CLOCK_Init+0x10c>
 8003c8e:	e782      	b.n	8003b96 <XMC_SCU_CLOCK_Init+0x1a>
 8003c90:	50004600 	.word	0x50004600
 8003c94:	50004000 	.word	0x50004000
 8003c98:	50004300 	.word	0x50004300
 8003c9c:	50004700 	.word	0x50004700
 8003ca0:	6b5fca6b 	.word	0x6b5fca6b

08003ca4 <XMC_SCU_CLOCK_StopSystemPll>:
  SCU_PLL->PLLCON0 |= (uint32_t)SCU_PLL_PLLCON0_PLLPWD_Msk;
 8003ca4:	4a02      	ldr	r2, [pc, #8]	; (8003cb0 <XMC_SCU_CLOCK_StopSystemPll+0xc>)
 8003ca6:	6953      	ldr	r3, [r2, #20]
 8003ca8:	f443 3380 	orr.w	r3, r3, #65536	; 0x10000
 8003cac:	6153      	str	r3, [r2, #20]
}
 8003cae:	4770      	bx	lr
 8003cb0:	50004700 	.word	0x50004700

08003cb4 <XMC_SCU_CLOCK_StepSystemPllFrequency>:
  SCU_PLL->PLLCON1 = (uint32_t)((SCU_PLL->PLLCON1 & ~SCU_PLL_PLLCON1_K2DIV_Msk) |
 8003cb4:	4a0d      	ldr	r2, [pc, #52]	; (8003cec <XMC_SCU_CLOCK_StepSystemPllFrequency+0x38>)
{
 8003cb6:	b508      	push	{r3, lr}
  SCU_PLL->PLLCON1 = (uint32_t)((SCU_PLL->PLLCON1 & ~SCU_PLL_PLLCON1_K2DIV_Msk) |
 8003cb8:	6993      	ldr	r3, [r2, #24]
                     ((kdiv - 1UL) << SCU_PLL_PLLCON1_K2DIV_Pos));
 8003cba:	3801      	subs	r0, #1
  SCU_PLL->PLLCON1 = (uint32_t)((SCU_PLL->PLLCON1 & ~SCU_PLL_PLLCON1_K2DIV_Msk) |
 8003cbc:	f423 03fe 	bic.w	r3, r3, #8323072	; 0x7f0000
 8003cc0:	ea43 4300 	orr.w	r3, r3, r0, lsl #16
 8003cc4:	6193      	str	r3, [r2, #24]
  SystemCoreClockUpdate();
 8003cc6:	f000 fb3b 	bl	8004340 <SystemCoreClockUpdate>
  delay =  delay * (uint32_t)(SystemCoreClock / FREQ_1MHZ);
 8003cca:	4b09      	ldr	r3, [pc, #36]	; (8003cf0 <XMC_SCU_CLOCK_StepSystemPllFrequency+0x3c>)
 8003ccc:	4909      	ldr	r1, [pc, #36]	; (8003cf4 <XMC_SCU_CLOCK_StepSystemPllFrequency+0x40>)
 8003cce:	681a      	ldr	r2, [r3, #0]
 8003cd0:	fba1 1202 	umull	r1, r2, r1, r2
 8003cd4:	2332      	movs	r3, #50	; 0x32
 8003cd6:	0c92      	lsrs	r2, r2, #18
 8003cd8:	fb03 f202 	mul.w	r2, r3, r2
  for (i = 0U; i < delay; ++i)
 8003cdc:	b122      	cbz	r2, 8003ce8 <XMC_SCU_CLOCK_StepSystemPllFrequency+0x34>
 8003cde:	2300      	movs	r3, #0
    __NOP();
 8003ce0:	bf00      	nop
  for (i = 0U; i < delay; ++i)
 8003ce2:	3301      	adds	r3, #1
 8003ce4:	429a      	cmp	r2, r3
 8003ce6:	d1fb      	bne.n	8003ce0 <XMC_SCU_CLOCK_StepSystemPllFrequency+0x2c>

  XMC_SCU_lDelay(50U);
}
 8003ce8:	bd08      	pop	{r3, pc}
 8003cea:	bf00      	nop
 8003cec:	50004700 	.word	0x50004700
 8003cf0:	2000ffc0 	.word	0x2000ffc0
 8003cf4:	431bde83 	.word	0x431bde83

08003cf8 <XMC_SCU_CLOCK_IsSystemPllLocked>:

/* API to check main PLL is locked or not */
bool XMC_SCU_CLOCK_IsSystemPllLocked(void)
{
  return (bool)((SCU_PLL->PLLSTAT & SCU_PLL_PLLSTAT_VCOLOCK_Msk) != 0UL);
 8003cf8:	4b02      	ldr	r3, [pc, #8]	; (8003d04 <XMC_SCU_CLOCK_IsSystemPllLocked+0xc>)
 8003cfa:	6918      	ldr	r0, [r3, #16]
}
 8003cfc:	f3c0 0080 	ubfx	r0, r0, #2, #1
 8003d00:	4770      	bx	lr
 8003d02:	bf00      	nop
 8003d04:	50004700 	.word	0x50004700

08003d08 <XMC_SCU_INTERRUPT_SetEventHandler>:
{
  uint32_t index;
  XMC_SCU_STATUS_t status;
  
  index = 0U;
  while (((event & ((XMC_SCU_INTERRUPT_EVENT_t)1 << index)) == 0U) && (index < XMC_SCU_INTERRUPT_EVENT_MAX))
 8003d08:	f010 0301 	ands.w	r3, r0, #1
 8003d0c:	d002      	beq.n	8003d14 <XMC_SCU_INTERRUPT_SetEventHandler+0xc>
 8003d0e:	e00f      	b.n	8003d30 <XMC_SCU_INTERRUPT_SetEventHandler+0x28>
 8003d10:	2b20      	cmp	r3, #32
 8003d12:	d00b      	beq.n	8003d2c <XMC_SCU_INTERRUPT_SetEventHandler+0x24>
  {
    index++;
 8003d14:	3301      	adds	r3, #1
  while (((event & ((XMC_SCU_INTERRUPT_EVENT_t)1 << index)) == 0U) && (index < XMC_SCU_INTERRUPT_EVENT_MAX))
 8003d16:	fa20 f203 	lsr.w	r2, r0, r3
 8003d1a:	07d2      	lsls	r2, r2, #31
 8003d1c:	d5f8      	bpl.n	8003d10 <XMC_SCU_INTERRUPT_SetEventHandler+0x8>
  }
  
  if (index == XMC_SCU_INTERRUPT_EVENT_MAX)
 8003d1e:	2b20      	cmp	r3, #32
 8003d20:	d004      	beq.n	8003d2c <XMC_SCU_INTERRUPT_SetEventHandler+0x24>
  {
    status = XMC_SCU_STATUS_ERROR;
  }
  else
  {
    event_handler_list[index] = handler;
 8003d22:	4a04      	ldr	r2, [pc, #16]	; (8003d34 <XMC_SCU_INTERRUPT_SetEventHandler+0x2c>)
    status = XMC_SCU_STATUS_OK;      
 8003d24:	2000      	movs	r0, #0
    event_handler_list[index] = handler;
 8003d26:	f842 1023 	str.w	r1, [r2, r3, lsl #2]
    status = XMC_SCU_STATUS_OK;      
 8003d2a:	4770      	bx	lr
    status = XMC_SCU_STATUS_ERROR;
 8003d2c:	2001      	movs	r0, #1
  }
  
  return (status);
}
 8003d2e:	4770      	bx	lr
  index = 0U;
 8003d30:	2300      	movs	r3, #0
 8003d32:	e7f6      	b.n	8003d22 <XMC_SCU_INTERRUPT_SetEventHandler+0x1a>
 8003d34:	20000acc 	.word	0x20000acc

08003d38 <XMC_SCU_IRQHandler>:
  return (SCU_INTERRUPT->SRRAW);
 8003d38:	4b0b      	ldr	r3, [pc, #44]	; (8003d68 <XMC_SCU_IRQHandler+0x30>)

/*
 * API to execute callback functions for multiple events.
 */
void XMC_SCU_IRQHandler(uint32_t sr_num)
{
 8003d3a:	b510      	push	{r4, lr}
  return (SCU_INTERRUPT->SRRAW);
 8003d3c:	6f9a      	ldr	r2, [r3, #120]	; 0x78
  XMC_SCU_INTERRUPT_EVENT_t event;
  XMC_SCU_INTERRUPT_EVENT_HANDLER_t event_handler;
  
  XMC_UNUSED_ARG(sr_num);
  
  index = 0U;
 8003d3e:	2400      	movs	r4, #0
 8003d40:	e002      	b.n	8003d48 <XMC_SCU_IRQHandler+0x10>
      
      XMC_SCU_INTERRUPT_ClearEventStatus((uint32_t)(1UL << index));
      
      break;
    }   
    index++;    
 8003d42:	3401      	adds	r4, #1
  while (index < XMC_SCU_INTERRUPT_EVENT_MAX)
 8003d44:	2c20      	cmp	r4, #32
 8003d46:	d00e      	beq.n	8003d66 <XMC_SCU_IRQHandler+0x2e>
    if ((event & ((XMC_SCU_INTERRUPT_EVENT_t)1 << index)) != 0U)
 8003d48:	fa22 f304 	lsr.w	r3, r2, r4
 8003d4c:	07db      	lsls	r3, r3, #31
 8003d4e:	d5f8      	bpl.n	8003d42 <XMC_SCU_IRQHandler+0xa>
      event_handler = event_handler_list[index];
 8003d50:	4b06      	ldr	r3, [pc, #24]	; (8003d6c <XMC_SCU_IRQHandler+0x34>)
 8003d52:	f853 3024 	ldr.w	r3, [r3, r4, lsl #2]
      if (event_handler != NULL)
 8003d56:	b103      	cbz	r3, 8003d5a <XMC_SCU_IRQHandler+0x22>
          (event_handler)();
 8003d58:	4798      	blx	r3
  SCU_INTERRUPT->SRCLR = (uint32_t)event;
 8003d5a:	4a03      	ldr	r2, [pc, #12]	; (8003d68 <XMC_SCU_IRQHandler+0x30>)
      XMC_SCU_INTERRUPT_ClearEventStatus((uint32_t)(1UL << index));
 8003d5c:	2301      	movs	r3, #1
 8003d5e:	fa03 f404 	lsl.w	r4, r3, r4
  SCU_INTERRUPT->SRCLR = (uint32_t)event;
 8003d62:	f8c2 4080 	str.w	r4, [r2, #128]	; 0x80
  }
}
 8003d66:	bd10      	pop	{r4, pc}
 8003d68:	50004000 	.word	0x50004000
 8003d6c:	20000acc 	.word	0x20000acc

08003d70 <Endpoint_Write_Stream_LE>:

#if defined(USB_CAN_BE_DEVICE)

#include "EndpointStream_XMC4000.h"

uint8_t Endpoint_Write_Stream_LE (const void *const Buffer, uint16_t Length, uint16_t *const BytesProcessed)  {
 8003d70:	e92d 4ff8 	stmdb	sp!, {r3, r4, r5, r6, r7, r8, r9, sl, fp, lr}
	USBD_Endpoint_t* ep = &device.Endpoints[device.CurrentEndpoint];
 8003d74:	f8df a0a4 	ldr.w	sl, [pc, #164]	; 8003e1c <Endpoint_Write_Stream_LE+0xac>
uint8_t Endpoint_Write_Stream_LE (const void *const Buffer, uint16_t Length, uint16_t *const BytesProcessed)  {
 8003d78:	4607      	mov	r7, r0
	USBD_Endpoint_t* ep = &device.Endpoints[device.CurrentEndpoint];
 8003d7a:	f89a b13c 	ldrb.w	fp, [sl, #316]	; 0x13c
uint8_t Endpoint_Write_Stream_LE (const void *const Buffer, uint16_t Length, uint16_t *const BytesProcessed)  {
 8003d7e:	460d      	mov	r5, r1
	uint16_t Bytes = 0;
	uint16_t BytesTransfered = 0;
	uint8_t ErrorCode;
	uint16_t prev_length = 0;
	if (BytesProcessed!=NULL) {
 8003d80:	4690      	mov	r8, r2
 8003d82:	2a00      	cmp	r2, #0
 8003d84:	d041      	beq.n	8003e0a <Endpoint_Write_Stream_LE+0x9a>
		Length -= *BytesProcessed;
 8003d86:	8816      	ldrh	r6, [r2, #0]
 8003d88:	1b8d      	subs	r5, r1, r6
 8003d8a:	b2ad      	uxth	r5, r5
		BytesTransfered = *BytesProcessed;
	}

	while (Length) {
		if (ep->InInUse)
 8003d8c:	242c      	movs	r4, #44	; 0x2c
 8003d8e:	fb04 a40b 	mla	r4, r4, fp, sl
			Bytes = ep->InBufferLength - ep->InBytesAvailable  > Length ? Length : ep->InBufferLength - ep->InBytesAvailable;
			MEMCPY((void *)((uint32_t)ep->InBuffer + (uint32_t)ep->InBytesAvailable), (void *)((uint32_t)Buffer + (uint32_t)BytesTransfered), Bytes);
			ep->InBytesAvailable += Bytes;
			BytesTransfered += Bytes;
			prev_length = Length;
			Length -= Bytes;
 8003d92:	f04f 0900 	mov.w	r9, #0
	while (Length) {
 8003d96:	b1f5      	cbz	r5, 8003dd6 <Endpoint_Write_Stream_LE+0x66>
		if (ep->InInUse)
 8003d98:	68a3      	ldr	r3, [r4, #8]
 8003d9a:	06db      	lsls	r3, r3, #27
 8003d9c:	d4fb      	bmi.n	8003d96 <Endpoint_Write_Stream_LE+0x26>
		if (Endpoint_IsReadWriteAllowed()) {
 8003d9e:	f7fe ffcd 	bl	8002d3c <Endpoint_IsReadWriteAllowed>
			MEMCPY((void *)((uint32_t)ep->InBuffer + (uint32_t)ep->InBytesAvailable), (void *)((uint32_t)Buffer + (uint32_t)BytesTransfered), Bytes);
 8003da2:	19b9      	adds	r1, r7, r6
		if (Endpoint_IsReadWriteAllowed()) {
 8003da4:	b330      	cbz	r0, 8003df4 <Endpoint_Write_Stream_LE+0x84>
			MEMCPY((void *)((uint32_t)ep->InBuffer + (uint32_t)ep->InBytesAvailable), (void *)((uint32_t)Buffer + (uint32_t)BytesTransfered), Bytes);
 8003da6:	e9d4 3208 	ldrd	r3, r2, [r4, #32]
			Bytes = ep->InBufferLength - ep->InBytesAvailable  > Length ? Length : ep->InBufferLength - ep->InBytesAvailable;
 8003daa:	69e0      	ldr	r0, [r4, #28]
 8003dac:	eba2 0900 	sub.w	r9, r2, r0
 8003db0:	45a9      	cmp	r9, r5
 8003db2:	bf28      	it	cs
 8003db4:	46a9      	movcs	r9, r5
			MEMCPY((void *)((uint32_t)ep->InBuffer + (uint32_t)ep->InBytesAvailable), (void *)((uint32_t)Buffer + (uint32_t)BytesTransfered), Bytes);
 8003db6:	464a      	mov	r2, r9
 8003db8:	4418      	add	r0, r3
 8003dba:	f000 fa01 	bl	80041c0 <thumb2_memcpy>
			Bytes = ep->InBufferLength - ep->InBytesAvailable  > Length ? Length : ep->InBufferLength - ep->InBytesAvailable;
 8003dbe:	fa1f f389 	uxth.w	r3, r9
			ep->InBytesAvailable += Bytes;
 8003dc2:	69e2      	ldr	r2, [r4, #28]
			BytesTransfered += Bytes;
 8003dc4:	441e      	add	r6, r3
			Length -= Bytes;
 8003dc6:	1aeb      	subs	r3, r5, r3
			ep->InBytesAvailable += Bytes;
 8003dc8:	444a      	add	r2, r9
 8003dca:	46a9      	mov	r9, r5
			Length -= Bytes;
 8003dcc:	b29d      	uxth	r5, r3
			ep->InBytesAvailable += Bytes;
 8003dce:	61e2      	str	r2, [r4, #28]
			BytesTransfered += Bytes;
 8003dd0:	b2b6      	uxth	r6, r6
	while (Length) {
 8003dd2:	2d00      	cmp	r5, #0
 8003dd4:	d1e0      	bne.n	8003d98 <Endpoint_Write_Stream_LE+0x28>


		}
	}
	
	if((Length == 0) && (prev_length == ep->MaxPacketSize))
 8003dd6:	232c      	movs	r3, #44	; 0x2c
 8003dd8:	fb03 aa0b 	mla	sl, r3, fp, sl
	{
	   zlp_flag = true;
	}
	return ENDPOINT_RWSTREAM_NoError;
 8003ddc:	4628      	mov	r0, r5
	if((Length == 0) && (prev_length == ep->MaxPacketSize))
 8003dde:	f8ba 3008 	ldrh.w	r3, [sl, #8]
 8003de2:	f3c3 1386 	ubfx	r3, r3, #6, #7
 8003de6:	454b      	cmp	r3, r9
	   zlp_flag = true;
 8003de8:	bf02      	ittt	eq
 8003dea:	4b0b      	ldreq	r3, [pc, #44]	; (8003e18 <Endpoint_Write_Stream_LE+0xa8>)
 8003dec:	2201      	moveq	r2, #1
 8003dee:	701a      	strbeq	r2, [r3, #0]
}
 8003df0:	e8bd 8ff8 	ldmia.w	sp!, {r3, r4, r5, r6, r7, r8, r9, sl, fp, pc}
			Endpoint_ClearIN();
 8003df4:	f7fe ff58 	bl	8002ca8 <Endpoint_ClearIN>
			if (BytesProcessed!=NULL) {
 8003df8:	f1b8 0f00 	cmp.w	r8, #0
 8003dfc:	d107      	bne.n	8003e0e <Endpoint_Write_Stream_LE+0x9e>
			if ((ErrorCode = Endpoint_WaitUntilReady()) != 0) {
 8003dfe:	f7fe fed9 	bl	8002bb4 <Endpoint_WaitUntilReady>
 8003e02:	2800      	cmp	r0, #0
 8003e04:	d0c7      	beq.n	8003d96 <Endpoint_Write_Stream_LE+0x26>
}
 8003e06:	e8bd 8ff8 	ldmia.w	sp!, {r3, r4, r5, r6, r7, r8, r9, sl, fp, pc}
	uint16_t BytesTransfered = 0;
 8003e0a:	4616      	mov	r6, r2
 8003e0c:	e7be      	b.n	8003d8c <Endpoint_Write_Stream_LE+0x1c>
				*BytesProcessed = BytesTransfered;
 8003e0e:	f8a8 6000 	strh.w	r6, [r8]
				return ENDPOINT_RWSTREAM_IncompleteTransfer;
 8003e12:	2005      	movs	r0, #5
}
 8003e14:	e8bd 8ff8 	ldmia.w	sp!, {r3, r4, r5, r6, r7, r8, r9, sl, fp, pc}
 8003e18:	20000b4c 	.word	0x20000b4c
 8003e1c:	20000538 	.word	0x20000538

08003e20 <SwapCopy>:

void SwapCopy(void *const Dest, const void *const Src,uint32_t Length) {
	uint32_t i = 0;
	while(i<Length) {
 8003e20:	b162      	cbz	r2, 8003e3c <SwapCopy+0x1c>
 8003e22:	3801      	subs	r0, #1
 8003e24:	1e4b      	subs	r3, r1, #1
 8003e26:	4410      	add	r0, r2
 8003e28:	4411      	add	r1, r2
 8003e2a:	f101 3cff 	add.w	ip, r1, #4294967295	; 0xffffffff
 8003e2e:	181a      	adds	r2, r3, r0
		*(uint8_t*)((uint32_t)Dest + (Length - 1 - i)) = *(uint8_t*)((uint32_t)Src + i);
 8003e30:	1ad1      	subs	r1, r2, r3
 8003e32:	f813 0f01 	ldrb.w	r0, [r3, #1]!
 8003e36:	7008      	strb	r0, [r1, #0]
	while(i<Length) {
 8003e38:	4563      	cmp	r3, ip
 8003e3a:	d1f9      	bne.n	8003e30 <SwapCopy+0x10>
		i++;
	}
}
 8003e3c:	4770      	bx	lr
 8003e3e:	bf00      	nop

08003e40 <Endpoint_Write_Stream_BE>:
uint8_t	Endpoint_Write_Stream_BE (const void *const Buffer, uint16_t Length, uint16_t *const BytesProcessed) {
 8003e40:	e92d 43f8 	stmdb	sp!, {r3, r4, r5, r6, r7, r8, r9, lr}
	USBD_Endpoint_t* ep = &device.Endpoints[device.CurrentEndpoint];
 8003e44:	4b27      	ldr	r3, [pc, #156]	; (8003ee4 <Endpoint_Write_Stream_BE+0xa4>)
uint8_t	Endpoint_Write_Stream_BE (const void *const Buffer, uint16_t Length, uint16_t *const BytesProcessed) {
 8003e46:	4680      	mov	r8, r0
	USBD_Endpoint_t* ep = &device.Endpoints[device.CurrentEndpoint];
 8003e48:	f893 913c 	ldrb.w	r9, [r3, #316]	; 0x13c
uint8_t	Endpoint_Write_Stream_BE (const void *const Buffer, uint16_t Length, uint16_t *const BytesProcessed) {
 8003e4c:	460d      	mov	r5, r1
	uint16_t Bytes = 0;
	uint16_t BytesTransfered = 0;
	uint8_t ErrorCode;

	if (BytesProcessed!=NULL) {
 8003e4e:	4617      	mov	r7, r2
 8003e50:	2a00      	cmp	r2, #0
 8003e52:	d040      	beq.n	8003ed6 <Endpoint_Write_Stream_BE+0x96>
		Length -= *BytesProcessed;
 8003e54:	8816      	ldrh	r6, [r2, #0]
 8003e56:	1b8d      	subs	r5, r1, r6
 8003e58:	b2ad      	uxth	r5, r5
		BytesTransfered = *BytesProcessed;
	}

	while (Length) {
		if (ep->InInUse)
 8003e5a:	222c      	movs	r2, #44	; 0x2c
 8003e5c:	fb02 3909 	mla	r9, r2, r9, r3
	while (Length) {
 8003e60:	b3b5      	cbz	r5, 8003ed0 <Endpoint_Write_Stream_BE+0x90>
		if (ep->InInUse)
 8003e62:	f8d9 3008 	ldr.w	r3, [r9, #8]
 8003e66:	06db      	lsls	r3, r3, #27
 8003e68:	d4fa      	bmi.n	8003e60 <Endpoint_Write_Stream_BE+0x20>
			continue;
		if (Endpoint_IsReadWriteAllowed()) {
 8003e6a:	f7fe ff67 	bl	8002d3c <Endpoint_IsReadWriteAllowed>
 8003e6e:	b940      	cbnz	r0, 8003e82 <Endpoint_Write_Stream_BE+0x42>
			ep->InBytesAvailable += Bytes;
			BytesTransfered += Bytes;
			Length -= Bytes;
		}
		else {
			Endpoint_ClearIN();
 8003e70:	f7fe ff1a 	bl	8002ca8 <Endpoint_ClearIN>
			if (BytesProcessed!=NULL) {
 8003e74:	bb8f      	cbnz	r7, 8003eda <Endpoint_Write_Stream_BE+0x9a>
				*BytesProcessed = BytesTransfered;
				return ENDPOINT_RWSTREAM_IncompleteTransfer;
			}

			if ((ErrorCode = Endpoint_WaitUntilReady()) != 0) {
 8003e76:	f7fe fe9d 	bl	8002bb4 <Endpoint_WaitUntilReady>
 8003e7a:	2800      	cmp	r0, #0
 8003e7c:	d0f0      	beq.n	8003e60 <Endpoint_Write_Stream_BE+0x20>


		}
	}
	return ENDPOINT_RWSTREAM_NoError;
}
 8003e7e:	e8bd 83f8 	ldmia.w	sp!, {r3, r4, r5, r6, r7, r8, r9, pc}
			SwapCopy((void *)((uint32_t)ep->InBuffer + (uint32_t)ep->InBytesAvailable),(void *)((uint32_t)Buffer + (uint32_t)BytesTransfered), Bytes);
 8003e82:	e9d9 4208 	ldrd	r4, r2, [r9, #32]
			Bytes = ep->InBufferLength - ep->InBytesAvailable  > Length ? Length : ep->InBufferLength - ep->InBytesAvailable;
 8003e86:	f8d9 301c 	ldr.w	r3, [r9, #28]
 8003e8a:	1ad2      	subs	r2, r2, r3
 8003e8c:	42aa      	cmp	r2, r5
 8003e8e:	bf28      	it	cs
 8003e90:	462a      	movcs	r2, r5
 8003e92:	b291      	uxth	r1, r2
			SwapCopy((void *)((uint32_t)ep->InBuffer + (uint32_t)ep->InBytesAvailable),(void *)((uint32_t)Buffer + (uint32_t)BytesTransfered), Bytes);
 8003e94:	f103 3cff 	add.w	ip, r3, #4294967295	; 0xffffffff
 8003e98:	eb08 0006 	add.w	r0, r8, r6
	while(i<Length) {
 8003e9c:	b17a      	cbz	r2, 8003ebe <Endpoint_Write_Stream_BE+0x7e>
 8003e9e:	4464      	add	r4, ip
 8003ea0:	4603      	mov	r3, r0
 8003ea2:	4414      	add	r4, r2
 8003ea4:	4410      	add	r0, r2
 8003ea6:	441c      	add	r4, r3
		*(uint8_t*)((uint32_t)Dest + (Length - 1 - i)) = *(uint8_t*)((uint32_t)Src + i);
 8003ea8:	f893 e000 	ldrb.w	lr, [r3]
 8003eac:	eba4 0c03 	sub.w	ip, r4, r3
	while(i<Length) {
 8003eb0:	3301      	adds	r3, #1
 8003eb2:	4298      	cmp	r0, r3
		*(uint8_t*)((uint32_t)Dest + (Length - 1 - i)) = *(uint8_t*)((uint32_t)Src + i);
 8003eb4:	f88c e000 	strb.w	lr, [ip]
	while(i<Length) {
 8003eb8:	d1f6      	bne.n	8003ea8 <Endpoint_Write_Stream_BE+0x68>
			ep->InBytesAvailable += Bytes;
 8003eba:	f8d9 301c 	ldr.w	r3, [r9, #28]
			Length -= Bytes;
 8003ebe:	1a6d      	subs	r5, r5, r1
			ep->InBytesAvailable += Bytes;
 8003ec0:	441a      	add	r2, r3
			BytesTransfered += Bytes;
 8003ec2:	440e      	add	r6, r1
			Length -= Bytes;
 8003ec4:	b2ad      	uxth	r5, r5
			ep->InBytesAvailable += Bytes;
 8003ec6:	f8c9 201c 	str.w	r2, [r9, #28]
			BytesTransfered += Bytes;
 8003eca:	b2b6      	uxth	r6, r6
	while (Length) {
 8003ecc:	2d00      	cmp	r5, #0
 8003ece:	d1c8      	bne.n	8003e62 <Endpoint_Write_Stream_BE+0x22>
	return ENDPOINT_RWSTREAM_NoError;
 8003ed0:	4628      	mov	r0, r5
}
 8003ed2:	e8bd 83f8 	ldmia.w	sp!, {r3, r4, r5, r6, r7, r8, r9, pc}
	uint16_t BytesTransfered = 0;
 8003ed6:	4616      	mov	r6, r2
 8003ed8:	e7bf      	b.n	8003e5a <Endpoint_Write_Stream_BE+0x1a>
				*BytesProcessed = BytesTransfered;
 8003eda:	803e      	strh	r6, [r7, #0]
				return ENDPOINT_RWSTREAM_IncompleteTransfer;
 8003edc:	2005      	movs	r0, #5
}
 8003ede:	e8bd 83f8 	ldmia.w	sp!, {r3, r4, r5, r6, r7, r8, r9, pc}
 8003ee2:	bf00      	nop
 8003ee4:	20000538 	.word	0x20000538

08003ee8 <Endpoint_Read_Stream_LE>:

uint8_t	Endpoint_Read_Stream_LE (void *const Buffer, uint16_t Length, uint16_t *const BytesProcessed) {
 8003ee8:	e92d 43f8 	stmdb	sp!, {r3, r4, r5, r6, r7, r8, r9, lr}
	USBD_Endpoint_t* ep = &device.Endpoints[device.CurrentEndpoint];
 8003eec:	4c22      	ldr	r4, [pc, #136]	; (8003f78 <Endpoint_Read_Stream_LE+0x90>)
uint8_t	Endpoint_Read_Stream_LE (void *const Buffer, uint16_t Length, uint16_t *const BytesProcessed) {
 8003eee:	4607      	mov	r7, r0
	USBD_Endpoint_t* ep = &device.Endpoints[device.CurrentEndpoint];
 8003ef0:	f894 313c 	ldrb.w	r3, [r4, #316]	; 0x13c
uint8_t	Endpoint_Read_Stream_LE (void *const Buffer, uint16_t Length, uint16_t *const BytesProcessed) {
 8003ef4:	460d      	mov	r5, r1
	uint16_t Bytes = 0;
	uint16_t BytesTransfered = 0;
	uint8_t ErrorCode;

	if (BytesProcessed!=NULL) {
 8003ef6:	4690      	mov	r8, r2
 8003ef8:	2a00      	cmp	r2, #0
 8003efa:	d036      	beq.n	8003f6a <Endpoint_Read_Stream_LE+0x82>
		Length -= *BytesProcessed;
 8003efc:	8816      	ldrh	r6, [r2, #0]
 8003efe:	1b8d      	subs	r5, r1, r6
 8003f00:	b2ad      	uxth	r5, r5
		BytesTransfered = *BytesProcessed;
	}

	while (Length) {
		if (ep->OutInUse)
 8003f02:	222c      	movs	r2, #44	; 0x2c
 8003f04:	fb02 4403 	mla	r4, r2, r3, r4
	while (Length) {
 8003f08:	b30d      	cbz	r5, 8003f4e <Endpoint_Read_Stream_LE+0x66>
		if (ep->OutInUse)
 8003f0a:	68a3      	ldr	r3, [r4, #8]
 8003f0c:	071b      	lsls	r3, r3, #28
 8003f0e:	d4fb      	bmi.n	8003f08 <Endpoint_Read_Stream_LE+0x20>
			continue;
		if (Endpoint_IsReadWriteAllowed()) {
 8003f10:	f7fe ff14 	bl	8002d3c <Endpoint_IsReadWriteAllowed>
 8003f14:	4603      	mov	r3, r0
			Bytes = ep->OutBytesAvailable  > Length ? Length : ep->OutBytesAvailable;
			MEMCPY((void *)((uint32_t)Buffer + (uint32_t)BytesTransfered), (void *)((uint32_t)ep->OutBuffer + (uint32_t)ep->OutOffset), Bytes);
 8003f16:	19b8      	adds	r0, r7, r6
		if (Endpoint_IsReadWriteAllowed()) {
 8003f18:	b1e3      	cbz	r3, 8003f54 <Endpoint_Read_Stream_LE+0x6c>
			MEMCPY((void *)((uint32_t)Buffer + (uint32_t)BytesTransfered), (void *)((uint32_t)ep->OutBuffer + (uint32_t)ep->OutOffset), Bytes);
 8003f1a:	e9d4 3103 	ldrd	r3, r1, [r4, #12]
			Bytes = ep->OutBytesAvailable  > Length ? Length : ep->OutBytesAvailable;
 8003f1e:	42ab      	cmp	r3, r5
 8003f20:	bf28      	it	cs
 8003f22:	462b      	movcs	r3, r5
 8003f24:	4699      	mov	r9, r3
			MEMCPY((void *)((uint32_t)Buffer + (uint32_t)BytesTransfered), (void *)((uint32_t)ep->OutBuffer + (uint32_t)ep->OutOffset), Bytes);
 8003f26:	461a      	mov	r2, r3
 8003f28:	6963      	ldr	r3, [r4, #20]
 8003f2a:	4419      	add	r1, r3
 8003f2c:	f000 f948 	bl	80041c0 <thumb2_memcpy>
			ep->OutBytesAvailable -= Bytes;
			ep->OutOffset += Bytes;
 8003f30:	e9d4 2303 	ldrd	r2, r3, [r4, #12]
			Bytes = ep->OutBytesAvailable  > Length ? Length : ep->OutBytesAvailable;
 8003f34:	fa1f f189 	uxth.w	r1, r9
			BytesTransfered += Bytes;
			Length -= Bytes;
 8003f38:	1a6d      	subs	r5, r5, r1
			ep->OutBytesAvailable -= Bytes;
 8003f3a:	eba2 0209 	sub.w	r2, r2, r9
			ep->OutOffset += Bytes;
 8003f3e:	444b      	add	r3, r9
			BytesTransfered += Bytes;
 8003f40:	440e      	add	r6, r1
			Length -= Bytes;
 8003f42:	b2ad      	uxth	r5, r5
			ep->OutOffset += Bytes;
 8003f44:	e9c4 2303 	strd	r2, r3, [r4, #12]
			BytesTransfered += Bytes;
 8003f48:	b2b6      	uxth	r6, r6
	while (Length) {
 8003f4a:	2d00      	cmp	r5, #0
 8003f4c:	d1dd      	bne.n	8003f0a <Endpoint_Read_Stream_LE+0x22>
				return ErrorCode;
			}

		}
	}
	return ENDPOINT_RWSTREAM_NoError;
 8003f4e:	4628      	mov	r0, r5
}
 8003f50:	e8bd 83f8 	ldmia.w	sp!, {r3, r4, r5, r6, r7, r8, r9, pc}
			Endpoint_ClearOUT();
 8003f54:	f7fe fe7e 	bl	8002c54 <Endpoint_ClearOUT>
			if (BytesProcessed!=NULL) {
 8003f58:	f1b8 0f00 	cmp.w	r8, #0
 8003f5c:	d107      	bne.n	8003f6e <Endpoint_Read_Stream_LE+0x86>
			if ((ErrorCode = Endpoint_WaitUntilReady()) != 0) {
 8003f5e:	f7fe fe29 	bl	8002bb4 <Endpoint_WaitUntilReady>
 8003f62:	2800      	cmp	r0, #0
 8003f64:	d0d0      	beq.n	8003f08 <Endpoint_Read_Stream_LE+0x20>
}
 8003f66:	e8bd 83f8 	ldmia.w	sp!, {r3, r4, r5, r6, r7, r8, r9, pc}
	uint16_t BytesTransfered = 0;
 8003f6a:	4616      	mov	r6, r2
 8003f6c:	e7c9      	b.n	8003f02 <Endpoint_Read_Stream_LE+0x1a>
				*BytesProcessed = BytesTransfered;
 8003f6e:	f8a8 6000 	strh.w	r6, [r8]
				return ENDPOINT_RWSTREAM_IncompleteTransfer;
 8003f72:	2005      	movs	r0, #5
}
 8003f74:	e8bd 83f8 	ldmia.w	sp!, {r3, r4, r5, r6, r7, r8, r9, pc}
 8003f78:	20000538 	.word	0x20000538

08003f7c <Endpoint_Read_Stream_BE>:

uint8_t	Endpoint_Read_Stream_BE (void *const Buffer, uint16_t Length, uint16_t *const BytesProcessed) {
 8003f7c:	e92d 43f8 	stmdb	sp!, {r3, r4, r5, r6, r7, r8, r9, lr}
	USBD_Endpoint_t* ep = &device.Endpoints[device.CurrentEndpoint];
 8003f80:	4b29      	ldr	r3, [pc, #164]	; (8004028 <Endpoint_Read_Stream_BE+0xac>)
uint8_t	Endpoint_Read_Stream_BE (void *const Buffer, uint16_t Length, uint16_t *const BytesProcessed) {
 8003f82:	4680      	mov	r8, r0
	USBD_Endpoint_t* ep = &device.Endpoints[device.CurrentEndpoint];
 8003f84:	f893 913c 	ldrb.w	r9, [r3, #316]	; 0x13c
uint8_t	Endpoint_Read_Stream_BE (void *const Buffer, uint16_t Length, uint16_t *const BytesProcessed) {
 8003f88:	460d      	mov	r5, r1
	uint16_t Bytes = 0;
	uint16_t BytesTransfered = 0;
	uint8_t ErrorCode;

	if (BytesProcessed!=NULL) {
 8003f8a:	4617      	mov	r7, r2
 8003f8c:	2a00      	cmp	r2, #0
 8003f8e:	d044      	beq.n	800401a <Endpoint_Read_Stream_BE+0x9e>
		Length -= *BytesProcessed;
 8003f90:	8816      	ldrh	r6, [r2, #0]
 8003f92:	1b8d      	subs	r5, r1, r6
 8003f94:	b2ad      	uxth	r5, r5
		BytesTransfered = *BytesProcessed;
	}

	while (Length) {
		if (ep->InInUse)
 8003f96:	222c      	movs	r2, #44	; 0x2c
 8003f98:	fb02 3909 	mla	r9, r2, r9, r3
	while (Length) {
 8003f9c:	2d00      	cmp	r5, #0
 8003f9e:	d039      	beq.n	8004014 <Endpoint_Read_Stream_BE+0x98>
		if (ep->InInUse)
 8003fa0:	f8d9 3008 	ldr.w	r3, [r9, #8]
 8003fa4:	06db      	lsls	r3, r3, #27
 8003fa6:	d4f9      	bmi.n	8003f9c <Endpoint_Read_Stream_BE+0x20>
			continue;
		if (Endpoint_IsReadWriteAllowed()) {
 8003fa8:	f7fe fec8 	bl	8002d3c <Endpoint_IsReadWriteAllowed>
 8003fac:	b940      	cbnz	r0, 8003fc0 <Endpoint_Read_Stream_BE+0x44>
			ep->OutOffset += Bytes;
			BytesTransfered += Bytes;
			Length -= Bytes;
		}
		else {
			Endpoint_ClearOUT();
 8003fae:	f7fe fe51 	bl	8002c54 <Endpoint_ClearOUT>
			if (BytesProcessed!=NULL) {
 8003fb2:	bba7      	cbnz	r7, 800401e <Endpoint_Read_Stream_BE+0xa2>
				*BytesProcessed = BytesTransfered;
				return ENDPOINT_RWSTREAM_IncompleteTransfer;
			}

			if ((ErrorCode = Endpoint_WaitUntilReady()) != 0) {
 8003fb4:	f7fe fdfe 	bl	8002bb4 <Endpoint_WaitUntilReady>
 8003fb8:	2800      	cmp	r0, #0
 8003fba:	d0ef      	beq.n	8003f9c <Endpoint_Read_Stream_BE+0x20>


		}
	}
	return ENDPOINT_RWSTREAM_NoError;
}
 8003fbc:	e8bd 83f8 	ldmia.w	sp!, {r3, r4, r5, r6, r7, r8, r9, pc}
			SwapCopy((void *)((uint32_t)Buffer + (uint32_t)BytesTransfered), (void *)((uint32_t)ep->OutBuffer + (uint32_t)ep->OutOffset), Bytes);
 8003fc0:	e9d9 3203 	ldrd	r3, r2, [r9, #12]
 8003fc4:	f8d9 4014 	ldr.w	r4, [r9, #20]
			Bytes = ep->OutBytesAvailable  > Length ? Length : ep->OutBytesAvailable;
 8003fc8:	429d      	cmp	r5, r3
 8003fca:	4629      	mov	r1, r5
 8003fcc:	bf28      	it	cs
 8003fce:	4619      	movcs	r1, r3
 8003fd0:	b288      	uxth	r0, r1
			SwapCopy((void *)((uint32_t)Buffer + (uint32_t)BytesTransfered), (void *)((uint32_t)ep->OutBuffer + (uint32_t)ep->OutOffset), Bytes);
 8003fd2:	eb08 0c06 	add.w	ip, r8, r6
 8003fd6:	4422      	add	r2, r4
	while(i<Length) {
 8003fd8:	b181      	cbz	r1, 8003ffc <Endpoint_Read_Stream_BE+0x80>
 8003fda:	eb0c 0401 	add.w	r4, ip, r1
 8003fde:	4414      	add	r4, r2
 8003fe0:	4613      	mov	r3, r2
		*(uint8_t*)((uint32_t)Dest + (Length - 1 - i)) = *(uint8_t*)((uint32_t)Src + i);
 8003fe2:	3c01      	subs	r4, #1
 8003fe4:	440a      	add	r2, r1
 8003fe6:	f893 e000 	ldrb.w	lr, [r3]
 8003fea:	eba4 0c03 	sub.w	ip, r4, r3
	while(i<Length) {
 8003fee:	3301      	adds	r3, #1
 8003ff0:	429a      	cmp	r2, r3
		*(uint8_t*)((uint32_t)Dest + (Length - 1 - i)) = *(uint8_t*)((uint32_t)Src + i);
 8003ff2:	f88c e000 	strb.w	lr, [ip]
	while(i<Length) {
 8003ff6:	d1f6      	bne.n	8003fe6 <Endpoint_Read_Stream_BE+0x6a>
			ep->OutBytesAvailable -= Bytes;
 8003ff8:	f8d9 300c 	ldr.w	r3, [r9, #12]
			ep->OutOffset += Bytes;
 8003ffc:	f8d9 4010 	ldr.w	r4, [r9, #16]
			Length -= Bytes;
 8004000:	1a2d      	subs	r5, r5, r0
			ep->OutBytesAvailable -= Bytes;
 8004002:	1a5a      	subs	r2, r3, r1
			BytesTransfered += Bytes;
 8004004:	4406      	add	r6, r0
			ep->OutOffset += Bytes;
 8004006:	1863      	adds	r3, r4, r1
			Length -= Bytes;
 8004008:	b2ad      	uxth	r5, r5
			ep->OutOffset += Bytes;
 800400a:	e9c9 2303 	strd	r2, r3, [r9, #12]
			BytesTransfered += Bytes;
 800400e:	b2b6      	uxth	r6, r6
	while (Length) {
 8004010:	2d00      	cmp	r5, #0
 8004012:	d1c5      	bne.n	8003fa0 <Endpoint_Read_Stream_BE+0x24>
	return ENDPOINT_RWSTREAM_NoError;
 8004014:	4628      	mov	r0, r5
}
 8004016:	e8bd 83f8 	ldmia.w	sp!, {r3, r4, r5, r6, r7, r8, r9, pc}
	uint16_t BytesTransfered = 0;
 800401a:	4616      	mov	r6, r2
 800401c:	e7bb      	b.n	8003f96 <Endpoint_Read_Stream_BE+0x1a>
				*BytesProcessed = BytesTransfered;
 800401e:	803e      	strh	r6, [r7, #0]
				return ENDPOINT_RWSTREAM_IncompleteTransfer;
 8004020:	2005      	movs	r0, #5
}
 8004022:	e8bd 83f8 	ldmia.w	sp!, {r3, r4, r5, r6, r7, r8, r9, pc}
 8004026:	bf00      	nop
 8004028:	20000538 	.word	0x20000538

0800402c <Endpoint_Write_Control_Stream_LE>:

uint8_t	Endpoint_Write_Control_Stream_LE (const void *const Buffer, uint16_t Length) {
 800402c:	b5f8      	push	{r3, r4, r5, r6, r7, lr}
	USBD_Endpoint_t *EndPoint = &device.Endpoints[0];
	uint16_t Bytes;

	while (Length) {
		if (!EndPoint->InInUse) {
 800402e:	4e10      	ldr	r6, [pc, #64]	; (8004070 <Endpoint_Write_Control_Stream_LE+0x44>)
uint8_t	Endpoint_Write_Control_Stream_LE (const void *const Buffer, uint16_t Length) {
 8004030:	4607      	mov	r7, r0
 8004032:	460c      	mov	r4, r1
	while (Length) {
 8004034:	b1d4      	cbz	r4, 800406c <Endpoint_Write_Control_Stream_LE+0x40>
		if (!EndPoint->InInUse) {
 8004036:	68b3      	ldr	r3, [r6, #8]
 8004038:	f3c3 1c00 	ubfx	ip, r3, #4, #1
 800403c:	06db      	lsls	r3, r3, #27
 800403e:	d4f9      	bmi.n	8004034 <Endpoint_Write_Control_Stream_LE+0x8>
			if (EndPoint->InBufferLength > Length) {
 8004040:	6a73      	ldr	r3, [r6, #36]	; 0x24
				Bytes = Length;
			} else {
				Bytes = EndPoint->InBufferLength;
			}
			MEMCPY(EndPoint->InBuffer,Buffer,Bytes);
 8004042:	6a30      	ldr	r0, [r6, #32]
			if (EndPoint->InBufferLength > Length) {
 8004044:	42a3      	cmp	r3, r4
			EndPoint->InBytesAvailable += Bytes;
			Length -= Bytes;
 8004046:	eba4 0203 	sub.w	r2, r4, r3
			if (EndPoint->InBufferLength > Length) {
 800404a:	4625      	mov	r5, r4
			Length -= Bytes;
 800404c:	bf9c      	itt	ls
 800404e:	461d      	movls	r5, r3
 8004050:	b294      	uxthls	r4, r2
			MEMCPY(EndPoint->InBuffer,Buffer,Bytes);
 8004052:	4639      	mov	r1, r7
 8004054:	462a      	mov	r2, r5
 8004056:	bf88      	it	hi
 8004058:	4664      	movhi	r4, ip
 800405a:	f000 f8b1 	bl	80041c0 <thumb2_memcpy>
			EndPoint->InBytesAvailable += Bytes;
 800405e:	69f3      	ldr	r3, [r6, #28]
 8004060:	442b      	add	r3, r5
 8004062:	61f3      	str	r3, [r6, #28]

			Endpoint_ClearIN();
 8004064:	f7fe fe20 	bl	8002ca8 <Endpoint_ClearIN>
	while (Length) {
 8004068:	2c00      	cmp	r4, #0
 800406a:	d1e4      	bne.n	8004036 <Endpoint_Write_Control_Stream_LE+0xa>
		}
	}
	return ENDPOINT_RWCSTREAM_NoError;
}
 800406c:	4620      	mov	r0, r4
 800406e:	bdf8      	pop	{r3, r4, r5, r6, r7, pc}
 8004070:	20000538 	.word	0x20000538

08004074 <Endpoint_Write_Control_Stream_BE>:

uint8_t	Endpoint_Write_Control_Stream_BE (const void *const Buffer, uint16_t Length) {
 8004074:	b5f8      	push	{r3, r4, r5, r6, r7, lr}
		if (!EndPoint->InInUse) {
 8004076:	4e10      	ldr	r6, [pc, #64]	; (80040b8 <Endpoint_Write_Control_Stream_BE+0x44>)
uint8_t	Endpoint_Write_Control_Stream_BE (const void *const Buffer, uint16_t Length) {
 8004078:	4607      	mov	r7, r0
 800407a:	460c      	mov	r4, r1
	while (Length) {
 800407c:	b1d4      	cbz	r4, 80040b4 <Endpoint_Write_Control_Stream_BE+0x40>
		if (!EndPoint->InInUse) {
 800407e:	68b3      	ldr	r3, [r6, #8]
 8004080:	f3c3 1c00 	ubfx	ip, r3, #4, #1
 8004084:	06db      	lsls	r3, r3, #27
 8004086:	d4f9      	bmi.n	800407c <Endpoint_Write_Control_Stream_BE+0x8>
			if (EndPoint->InBufferLength > Length) {
 8004088:	6a73      	ldr	r3, [r6, #36]	; 0x24
			MEMCPY(EndPoint->InBuffer,Buffer,Bytes);
 800408a:	6a30      	ldr	r0, [r6, #32]
			if (EndPoint->InBufferLength > Length) {
 800408c:	42a3      	cmp	r3, r4
			Length -= Bytes;
 800408e:	eba4 0203 	sub.w	r2, r4, r3
			if (EndPoint->InBufferLength > Length) {
 8004092:	4625      	mov	r5, r4
			Length -= Bytes;
 8004094:	bf9c      	itt	ls
 8004096:	461d      	movls	r5, r3
 8004098:	b294      	uxthls	r4, r2
			MEMCPY(EndPoint->InBuffer,Buffer,Bytes);
 800409a:	4639      	mov	r1, r7
 800409c:	462a      	mov	r2, r5
 800409e:	bf88      	it	hi
 80040a0:	4664      	movhi	r4, ip
 80040a2:	f000 f88d 	bl	80041c0 <thumb2_memcpy>
			EndPoint->InBytesAvailable += Bytes;
 80040a6:	69f3      	ldr	r3, [r6, #28]
 80040a8:	442b      	add	r3, r5
 80040aa:	61f3      	str	r3, [r6, #28]
			Endpoint_ClearIN();
 80040ac:	f7fe fdfc 	bl	8002ca8 <Endpoint_ClearIN>
	while (Length) {
 80040b0:	2c00      	cmp	r4, #0
 80040b2:	d1e4      	bne.n	800407e <Endpoint_Write_Control_Stream_BE+0xa>
	return Endpoint_Write_Control_Stream_LE(Buffer,Length);
}
 80040b4:	4620      	mov	r0, r4
 80040b6:	bdf8      	pop	{r3, r4, r5, r6, r7, pc}
 80040b8:	20000538 	.word	0x20000538

080040bc <Endpoint_Read_Control_Stream_LE>:

uint8_t	Endpoint_Read_Control_Stream_LE (void *const Buffer, uint16_t Length) {
 80040bc:	b5f8      	push	{r3, r4, r5, r6, r7, lr}
	USBD_Endpoint_t *EndPoint = &device.Endpoints[0];
	uint16_t Bytes;

	while (Length) {
		if (EndPoint->IsOutRecieved) {
 80040be:	4d0d      	ldr	r5, [pc, #52]	; (80040f4 <Endpoint_Read_Control_Stream_LE+0x38>)
uint8_t	Endpoint_Read_Control_Stream_LE (void *const Buffer, uint16_t Length) {
 80040c0:	4607      	mov	r7, r0
 80040c2:	460c      	mov	r4, r1
	while (Length) {
 80040c4:	b1a4      	cbz	r4, 80040f0 <Endpoint_Read_Control_Stream_LE+0x34>
		if (EndPoint->IsOutRecieved) {
 80040c6:	68ab      	ldr	r3, [r5, #8]
 80040c8:	069b      	lsls	r3, r3, #26
 80040ca:	d5fb      	bpl.n	80040c4 <Endpoint_Read_Control_Stream_LE+0x8>
			Bytes = EndPoint->OutBytesAvailable > Length
					? Length : EndPoint->OutBytesAvailable;
 80040cc:	68ee      	ldr	r6, [r5, #12]
			MEMCPY(Buffer,EndPoint->OutBuffer,Bytes);
 80040ce:	6969      	ldr	r1, [r5, #20]
					? Length : EndPoint->OutBytesAvailable;
 80040d0:	42a6      	cmp	r6, r4
 80040d2:	bf28      	it	cs
 80040d4:	4626      	movcs	r6, r4
			MEMCPY(Buffer,EndPoint->OutBuffer,Bytes);
 80040d6:	4632      	mov	r2, r6
 80040d8:	4638      	mov	r0, r7
 80040da:	f000 f871 	bl	80041c0 <thumb2_memcpy>
			EndPoint->OutBytesAvailable -= Bytes;
 80040de:	68eb      	ldr	r3, [r5, #12]
			Length -= Bytes;
 80040e0:	1ba4      	subs	r4, r4, r6
			EndPoint->OutBytesAvailable -= Bytes;
 80040e2:	1b9b      	subs	r3, r3, r6
			Length -= Bytes;
 80040e4:	b2a4      	uxth	r4, r4
			EndPoint->OutBytesAvailable -= Bytes;
 80040e6:	60eb      	str	r3, [r5, #12]

			Endpoint_ClearOUT();
 80040e8:	f7fe fdb4 	bl	8002c54 <Endpoint_ClearOUT>
	while (Length) {
 80040ec:	2c00      	cmp	r4, #0
 80040ee:	d1ea      	bne.n	80040c6 <Endpoint_Read_Control_Stream_LE+0xa>
		}
	}
	return ENDPOINT_RWCSTREAM_NoError;
}
 80040f0:	4620      	mov	r0, r4
 80040f2:	bdf8      	pop	{r3, r4, r5, r6, r7, pc}
 80040f4:	20000538 	.word	0x20000538

080040f8 <Endpoint_Read_Control_Stream_BE>:

uint8_t	Endpoint_Read_Control_Stream_BE (void *const Buffer, uint16_t Length) {
 80040f8:	b5f8      	push	{r3, r4, r5, r6, r7, lr}
		if (EndPoint->IsOutRecieved) {
 80040fa:	4d0d      	ldr	r5, [pc, #52]	; (8004130 <Endpoint_Read_Control_Stream_BE+0x38>)
uint8_t	Endpoint_Read_Control_Stream_BE (void *const Buffer, uint16_t Length) {
 80040fc:	4607      	mov	r7, r0
 80040fe:	460c      	mov	r4, r1
	while (Length) {
 8004100:	b1a4      	cbz	r4, 800412c <Endpoint_Read_Control_Stream_BE+0x34>
		if (EndPoint->IsOutRecieved) {
 8004102:	68ab      	ldr	r3, [r5, #8]
 8004104:	069b      	lsls	r3, r3, #26
 8004106:	d5fb      	bpl.n	8004100 <Endpoint_Read_Control_Stream_BE+0x8>
					? Length : EndPoint->OutBytesAvailable;
 8004108:	68ee      	ldr	r6, [r5, #12]
			MEMCPY(Buffer,EndPoint->OutBuffer,Bytes);
 800410a:	6969      	ldr	r1, [r5, #20]
					? Length : EndPoint->OutBytesAvailable;
 800410c:	42a6      	cmp	r6, r4
 800410e:	bf28      	it	cs
 8004110:	4626      	movcs	r6, r4
			MEMCPY(Buffer,EndPoint->OutBuffer,Bytes);
 8004112:	4632      	mov	r2, r6
 8004114:	4638      	mov	r0, r7
 8004116:	f000 f853 	bl	80041c0 <thumb2_memcpy>
			EndPoint->OutBytesAvailable -= Bytes;
 800411a:	68eb      	ldr	r3, [r5, #12]
			Length -= Bytes;
 800411c:	1ba4      	subs	r4, r4, r6
			EndPoint->OutBytesAvailable -= Bytes;
 800411e:	1b9b      	subs	r3, r3, r6
			Length -= Bytes;
 8004120:	b2a4      	uxth	r4, r4
			EndPoint->OutBytesAvailable -= Bytes;
 8004122:	60eb      	str	r3, [r5, #12]
			Endpoint_ClearOUT();
 8004124:	f7fe fd96 	bl	8002c54 <Endpoint_ClearOUT>
	while (Length) {
 8004128:	2c00      	cmp	r4, #0
 800412a:	d1ea      	bne.n	8004102 <Endpoint_Read_Control_Stream_BE+0xa>
	return Endpoint_Read_Control_Stream_LE(Buffer,Length);
}
 800412c:	4620      	mov	r0, r4
 800412e:	bdf8      	pop	{r3, r4, r5, r6, r7, pc}
 8004130:	20000538 	.word	0x20000538

08004134 <Endpoint_Null_Stream>:

uint8_t Endpoint_Null_Stream(uint16_t Length,
								 uint16_t* const BytesProcessed) {
 8004134:	e92d 41f0 	stmdb	sp!, {r4, r5, r6, r7, r8, lr}
	USBD_Endpoint_t* ep = &device.Endpoints[device.CurrentEndpoint];
 8004138:	4c20      	ldr	r4, [pc, #128]	; (80041bc <Endpoint_Null_Stream+0x88>)
								 uint16_t* const BytesProcessed) {
 800413a:	4605      	mov	r5, r0
	USBD_Endpoint_t* ep = &device.Endpoints[device.CurrentEndpoint];
 800413c:	f894 313c 	ldrb.w	r3, [r4, #316]	; 0x13c
		uint16_t Bytes = 0;
		uint16_t BytesTransfered = 0;
		uint8_t ErrorCode;

		if (BytesProcessed!=NULL) {
 8004140:	4688      	mov	r8, r1
 8004142:	2900      	cmp	r1, #0
 8004144:	d032      	beq.n	80041ac <Endpoint_Null_Stream+0x78>
			Length -= *BytesProcessed;
 8004146:	880f      	ldrh	r7, [r1, #0]
 8004148:	1bc5      	subs	r5, r0, r7
 800414a:	b2ad      	uxth	r5, r5
			BytesTransfered = *BytesProcessed;
		}

		while (Length) {
			if (ep->InInUse)
 800414c:	222c      	movs	r2, #44	; 0x2c
 800414e:	fb02 4403 	mla	r4, r2, r3, r4
		while (Length) {
 8004152:	b1ed      	cbz	r5, 8004190 <Endpoint_Null_Stream+0x5c>
			if (ep->InInUse)
 8004154:	68a3      	ldr	r3, [r4, #8]
 8004156:	f3c3 1600 	ubfx	r6, r3, #4, #1
 800415a:	06db      	lsls	r3, r3, #27
 800415c:	d4f9      	bmi.n	8004152 <Endpoint_Null_Stream+0x1e>
				continue;
			if (Endpoint_IsReadWriteAllowed()) {
 800415e:	f7fe fded 	bl	8002d3c <Endpoint_IsReadWriteAllowed>
				Bytes = ep->InBufferLength - ep->InBytesAvailable  > Length ? Length : ep->InBufferLength - ep->InBytesAvailable;
				memset(ep->InBuffer + ep->InBytesAvailable,0x0,Bytes);
 8004162:	4631      	mov	r1, r6
			if (Endpoint_IsReadWriteAllowed()) {
 8004164:	b1b8      	cbz	r0, 8004196 <Endpoint_Null_Stream+0x62>
				memset(ep->InBuffer + ep->InBytesAvailable,0x0,Bytes);
 8004166:	f104 001c 	add.w	r0, r4, #28
 800416a:	c849      	ldmia	r0, {r0, r3, r6}
				Bytes = ep->InBufferLength - ep->InBytesAvailable  > Length ? Length : ep->InBufferLength - ep->InBytesAvailable;
 800416c:	1a36      	subs	r6, r6, r0
 800416e:	42ae      	cmp	r6, r5
 8004170:	bf28      	it	cs
 8004172:	462e      	movcs	r6, r5
				memset(ep->InBuffer + ep->InBytesAvailable,0x0,Bytes);
 8004174:	4632      	mov	r2, r6
 8004176:	4418      	add	r0, r3
 8004178:	f000 fb04 	bl	8004784 <memset>
				ep->InBytesAvailable += Bytes;
 800417c:	69e2      	ldr	r2, [r4, #28]
				Bytes = ep->InBufferLength - ep->InBytesAvailable  > Length ? Length : ep->InBufferLength - ep->InBytesAvailable;
 800417e:	b2b3      	uxth	r3, r6
				BytesTransfered += Bytes;
				Length -= Bytes;
 8004180:	1aed      	subs	r5, r5, r3
				ep->InBytesAvailable += Bytes;
 8004182:	4432      	add	r2, r6
				BytesTransfered += Bytes;
 8004184:	441f      	add	r7, r3
				Length -= Bytes;
 8004186:	b2ad      	uxth	r5, r5
				ep->InBytesAvailable += Bytes;
 8004188:	61e2      	str	r2, [r4, #28]
				BytesTransfered += Bytes;
 800418a:	b2bf      	uxth	r7, r7
		while (Length) {
 800418c:	2d00      	cmp	r5, #0
 800418e:	d1e1      	bne.n	8004154 <Endpoint_Null_Stream+0x20>
				}


			}
		}
		return ENDPOINT_RWSTREAM_NoError;
 8004190:	4628      	mov	r0, r5
}
 8004192:	e8bd 81f0 	ldmia.w	sp!, {r4, r5, r6, r7, r8, pc}
				Endpoint_ClearIN();
 8004196:	f7fe fd87 	bl	8002ca8 <Endpoint_ClearIN>
				if (BytesProcessed!=NULL) {
 800419a:	f1b8 0f00 	cmp.w	r8, #0
 800419e:	d107      	bne.n	80041b0 <Endpoint_Null_Stream+0x7c>
				if ((ErrorCode = Endpoint_WaitUntilReady()) != 0) {
 80041a0:	f7fe fd08 	bl	8002bb4 <Endpoint_WaitUntilReady>
 80041a4:	2800      	cmp	r0, #0
 80041a6:	d0d4      	beq.n	8004152 <Endpoint_Null_Stream+0x1e>
}
 80041a8:	e8bd 81f0 	ldmia.w	sp!, {r4, r5, r6, r7, r8, pc}
		uint16_t BytesTransfered = 0;
 80041ac:	460f      	mov	r7, r1
 80041ae:	e7cd      	b.n	800414c <Endpoint_Null_Stream+0x18>
					*BytesProcessed = BytesTransfered;
 80041b0:	f8a8 7000 	strh.w	r7, [r8]
					return ENDPOINT_RWSTREAM_IncompleteTransfer;
 80041b4:	2005      	movs	r0, #5
}
 80041b6:	e8bd 81f0 	ldmia.w	sp!, {r4, r5, r6, r7, r8, pc}
 80041ba:	bf00      	nop
 80041bc:	20000538 	.word	0x20000538

080041c0 <thumb2_memcpy>:
   stack to improve its performance.  It copies 4 bytes at a time and
   unrolls the loop to perform 4 of these copies per loop iteration.
*/
__attribute__((naked)) void thumb2_memcpy(void* pDest, const void* pSource, size_t length)
{
    __asm (
 80041c0:	0913      	lsrs	r3, r2, #4
 80041c2:	d011      	beq.n	80041e8 <thumb2_memcpy+0x28>
 80041c4:	f851 cb04 	ldr.w	ip, [r1], #4
 80041c8:	f840 cb04 	str.w	ip, [r0], #4
 80041cc:	f851 cb04 	ldr.w	ip, [r1], #4
 80041d0:	f840 cb04 	str.w	ip, [r0], #4
 80041d4:	f851 cb04 	ldr.w	ip, [r1], #4
 80041d8:	f840 cb04 	str.w	ip, [r0], #4
 80041dc:	f851 cb04 	ldr.w	ip, [r1], #4
 80041e0:	f840 cb04 	str.w	ip, [r0], #4
 80041e4:	3b01      	subs	r3, #1
 80041e6:	d1ed      	bne.n	80041c4 <thumb2_memcpy+0x4>
 80041e8:	f012 030f 	ands.w	r3, r2, #15
 80041ec:	d005      	beq.n	80041fa <thumb2_memcpy+0x3a>
 80041ee:	f811 cb01 	ldrb.w	ip, [r1], #1
 80041f2:	f800 cb01 	strb.w	ip, [r0], #1
 80041f6:	3b01      	subs	r3, #1
 80041f8:	d1f9      	bne.n	80041ee <thumb2_memcpy+0x2e>
 80041fa:	4770      	bx	lr

080041fc <XMC_GPIO_SetMode>:
void XMC_GPIO_SetMode(XMC_GPIO_PORT_t *const port, const uint8_t pin, const XMC_GPIO_MODE_t mode)
{
  XMC_ASSERT("XMC_GPIO_SetMode: Invalid port", XMC_GPIO_CHECK_PORT(port));
  XMC_ASSERT("XMC_GPIO_SetMode: Invalid mode", XMC_GPIO_IsModeValid(mode));

  port->IOCR[(uint32_t)pin >> 2U] &= ~(uint32_t)((uint32_t)PORT_IOCR_PC_Msk << ((uint32_t)PORT_IOCR_PC_Size * ((uint32_t)pin & 0x3U)));
 80041fc:	f001 03fc 	and.w	r3, r1, #252	; 0xfc
 8004200:	4418      	add	r0, r3
 8004202:	f001 0103 	and.w	r1, r1, #3
 8004206:	6903      	ldr	r3, [r0, #16]
 8004208:	00c9      	lsls	r1, r1, #3
 800420a:	f04f 0cf8 	mov.w	ip, #248	; 0xf8
  port->IOCR[(uint32_t)pin >> 2U] |= (uint32_t)mode << ((uint32_t)PORT_IOCR_PC_Size * ((uint32_t)pin & 0x3U));
 800420e:	408a      	lsls	r2, r1
  port->IOCR[(uint32_t)pin >> 2U] &= ~(uint32_t)((uint32_t)PORT_IOCR_PC_Msk << ((uint32_t)PORT_IOCR_PC_Size * ((uint32_t)pin & 0x3U)));
 8004210:	fa0c f101 	lsl.w	r1, ip, r1
 8004214:	ea23 0301 	bic.w	r3, r3, r1
 8004218:	6103      	str	r3, [r0, #16]
  port->IOCR[(uint32_t)pin >> 2U] |= (uint32_t)mode << ((uint32_t)PORT_IOCR_PC_Size * ((uint32_t)pin & 0x3U));
 800421a:	6903      	ldr	r3, [r0, #16]
 800421c:	431a      	orrs	r2, r3
 800421e:	6102      	str	r2, [r0, #16]
}
 8004220:	4770      	bx	lr
 8004222:	bf00      	nop

08004224 <XMC_GPIO_SetHardwareControl>:
void XMC_GPIO_SetHardwareControl(XMC_GPIO_PORT_t *const port, const uint8_t pin, const XMC_GPIO_HWCTRL_t hwctrl)
{
  XMC_ASSERT("XMC_GPIO_SetHardwareControl: Invalid port", XMC_GPIO_CHECK_PORT(port));
  XMC_ASSERT("XMC_GPIO_SetHardwareControl: Invalid hwctrl", XMC_GPIO_CHECK_HWCTRL(hwctrl));

  port->HWSEL &= ~(uint32_t)((uint32_t)PORT_HWSEL_Msk << ((uint32_t)pin << 1U));
 8004224:	6f43      	ldr	r3, [r0, #116]	; 0x74
 8004226:	0049      	lsls	r1, r1, #1
 8004228:	f04f 0c03 	mov.w	ip, #3
 800422c:	fa0c fc01 	lsl.w	ip, ip, r1
 8004230:	ea23 030c 	bic.w	r3, r3, ip
 8004234:	6743      	str	r3, [r0, #116]	; 0x74
  port->HWSEL |= (uint32_t)hwctrl << ((uint32_t)pin << 1U);
 8004236:	6f43      	ldr	r3, [r0, #116]	; 0x74
 8004238:	408a      	lsls	r2, r1
 800423a:	431a      	orrs	r2, r3
 800423c:	6742      	str	r2, [r0, #116]	; 0x74
}
 800423e:	4770      	bx	lr

08004240 <XMC_GPIO_Init>:
{
  XMC_ASSERT("XMC_GPIO_Init: Invalid port", XMC_GPIO_CHECK_PORT(port));
  XMC_ASSERT("XMC_GPIO_Init: Invalid mode", XMC_GPIO_IsModeValid(config->mode));
 
  /* Switch to input */
  port->IOCR[pin >> 2U] &= (uint32_t)~(PORT_IOCR_PC_Msk << (PORT_IOCR_PC_Size * (pin & 0x3U)));
 8004240:	f001 03fc 	and.w	r3, r1, #252	; 0xfc
 8004244:	4403      	add	r3, r0
 8004246:	f001 0c03 	and.w	ip, r1, #3
{
 800424a:	b530      	push	{r4, r5, lr}
  port->IOCR[pin >> 2U] &= (uint32_t)~(PORT_IOCR_PC_Msk << (PORT_IOCR_PC_Size * (pin & 0x3U)));
 800424c:	ea4f 0ccc 	mov.w	ip, ip, lsl #3
 8004250:	691c      	ldr	r4, [r3, #16]
 8004252:	f04f 0ef8 	mov.w	lr, #248	; 0xf8
 8004256:	fa0e fe0c 	lsl.w	lr, lr, ip
 800425a:	ea24 040e 	bic.w	r4, r4, lr
 800425e:	611c      	str	r4, [r3, #16]

  /* HW port control is disabled */
  port->HWSEL &= ~(uint32_t)((uint32_t)PORT_HWSEL_Msk << ((uint32_t)pin << 1U));
 8004260:	6f44      	ldr	r4, [r0, #116]	; 0x74
 8004262:	004d      	lsls	r5, r1, #1
 8004264:	f04f 0e03 	mov.w	lr, #3
 8004268:	fa0e fe05 	lsl.w	lr, lr, r5
 800426c:	ea24 040e 	bic.w	r4, r4, lr
 8004270:	6744      	str	r4, [r0, #116]	; 0x74


  /* Enable digital input */
  if (XMC_GPIO_CHECK_ANALOG_PORT(port))
 8004272:	4c16      	ldr	r4, [pc, #88]	; (80042cc <XMC_GPIO_Init+0x8c>)
 8004274:	42a0      	cmp	r0, r4
 8004276:	d019      	beq.n	80042ac <XMC_GPIO_Init+0x6c>
 8004278:	f504 7480 	add.w	r4, r4, #256	; 0x100
 800427c:	42a0      	cmp	r0, r4
 800427e:	d015      	beq.n	80042ac <XMC_GPIO_Init+0x6c>
    port->PDISC &= ~(uint32_t)((uint32_t)0x1U << pin);
  }
  else
  {
    /* Set output level */
    port->OMR = (uint32_t)config->output_level << pin;
 8004280:	6854      	ldr	r4, [r2, #4]
 8004282:	408c      	lsls	r4, r1
 8004284:	6044      	str	r4, [r0, #4]

    /* Set output driver strength */
    port->PDR[pin >> 3U] &= (uint32_t)~(PORT_PDR_Msk << ((uint32_t)PORT_PDR_Size * ((uint32_t)pin & 0x7U)));
 8004286:	08cc      	lsrs	r4, r1, #3
 8004288:	eb00 0084 	add.w	r0, r0, r4, lsl #2
 800428c:	f001 0107 	and.w	r1, r1, #7
 8004290:	6c04      	ldr	r4, [r0, #64]	; 0x40
 8004292:	0089      	lsls	r1, r1, #2
 8004294:	2507      	movs	r5, #7
 8004296:	408d      	lsls	r5, r1
 8004298:	ea24 0405 	bic.w	r4, r4, r5
 800429c:	6404      	str	r4, [r0, #64]	; 0x40
    port->PDR[pin >> 3U] |= (uint32_t)config->output_strength << ((uint32_t)PORT_PDR_Size * ((uint32_t)pin & 0x7U));
 800429e:	7a14      	ldrb	r4, [r2, #8]
 80042a0:	fa04 f101 	lsl.w	r1, r4, r1
 80042a4:	6c04      	ldr	r4, [r0, #64]	; 0x40
 80042a6:	4321      	orrs	r1, r4
 80042a8:	6401      	str	r1, [r0, #64]	; 0x40
 80042aa:	e007      	b.n	80042bc <XMC_GPIO_Init+0x7c>
    port->PDISC &= ~(uint32_t)((uint32_t)0x1U << pin);
 80042ac:	6e04      	ldr	r4, [r0, #96]	; 0x60
 80042ae:	f04f 0e01 	mov.w	lr, #1
 80042b2:	fa0e f101 	lsl.w	r1, lr, r1
 80042b6:	ea24 0101 	bic.w	r1, r4, r1
 80042ba:	6601      	str	r1, [r0, #96]	; 0x60
  }

  /* Set mode */
  port->IOCR[pin >> 2U] |= (uint32_t)config->mode << ((uint32_t)PORT_IOCR_PC_Size * ((uint32_t)pin & 0x3U));
 80042bc:	7812      	ldrb	r2, [r2, #0]
 80042be:	6919      	ldr	r1, [r3, #16]
 80042c0:	fa02 f20c 	lsl.w	r2, r2, ip
 80042c4:	430a      	orrs	r2, r1
 80042c6:	611a      	str	r2, [r3, #16]
}
 80042c8:	bd30      	pop	{r4, r5, pc}
 80042ca:	bf00      	nop
 80042cc:	48028e00 	.word	0x48028e00

080042d0 <XMC_GPIO_SetOutputStrength>:
void XMC_GPIO_SetOutputStrength(XMC_GPIO_PORT_t *const port, const uint8_t pin, XMC_GPIO_OUTPUT_STRENGTH_t strength)
{
  XMC_ASSERT("XMC_GPIO_Init: Invalid port", XMC_GPIO_CHECK_OUTPUT_PORT(port));
  XMC_ASSERT("XMC_GPIO_Init: Invalid output strength", XMC_GPIO_CHECK_OUTPUT_STRENGTH(strength));

  port->PDR[pin >> 3U] &= (uint32_t)~((uint32_t)PORT_PDR_Msk << ((uint32_t)PORT_PDR_Size * ((uint32_t)pin & 0x7U)));
 80042d0:	08cb      	lsrs	r3, r1, #3
 80042d2:	eb00 0083 	add.w	r0, r0, r3, lsl #2
 80042d6:	f001 0107 	and.w	r1, r1, #7
 80042da:	6c03      	ldr	r3, [r0, #64]	; 0x40
 80042dc:	0089      	lsls	r1, r1, #2
 80042de:	f04f 0c07 	mov.w	ip, #7
  port->PDR[pin >> 3U] |= (uint32_t)strength << ((uint32_t)PORT_PDR_Size * ((uint32_t)pin & 0x7U));
 80042e2:	408a      	lsls	r2, r1
  port->PDR[pin >> 3U] &= (uint32_t)~((uint32_t)PORT_PDR_Msk << ((uint32_t)PORT_PDR_Size * ((uint32_t)pin & 0x7U)));
 80042e4:	fa0c f101 	lsl.w	r1, ip, r1
 80042e8:	ea23 0301 	bic.w	r3, r3, r1
 80042ec:	6403      	str	r3, [r0, #64]	; 0x40
  port->PDR[pin >> 3U] |= (uint32_t)strength << ((uint32_t)PORT_PDR_Size * ((uint32_t)pin & 0x7U));
 80042ee:	6c03      	ldr	r3, [r0, #64]	; 0x40
 80042f0:	431a      	orrs	r2, r3
 80042f2:	6402      	str	r2, [r0, #64]	; 0x40
}
 80042f4:	4770      	bx	lr
 80042f6:	bf00      	nop

080042f8 <SystemCoreSetup>:
  __ASM volatile ("cpsid i" : : : "memory");
 80042f8:	b672      	cpsid	i
{
  uint32_t temp;
	
  /* relocate vector table */
  __disable_irq();
  SCB->VTOR = (uint32_t)(&__Vectors);
 80042fa:	4b0c      	ldr	r3, [pc, #48]	; (800432c <SystemCoreSetup+0x34>)
 80042fc:	4a0c      	ldr	r2, [pc, #48]	; (8004330 <SystemCoreSetup+0x38>)
 80042fe:	609a      	str	r2, [r3, #8]
  __ASM volatile ("dsb 0xF":::"memory");
 8004300:	f3bf 8f4f 	dsb	sy
  __ASM volatile ("cpsie i" : : : "memory");
 8004304:	b662      	cpsie	i
  __DSB();
  __enable_irq();
    
#if ((__FPU_PRESENT == 1) && (__FPU_USED == 1))
  SCB->CPACR |= ((3UL << 10*2) |                 /* set CP10 Full Access */
 8004306:	f8d3 2088 	ldr.w	r2, [r3, #136]	; 0x88
#endif

  /* Enable unaligned memory access - SCB_CCR.UNALIGN_TRP = 0 */
  SCB->CCR &= ~(SCB_CCR_UNALIGN_TRP_Msk);

  temp = FLASH0->FCON;
 800430a:	490a      	ldr	r1, [pc, #40]	; (8004334 <SystemCoreSetup+0x3c>)
  SCB->CPACR |= ((3UL << 10*2) |                 /* set CP10 Full Access */
 800430c:	f442 0270 	orr.w	r2, r2, #15728640	; 0xf00000
 8004310:	f8c3 2088 	str.w	r2, [r3, #136]	; 0x88
  SCB->CCR &= ~(SCB_CCR_UNALIGN_TRP_Msk);
 8004314:	695a      	ldr	r2, [r3, #20]
 8004316:	f022 0208 	bic.w	r2, r2, #8
 800431a:	615a      	str	r2, [r3, #20]
  temp = FLASH0->FCON;
 800431c:	694b      	ldr	r3, [r1, #20]
  temp &= ~FLASH_FCON_WSPFLASH_Msk;
 800431e:	f023 030f 	bic.w	r3, r3, #15
  temp |= PMU_FLASH_WS;
 8004322:	f043 0303 	orr.w	r3, r3, #3
  FLASH0->FCON = temp;
 8004326:	614b      	str	r3, [r1, #20]
}
 8004328:	4770      	bx	lr
 800432a:	bf00      	nop
 800432c:	e000ed00 	.word	0xe000ed00
 8004330:	08000000 	.word	0x08000000
 8004334:	58002000 	.word	0x58002000

08004338 <OSCHP_GetFrequency>:
}

__WEAK uint32_t OSCHP_GetFrequency(void)
{
  return OSCHP_FREQUENCY;
}
 8004338:	4800      	ldr	r0, [pc, #0]	; (800433c <OSCHP_GetFrequency+0x4>)
 800433a:	4770      	bx	lr
 800433c:	00b71b00 	.word	0x00b71b00

08004340 <SystemCoreClockUpdate>:
  if (SCU_CLK->SYSCLKCR & SCU_CLK_SYSCLKCR_SYSSEL_Msk)
 8004340:	4b1c      	ldr	r3, [pc, #112]	; (80043b4 <SystemCoreClockUpdate+0x74>)
 8004342:	68db      	ldr	r3, [r3, #12]
 8004344:	03d9      	lsls	r1, r3, #15
{
 8004346:	b510      	push	{r4, lr}
  if (SCU_CLK->SYSCLKCR & SCU_CLK_SYSCLKCR_SYSSEL_Msk)
 8004348:	d519      	bpl.n	800437e <SystemCoreClockUpdate+0x3e>
    if(SCU_PLL->PLLCON2 & SCU_PLL_PLLCON2_PINSEL_Msk)
 800434a:	4b1b      	ldr	r3, [pc, #108]	; (80043b8 <SystemCoreClockUpdate+0x78>)
 800434c:	69db      	ldr	r3, [r3, #28]
 800434e:	07da      	lsls	r2, r3, #31
 8004350:	d52c      	bpl.n	80043ac <SystemCoreClockUpdate+0x6c>
      temp = OFI_FREQUENCY;
 8004352:	481a      	ldr	r0, [pc, #104]	; (80043bc <SystemCoreClockUpdate+0x7c>)
    if (SCU_PLL->PLLSTAT & SCU_PLL_PLLSTAT_VCOLOCK_Msk)
 8004354:	4918      	ldr	r1, [pc, #96]	; (80043b8 <SystemCoreClockUpdate+0x78>)
 8004356:	690b      	ldr	r3, [r1, #16]
 8004358:	075b      	lsls	r3, r3, #29
 800435a:	d520      	bpl.n	800439e <SystemCoreClockUpdate+0x5e>
      pdiv = ((SCU_PLL->PLLCON1 & SCU_PLL_PLLCON1_PDIV_Msk) >> SCU_PLL_PLLCON1_PDIV_Pos) + 1;
 800435c:	698c      	ldr	r4, [r1, #24]
      ndiv = ((SCU_PLL->PLLCON1 & SCU_PLL_PLLCON1_NDIV_Msk) >> SCU_PLL_PLLCON1_NDIV_Pos) + 1;
 800435e:	698b      	ldr	r3, [r1, #24]
      kdiv = ((SCU_PLL->PLLCON1 & SCU_PLL_PLLCON1_K2DIV_Msk) >> SCU_PLL_PLLCON1_K2DIV_Pos) + 1;
 8004360:	698a      	ldr	r2, [r1, #24]
 8004362:	f3c2 4206 	ubfx	r2, r2, #16, #7
      ndiv = ((SCU_PLL->PLLCON1 & SCU_PLL_PLLCON1_NDIV_Msk) >> SCU_PLL_PLLCON1_NDIV_Pos) + 1;
 8004366:	f3c3 2106 	ubfx	r1, r3, #8, #7
      pdiv = ((SCU_PLL->PLLCON1 & SCU_PLL_PLLCON1_PDIV_Msk) >> SCU_PLL_PLLCON1_PDIV_Pos) + 1;
 800436a:	f3c4 6c03 	ubfx	ip, r4, #24, #4
      kdiv = ((SCU_PLL->PLLCON1 & SCU_PLL_PLLCON1_K2DIV_Msk) >> SCU_PLL_PLLCON1_K2DIV_Pos) + 1;
 800436e:	3201      	adds	r2, #1
      temp = (temp / (pdiv * kdiv)) * ndiv;
 8004370:	fb0c 2302 	mla	r3, ip, r2, r2
 8004374:	fbb0 f3f3 	udiv	r3, r0, r3
 8004378:	fb01 3303 	mla	r3, r1, r3, r3
 800437c:	e000      	b.n	8004380 <SystemCoreClockUpdate+0x40>
    temp = OFI_FREQUENCY;
 800437e:	4b0f      	ldr	r3, [pc, #60]	; (80043bc <SystemCoreClockUpdate+0x7c>)
  temp = temp / ((SCU_CLK->SYSCLKCR & SCU_CLK_SYSCLKCR_SYSDIV_Msk) + 1);
 8004380:	4a0c      	ldr	r2, [pc, #48]	; (80043b4 <SystemCoreClockUpdate+0x74>)
  SystemCoreClock = temp;
 8004382:	490f      	ldr	r1, [pc, #60]	; (80043c0 <SystemCoreClockUpdate+0x80>)
  temp = temp / ((SCU_CLK->SYSCLKCR & SCU_CLK_SYSCLKCR_SYSDIV_Msk) + 1);
 8004384:	68d0      	ldr	r0, [r2, #12]
  temp = temp / ((SCU_CLK->CPUCLKCR & SCU_CLK_CPUCLKCR_CPUDIV_Msk) + 1);
 8004386:	6912      	ldr	r2, [r2, #16]
  temp = temp / ((SCU_CLK->SYSCLKCR & SCU_CLK_SYSCLKCR_SYSDIV_Msk) + 1);
 8004388:	b2c0      	uxtb	r0, r0
  temp = temp / ((SCU_CLK->CPUCLKCR & SCU_CLK_CPUCLKCR_CPUDIV_Msk) + 1);
 800438a:	f002 0201 	and.w	r2, r2, #1
  temp = temp / ((SCU_CLK->SYSCLKCR & SCU_CLK_SYSCLKCR_SYSDIV_Msk) + 1);
 800438e:	3001      	adds	r0, #1
  temp = temp / ((SCU_CLK->CPUCLKCR & SCU_CLK_CPUCLKCR_CPUDIV_Msk) + 1);
 8004390:	3201      	adds	r2, #1
  temp = temp / ((SCU_CLK->SYSCLKCR & SCU_CLK_SYSCLKCR_SYSDIV_Msk) + 1);
 8004392:	fbb3 f3f0 	udiv	r3, r3, r0
  temp = temp / ((SCU_CLK->CPUCLKCR & SCU_CLK_CPUCLKCR_CPUDIV_Msk) + 1);
 8004396:	fbb3 f3f2 	udiv	r3, r3, r2
  SystemCoreClock = temp;
 800439a:	600b      	str	r3, [r1, #0]
}
 800439c:	bd10      	pop	{r4, pc}
      kdiv  = ((SCU_PLL->PLLCON1 & SCU_PLL_PLLCON1_K1DIV_Msk) >> SCU_PLL_PLLCON1_K1DIV_Pos) + 1;
 800439e:	698b      	ldr	r3, [r1, #24]
 80043a0:	f003 037f 	and.w	r3, r3, #127	; 0x7f
 80043a4:	3301      	adds	r3, #1
      temp = (temp / kdiv);
 80043a6:	fbb0 f3f3 	udiv	r3, r0, r3
 80043aa:	e7e9      	b.n	8004380 <SystemCoreClockUpdate+0x40>
      temp = OSCHP_GetFrequency();
 80043ac:	f7ff ffc4 	bl	8004338 <OSCHP_GetFrequency>
 80043b0:	e7d0      	b.n	8004354 <SystemCoreClockUpdate+0x14>
 80043b2:	bf00      	nop
 80043b4:	50004600 	.word	0x50004600
 80043b8:	50004700 	.word	0x50004700
 80043bc:	016e3600 	.word	0x016e3600
 80043c0:	2000ffc0 	.word	0x2000ffc0

080043c4 <SystemCoreClockSetup>:
{
 80043c4:	b510      	push	{r4, lr}
  if((SCU_POWER->PWRSTAT & SCU_POWER_PWRSTAT_HIBEN_Msk) == 0)
 80043c6:	4a6c      	ldr	r2, [pc, #432]	; (8004578 <SystemCoreClockSetup+0x1b4>)
 80043c8:	6813      	ldr	r3, [r2, #0]
 80043ca:	07d8      	lsls	r0, r3, #31
{
 80043cc:	b086      	sub	sp, #24
  if((SCU_POWER->PWRSTAT & SCU_POWER_PWRSTAT_HIBEN_Msk) == 0)
 80043ce:	d406      	bmi.n	80043de <SystemCoreClockSetup+0x1a>
    SCU_POWER->PWRSET |= SCU_POWER_PWRSET_HIB_Msk;
 80043d0:	6853      	ldr	r3, [r2, #4]
 80043d2:	f043 0301 	orr.w	r3, r3, #1
 80043d6:	6053      	str	r3, [r2, #4]
    while((SCU_POWER->PWRSTAT & SCU_POWER_PWRSTAT_HIBEN_Msk) == 0)
 80043d8:	6813      	ldr	r3, [r2, #0]
 80043da:	07d9      	lsls	r1, r3, #31
 80043dc:	d5fc      	bpl.n	80043d8 <SystemCoreClockSetup+0x14>
  if((SCU_RESET->RSTSTAT) & SCU_RESET_RSTSTAT_HIBRS_Msk)
 80043de:	4b67      	ldr	r3, [pc, #412]	; (800457c <SystemCoreClockSetup+0x1b8>)
 80043e0:	681a      	ldr	r2, [r3, #0]
 80043e2:	0592      	lsls	r2, r2, #22
 80043e4:	d511      	bpl.n	800440a <SystemCoreClockSetup+0x46>
    SCU_RESET->RSTCLR |= SCU_RESET_RSTCLR_HIBRS_Msk;
 80043e6:	689a      	ldr	r2, [r3, #8]
  for(i = 0UL; i < cycles ;++i)
 80043e8:	2100      	movs	r1, #0
    SCU_RESET->RSTCLR |= SCU_RESET_RSTCLR_HIBRS_Msk;
 80043ea:	f442 7200 	orr.w	r2, r2, #512	; 0x200
 80043ee:	609a      	str	r2, [r3, #8]
  for(i = 0UL; i < cycles ;++i)
 80043f0:	9101      	str	r1, [sp, #4]
 80043f2:	9b01      	ldr	r3, [sp, #4]
 80043f4:	f641 524b 	movw	r2, #7499	; 0x1d4b
 80043f8:	4293      	cmp	r3, r2
 80043fa:	d806      	bhi.n	800440a <SystemCoreClockSetup+0x46>
    __NOP();
 80043fc:	bf00      	nop
  for(i = 0UL; i < cycles ;++i)
 80043fe:	9b01      	ldr	r3, [sp, #4]
 8004400:	3301      	adds	r3, #1
 8004402:	9301      	str	r3, [sp, #4]
 8004404:	9b01      	ldr	r3, [sp, #4]
 8004406:	4293      	cmp	r3, r2
 8004408:	d9f8      	bls.n	80043fc <SystemCoreClockSetup+0x38>
  SCU_PLL->PLLCON0 |= SCU_PLL_PLLCON0_AOTREN_Msk;
 800440a:	495d      	ldr	r1, [pc, #372]	; (8004580 <SystemCoreClockSetup+0x1bc>)
 800440c:	694b      	ldr	r3, [r1, #20]
  for(i = 0UL; i < cycles ;++i)
 800440e:	2000      	movs	r0, #0
  SCU_PLL->PLLCON0 |= SCU_PLL_PLLCON0_AOTREN_Msk;
 8004410:	f443 2300 	orr.w	r3, r3, #524288	; 0x80000
 8004414:	614b      	str	r3, [r1, #20]
  for(i = 0UL; i < cycles ;++i)
 8004416:	9002      	str	r0, [sp, #8]
 8004418:	9b02      	ldr	r3, [sp, #8]
 800441a:	f640 12c3 	movw	r2, #2499	; 0x9c3
 800441e:	4293      	cmp	r3, r2
 8004420:	d806      	bhi.n	8004430 <SystemCoreClockSetup+0x6c>
    __NOP();
 8004422:	bf00      	nop
  for(i = 0UL; i < cycles ;++i)
 8004424:	9b02      	ldr	r3, [sp, #8]
 8004426:	3301      	adds	r3, #1
 8004428:	9302      	str	r3, [sp, #8]
 800442a:	9b02      	ldr	r3, [sp, #8]
 800442c:	4293      	cmp	r3, r2
 800442e:	d9f8      	bls.n	8004422 <SystemCoreClockSetup+0x5e>
  SCU_PLL->PLLCON0 &= ~(SCU_PLL_PLLCON0_VCOPWD_Msk | SCU_PLL_PLLCON0_PLLPWD_Msk);
 8004430:	4c53      	ldr	r4, [pc, #332]	; (8004580 <SystemCoreClockSetup+0x1bc>)
 8004432:	6963      	ldr	r3, [r4, #20]
 8004434:	f423 3380 	bic.w	r3, r3, #65536	; 0x10000
 8004438:	f023 0302 	bic.w	r3, r3, #2
 800443c:	6163      	str	r3, [r4, #20]
  if ((SCU_OSC->OSCHPCTRL & SCU_OSC_OSCHPCTRL_MODE_Msk) != 0U)
 800443e:	6863      	ldr	r3, [r4, #4]
 8004440:	f013 0f30 	tst.w	r3, #48	; 0x30
 8004444:	d177      	bne.n	8004536 <SystemCoreClockSetup+0x172>
  SCU_PLL->PLLCON0 |= SCU_PLL_PLLCON0_VCOBYP_Msk;
 8004446:	4b4e      	ldr	r3, [pc, #312]	; (8004580 <SystemCoreClockSetup+0x1bc>)
  SCU_PLL->PLLCON1 = ((PLL_NDIV << SCU_PLL_PLLCON1_NDIV_Pos) |
 8004448:	494e      	ldr	r1, [pc, #312]	; (8004584 <SystemCoreClockSetup+0x1c0>)
  SCU_PLL->PLLCON0 |= SCU_PLL_PLLCON0_VCOBYP_Msk;
 800444a:	695a      	ldr	r2, [r3, #20]
 800444c:	f042 0201 	orr.w	r2, r2, #1
 8004450:	615a      	str	r2, [r3, #20]
  SCU_PLL->PLLCON0 |= SCU_PLL_PLLCON0_FINDIS_Msk;
 8004452:	695a      	ldr	r2, [r3, #20]
 8004454:	f042 0210 	orr.w	r2, r2, #16
 8004458:	615a      	str	r2, [r3, #20]
  SCU_PLL->PLLCON1 = ((PLL_NDIV << SCU_PLL_PLLCON1_NDIV_Pos) |
 800445a:	6199      	str	r1, [r3, #24]
  SCU_PLL->PLLCON0 |= SCU_PLL_PLLCON0_OSCDISCDIS_Msk;
 800445c:	695a      	ldr	r2, [r3, #20]
 800445e:	f042 0240 	orr.w	r2, r2, #64	; 0x40
 8004462:	615a      	str	r2, [r3, #20]
  SCU_PLL->PLLCON0 &= ~SCU_PLL_PLLCON0_FINDIS_Msk;
 8004464:	695a      	ldr	r2, [r3, #20]
 8004466:	f022 0210 	bic.w	r2, r2, #16
 800446a:	615a      	str	r2, [r3, #20]
  SCU_PLL->PLLCON0 |= SCU_PLL_PLLCON0_RESLD_Msk;
 800446c:	695a      	ldr	r2, [r3, #20]
 800446e:	f442 2280 	orr.w	r2, r2, #262144	; 0x40000
 8004472:	615a      	str	r2, [r3, #20]
  while ((SCU_PLL->PLLSTAT & SCU_PLL_PLLSTAT_VCOLOCK_Msk) == 0U)
 8004474:	691a      	ldr	r2, [r3, #16]
 8004476:	0754      	lsls	r4, r2, #29
 8004478:	d5fc      	bpl.n	8004474 <SystemCoreClockSetup+0xb0>
  SCU_PLL->PLLCON0 &= ~SCU_PLL_PLLCON0_VCOBYP_Msk;
 800447a:	6959      	ldr	r1, [r3, #20]
  while ((SCU_PLL->PLLSTAT & SCU_PLL_PLLSTAT_VCOBYST_Msk) != 0U)
 800447c:	4a40      	ldr	r2, [pc, #256]	; (8004580 <SystemCoreClockSetup+0x1bc>)
  SCU_PLL->PLLCON0 &= ~SCU_PLL_PLLCON0_VCOBYP_Msk;
 800447e:	f021 0101 	bic.w	r1, r1, #1
 8004482:	6159      	str	r1, [r3, #20]
  while ((SCU_PLL->PLLSTAT & SCU_PLL_PLLSTAT_VCOBYST_Msk) != 0U)
 8004484:	6913      	ldr	r3, [r2, #16]
 8004486:	f013 0301 	ands.w	r3, r3, #1
 800448a:	d1fb      	bne.n	8004484 <SystemCoreClockSetup+0xc0>
  SCU_CLK->SYSCLKCR |= SCU_CLK_SYSCLKCR_SYSSEL_Msk;
 800448c:	493e      	ldr	r1, [pc, #248]	; (8004588 <SystemCoreClockSetup+0x1c4>)
 800448e:	68c8      	ldr	r0, [r1, #12]
  SCU_CLK->USBCLKCR = USBCLKDIV;
 8004490:	2403      	movs	r4, #3
  SCU_CLK->SYSCLKCR |= SCU_CLK_SYSCLKCR_SYSSEL_Msk;
 8004492:	f440 3080 	orr.w	r0, r0, #65536	; 0x10000
 8004496:	60c8      	str	r0, [r1, #12]
  SCU_CLK->PBCLKCR = PBCLKDIV;
 8004498:	614b      	str	r3, [r1, #20]
  SCU_CLK->CPUCLKCR = CPUCLKDIV;
 800449a:	610b      	str	r3, [r1, #16]
  SCU_CLK->CCUCLKCR = CCUCLKDIV;
 800449c:	620b      	str	r3, [r1, #32]
  SCU_CLK->WDTCLKCR = WDTCLKDIV;
 800449e:	624b      	str	r3, [r1, #36]	; 0x24
  SCU_CLK->EBUCLKCR = EBUCLKDIV;
 80044a0:	61cb      	str	r3, [r1, #28]
  SCU_CLK->USBCLKCR = USBCLKDIV;
 80044a2:	618c      	str	r4, [r1, #24]
  SCU_PLL->PLLCON0 &= ~SCU_PLL_PLLCON0_OSCDISCDIS_Msk;
 80044a4:	6951      	ldr	r1, [r2, #20]
  SCU_PLL->PLLCON1 = ((PLL_NDIV << SCU_PLL_PLLCON1_NDIV_Pos) |
 80044a6:	4839      	ldr	r0, [pc, #228]	; (800458c <SystemCoreClockSetup+0x1c8>)
  SCU_PLL->PLLCON0 &= ~SCU_PLL_PLLCON0_OSCDISCDIS_Msk;
 80044a8:	f021 0140 	bic.w	r1, r1, #64	; 0x40
 80044ac:	6151      	str	r1, [r2, #20]
  SCU_PLL->PLLCON1 = ((PLL_NDIV << SCU_PLL_PLLCON1_NDIV_Pos) |
 80044ae:	6190      	str	r0, [r2, #24]
  for(i = 0UL; i < cycles ;++i)
 80044b0:	9303      	str	r3, [sp, #12]
 80044b2:	9b03      	ldr	r3, [sp, #12]
 80044b4:	f640 32b7 	movw	r2, #2999	; 0xbb7
 80044b8:	4293      	cmp	r3, r2
 80044ba:	d806      	bhi.n	80044ca <SystemCoreClockSetup+0x106>
    __NOP();
 80044bc:	bf00      	nop
  for(i = 0UL; i < cycles ;++i)
 80044be:	9b03      	ldr	r3, [sp, #12]
 80044c0:	3301      	adds	r3, #1
 80044c2:	9303      	str	r3, [sp, #12]
 80044c4:	9b03      	ldr	r3, [sp, #12]
 80044c6:	4293      	cmp	r3, r2
 80044c8:	d9f8      	bls.n	80044bc <SystemCoreClockSetup+0xf8>
  while ((SCU_PLL->PLLSTAT & SCU_PLL_PLLSTAT_VCOLOCK_Msk) == 0U)
 80044ca:	4a2d      	ldr	r2, [pc, #180]	; (8004580 <SystemCoreClockSetup+0x1bc>)
 80044cc:	6913      	ldr	r3, [r2, #16]
 80044ce:	0758      	lsls	r0, r3, #29
 80044d0:	d5fc      	bpl.n	80044cc <SystemCoreClockSetup+0x108>
  for(i = 0UL; i < cycles ;++i)
 80044d2:	2300      	movs	r3, #0
  SCU_PLL->PLLCON1 = ((PLL_NDIV << SCU_PLL_PLLCON1_NDIV_Pos) |
 80044d4:	492e      	ldr	r1, [pc, #184]	; (8004590 <SystemCoreClockSetup+0x1cc>)
 80044d6:	6191      	str	r1, [r2, #24]
  for(i = 0UL; i < cycles ;++i)
 80044d8:	9304      	str	r3, [sp, #16]
 80044da:	9b04      	ldr	r3, [sp, #16]
 80044dc:	f241 1293 	movw	r2, #4499	; 0x1193
 80044e0:	4293      	cmp	r3, r2
 80044e2:	d806      	bhi.n	80044f2 <SystemCoreClockSetup+0x12e>
    __NOP();
 80044e4:	bf00      	nop
  for(i = 0UL; i < cycles ;++i)
 80044e6:	9b04      	ldr	r3, [sp, #16]
 80044e8:	3301      	adds	r3, #1
 80044ea:	9304      	str	r3, [sp, #16]
 80044ec:	9b04      	ldr	r3, [sp, #16]
 80044ee:	4293      	cmp	r3, r2
 80044f0:	d9f8      	bls.n	80044e4 <SystemCoreClockSetup+0x120>
  while ((SCU_PLL->PLLSTAT & SCU_PLL_PLLSTAT_VCOLOCK_Msk) == 0U)
 80044f2:	4a23      	ldr	r2, [pc, #140]	; (8004580 <SystemCoreClockSetup+0x1bc>)
 80044f4:	6913      	ldr	r3, [r2, #16]
 80044f6:	0759      	lsls	r1, r3, #29
 80044f8:	d5fc      	bpl.n	80044f4 <SystemCoreClockSetup+0x130>
  for(i = 0UL; i < cycles ;++i)
 80044fa:	2300      	movs	r3, #0
  SCU_PLL->PLLCON1 = ((PLL_NDIV << SCU_PLL_PLLCON1_NDIV_Pos) |
 80044fc:	4925      	ldr	r1, [pc, #148]	; (8004594 <SystemCoreClockSetup+0x1d0>)
 80044fe:	6191      	str	r1, [r2, #24]
  for(i = 0UL; i < cycles ;++i)
 8004500:	9305      	str	r3, [sp, #20]
 8004502:	9b05      	ldr	r3, [sp, #20]
 8004504:	f241 726f 	movw	r2, #5999	; 0x176f
 8004508:	4293      	cmp	r3, r2
 800450a:	d806      	bhi.n	800451a <SystemCoreClockSetup+0x156>
    __NOP();
 800450c:	bf00      	nop
  for(i = 0UL; i < cycles ;++i)
 800450e:	9b05      	ldr	r3, [sp, #20]
 8004510:	3301      	adds	r3, #1
 8004512:	9305      	str	r3, [sp, #20]
 8004514:	9b05      	ldr	r3, [sp, #20]
 8004516:	4293      	cmp	r3, r2
 8004518:	d9f8      	bls.n	800450c <SystemCoreClockSetup+0x148>
  while ((SCU_PLL->PLLSTAT & SCU_PLL_PLLSTAT_VCOLOCK_Msk) == 0U)
 800451a:	4a19      	ldr	r2, [pc, #100]	; (8004580 <SystemCoreClockSetup+0x1bc>)
 800451c:	6913      	ldr	r3, [r2, #16]
 800451e:	075b      	lsls	r3, r3, #29
 8004520:	d5fc      	bpl.n	800451c <SystemCoreClockSetup+0x158>
  SCU_TRAP->TRAPCLR = SCU_TRAP_TRAPCLR_SOSCWDGT_Msk | SCU_TRAP_TRAPCLR_SVCOLCKT_Msk;
 8004522:	491d      	ldr	r1, [pc, #116]	; (8004598 <SystemCoreClockSetup+0x1d4>)
  SCU_CLK->CLKSET = ENABLE_SCUCLK;
 8004524:	4b18      	ldr	r3, [pc, #96]	; (8004588 <SystemCoreClockSetup+0x1c4>)
  SCU_TRAP->TRAPCLR = SCU_TRAP_TRAPCLR_SOSCWDGT_Msk | SCU_TRAP_TRAPCLR_SVCOLCKT_Msk;
 8004526:	2005      	movs	r0, #5
  SCU_CLK->CLKSET = ENABLE_SCUCLK;
 8004528:	2200      	movs	r2, #0
  SCU_TRAP->TRAPCLR = SCU_TRAP_TRAPCLR_SOSCWDGT_Msk | SCU_TRAP_TRAPCLR_SVCOLCKT_Msk;
 800452a:	66c8      	str	r0, [r1, #108]	; 0x6c
  SCU_CLK->CLKSET = ENABLE_SCUCLK;
 800452c:	605a      	str	r2, [r3, #4]
  SystemCoreClockUpdate();
 800452e:	f7ff ff07 	bl	8004340 <SystemCoreClockUpdate>
}
 8004532:	b006      	add	sp, #24
 8004534:	bd10      	pop	{r4, pc}
    SCU_OSC->OSCHPCTRL &= ~(SCU_OSC_OSCHPCTRL_MODE_Msk | SCU_OSC_OSCHPCTRL_OSCVAL_Msk);
 8004536:	6863      	ldr	r3, [r4, #4]
 8004538:	f423 2370 	bic.w	r3, r3, #983040	; 0xf0000
 800453c:	f023 0330 	bic.w	r3, r3, #48	; 0x30
 8004540:	6063      	str	r3, [r4, #4]
    SCU_OSC->OSCHPCTRL |= ((OSCHP_GetFrequency() / FOSCREF) - 1UL) << SCU_OSC_OSCHPCTRL_OSCVAL_Pos;
 8004542:	f7ff fef9 	bl	8004338 <OSCHP_GetFrequency>
 8004546:	4b15      	ldr	r3, [pc, #84]	; (800459c <SystemCoreClockSetup+0x1d8>)
 8004548:	fba3 2300 	umull	r2, r3, r3, r0
 800454c:	0d1b      	lsrs	r3, r3, #20
 800454e:	6862      	ldr	r2, [r4, #4]
 8004550:	3b01      	subs	r3, #1
 8004552:	ea42 4303 	orr.w	r3, r2, r3, lsl #16
 8004556:	6063      	str	r3, [r4, #4]
    SCU_PLL->PLLCON2 &= ~SCU_PLL_PLLCON2_PINSEL_Msk;
 8004558:	69e3      	ldr	r3, [r4, #28]
 800455a:	f023 0301 	bic.w	r3, r3, #1
 800455e:	61e3      	str	r3, [r4, #28]
    SCU_PLL->PLLCON0 &= ~SCU_PLL_PLLCON0_OSCRES_Msk;
 8004560:	6963      	ldr	r3, [r4, #20]
 8004562:	f423 3300 	bic.w	r3, r3, #131072	; 0x20000
 8004566:	6163      	str	r3, [r4, #20]
    while ((SCU_PLL->PLLSTAT & SCU_PLL_PLLSTAT_OSC_USABLE) != SCU_PLL_PLLSTAT_OSC_USABLE)
 8004568:	6923      	ldr	r3, [r4, #16]
 800456a:	f403 7360 	and.w	r3, r3, #896	; 0x380
 800456e:	f5b3 7f60 	cmp.w	r3, #896	; 0x380
 8004572:	d1f9      	bne.n	8004568 <SystemCoreClockSetup+0x1a4>
 8004574:	e767      	b.n	8004446 <SystemCoreClockSetup+0x82>
 8004576:	bf00      	nop
 8004578:	50004200 	.word	0x50004200
 800457c:	50004400 	.word	0x50004400
 8004580:	50004700 	.word	0x50004700
 8004584:	01134f00 	.word	0x01134f00
 8004588:	50004600 	.word	0x50004600
 800458c:	01074f00 	.word	0x01074f00
 8004590:	01044f00 	.word	0x01044f00
 8004594:	01034f00 	.word	0x01034f00
 8004598:	50004100 	.word	0x50004100
 800459c:	6b5fca6b 	.word	0x6b5fca6b

080045a0 <SystemInit>:
{
 80045a0:	b510      	push	{r4, lr}
  memcpy(g_chipid, CHIPID_LOC, 16);
 80045a2:	f04f 5300 	mov.w	r3, #536870912	; 0x20000000
 80045a6:	cb0f      	ldmia	r3, {r0, r1, r2, r3}
 80045a8:	4c03      	ldr	r4, [pc, #12]	; (80045b8 <SystemInit+0x18>)
 80045aa:	e884 000f 	stmia.w	r4, {r0, r1, r2, r3}
  SystemCoreSetup();
 80045ae:	f7ff fea3 	bl	80042f8 <SystemCoreSetup>
  SystemCoreClockSetup(); 
 80045b2:	f7ff ff07 	bl	80043c4 <SystemCoreClockSetup>
}
 80045b6:	bd10      	pop	{r4, pc}
 80045b8:	2000ffc4 	.word	0x2000ffc4

080045bc <_sbrk>:
caddr_t _sbrk(int nbytes)
{
  static caddr_t heap_ptr = NULL;
  caddr_t base;

  if (heap_ptr == NULL) {
 80045bc:	4a0b      	ldr	r2, [pc, #44]	; (80045ec <_sbrk+0x30>)
{
 80045be:	b508      	push	{r3, lr}
 80045c0:	4603      	mov	r3, r0
  if (heap_ptr == NULL) {
 80045c2:	6810      	ldr	r0, [r2, #0]
 80045c4:	b178      	cbz	r0, 80045e6 <_sbrk+0x2a>
  }

  base = heap_ptr;

  /* heap word alignment */
  nbytes = (nbytes + 3) & ~0x3U;
 80045c6:	3303      	adds	r3, #3
  if ((caddr_t)&Heap_Bank1_End > (heap_ptr + nbytes))
 80045c8:	4909      	ldr	r1, [pc, #36]	; (80045f0 <_sbrk+0x34>)
  nbytes = (nbytes + 3) & ~0x3U;
 80045ca:	f023 0303 	bic.w	r3, r3, #3
  if ((caddr_t)&Heap_Bank1_End > (heap_ptr + nbytes))
 80045ce:	4403      	add	r3, r0
 80045d0:	428b      	cmp	r3, r1
 80045d2:	d201      	bcs.n	80045d8 <_sbrk+0x1c>
  {
    heap_ptr += nbytes;
 80045d4:	6013      	str	r3, [r2, #0]
  {
    /* Heap overflow */
    errno = ENOMEM;
    return ((caddr_t)-1);
  }
}
 80045d6:	bd08      	pop	{r3, pc}
    errno = ENOMEM;
 80045d8:	f000 f810 	bl	80045fc <__errno>
 80045dc:	230c      	movs	r3, #12
 80045de:	6003      	str	r3, [r0, #0]
    return ((caddr_t)-1);
 80045e0:	f04f 30ff 	mov.w	r0, #4294967295	; 0xffffffff
}
 80045e4:	bd08      	pop	{r3, pc}
    heap_ptr = (caddr_t)&Heap_Bank1_Start;
 80045e6:	4803      	ldr	r0, [pc, #12]	; (80045f4 <_sbrk+0x38>)
 80045e8:	6010      	str	r0, [r2, #0]
 80045ea:	e7ec      	b.n	80045c6 <_sbrk+0xa>
 80045ec:	20000b50 	.word	0x20000b50
 80045f0:	2000ffc0 	.word	0x2000ffc0
 80045f4:	20000b58 	.word	0x20000b58

080045f8 <_init>:

/* Init */
void _init(void)
{}
 80045f8:	4770      	bx	lr
 80045fa:	bf00      	nop

080045fc <__errno>:
 80045fc:	4b01      	ldr	r3, [pc, #4]	; (8004604 <__errno+0x8>)
 80045fe:	6818      	ldr	r0, [r3, #0]
 8004600:	4770      	bx	lr
 8004602:	bf00      	nop
 8004604:	20000030 	.word	0x20000030

08004608 <__libc_init_array>:
 8004608:	b570      	push	{r4, r5, r6, lr}
 800460a:	4e0d      	ldr	r6, [pc, #52]	; (8004640 <__libc_init_array+0x38>)
 800460c:	4d0d      	ldr	r5, [pc, #52]	; (8004644 <__libc_init_array+0x3c>)
 800460e:	1b76      	subs	r6, r6, r5
 8004610:	10b6      	asrs	r6, r6, #2
 8004612:	d006      	beq.n	8004622 <__libc_init_array+0x1a>
 8004614:	2400      	movs	r4, #0
 8004616:	f855 3b04 	ldr.w	r3, [r5], #4
 800461a:	3401      	adds	r4, #1
 800461c:	4798      	blx	r3
 800461e:	42a6      	cmp	r6, r4
 8004620:	d1f9      	bne.n	8004616 <__libc_init_array+0xe>
 8004622:	4e09      	ldr	r6, [pc, #36]	; (8004648 <__libc_init_array+0x40>)
 8004624:	4d09      	ldr	r5, [pc, #36]	; (800464c <__libc_init_array+0x44>)
 8004626:	1b76      	subs	r6, r6, r5
 8004628:	f7ff ffe6 	bl	80045f8 <_init>
 800462c:	10b6      	asrs	r6, r6, #2
 800462e:	d006      	beq.n	800463e <__libc_init_array+0x36>
 8004630:	2400      	movs	r4, #0
 8004632:	f855 3b04 	ldr.w	r3, [r5], #4
 8004636:	3401      	adds	r4, #1
 8004638:	4798      	blx	r3
 800463a:	42a6      	cmp	r6, r4
 800463c:	d1f9      	bne.n	8004632 <__libc_init_array+0x2a>
 800463e:	bd70      	pop	{r4, r5, r6, pc}
 8004640:	20000460 	.word	0x20000460
 8004644:	20000460 	.word	0x20000460
 8004648:	20000460 	.word	0x20000460
 800464c:	20000460 	.word	0x20000460

08004650 <memcpy>:
 8004650:	4684      	mov	ip, r0
 8004652:	ea41 0300 	orr.w	r3, r1, r0
 8004656:	f013 0303 	ands.w	r3, r3, #3
 800465a:	d16d      	bne.n	8004738 <memcpy+0xe8>
 800465c:	3a40      	subs	r2, #64	; 0x40
 800465e:	d341      	bcc.n	80046e4 <memcpy+0x94>
 8004660:	f851 3b04 	ldr.w	r3, [r1], #4
 8004664:	f840 3b04 	str.w	r3, [r0], #4
 8004668:	f851 3b04 	ldr.w	r3, [r1], #4
 800466c:	f840 3b04 	str.w	r3, [r0], #4
 8004670:	f851 3b04 	ldr.w	r3, [r1], #4
 8004674:	f840 3b04 	str.w	r3, [r0], #4
 8004678:	f851 3b04 	ldr.w	r3, [r1], #4
 800467c:	f840 3b04 	str.w	r3, [r0], #4
 8004680:	f851 3b04 	ldr.w	r3, [r1], #4
 8004684:	f840 3b04 	str.w	r3, [r0], #4
 8004688:	f851 3b04 	ldr.w	r3, [r1], #4
 800468c:	f840 3b04 	str.w	r3, [r0], #4
 8004690:	f851 3b04 	ldr.w	r3, [r1], #4
 8004694:	f840 3b04 	str.w	r3, [r0], #4
 8004698:	f851 3b04 	ldr.w	r3, [r1], #4
 800469c:	f840 3b04 	str.w	r3, [r0], #4
 80046a0:	f851 3b04 	ldr.w	r3, [r1], #4
 80046a4:	f840 3b04 	str.w	r3, [r0], #4
 80046a8:	f851 3b04 	ldr.w	r3, [r1], #4
 80046ac:	f840 3b04 	str.w	r3, [r0], #4
 80046b0:	f851 3b04 	ldr.w	r3, [r1], #4
 80046b4:	f840 3b04 	str.w	r3, [r0], #4
 80046b8:	f851 3b04 	ldr.w	r3, [r1], #4
 80046bc:	f840 3b04 	str.w	r3, [r0], #4
 80046c0:	f851 3b04 	ldr.w	r3, [r1], #4
 80046c4:	f840 3b04 	str.w	r3, [r0], #4
 80046c8:	f851 3b04 	ldr.w	r3, [r1], #4
 80046cc:	f840 3b04 	str.w	r3, [r0], #4
 80046d0:	f851 3b04 	ldr.w	r3, [r1], #4
 80046d4:	f840 3b04 	str.w	r3, [r0], #4
 80046d8:	f851 3b04 	ldr.w	r3, [r1], #4
 80046dc:	f840 3b04 	str.w	r3, [r0], #4
 80046e0:	3a40      	subs	r2, #64	; 0x40
 80046e2:	d2bd      	bcs.n	8004660 <memcpy+0x10>
 80046e4:	3230      	adds	r2, #48	; 0x30
 80046e6:	d311      	bcc.n	800470c <memcpy+0xbc>
 80046e8:	f851 3b04 	ldr.w	r3, [r1], #4
 80046ec:	f840 3b04 	str.w	r3, [r0], #4
 80046f0:	f851 3b04 	ldr.w	r3, [r1], #4
 80046f4:	f840 3b04 	str.w	r3, [r0], #4
 80046f8:	f851 3b04 	ldr.w	r3, [r1], #4
 80046fc:	f840 3b04 	str.w	r3, [r0], #4
 8004700:	f851 3b04 	ldr.w	r3, [r1], #4
 8004704:	f840 3b04 	str.w	r3, [r0], #4
 8004708:	3a10      	subs	r2, #16
 800470a:	d2ed      	bcs.n	80046e8 <memcpy+0x98>
 800470c:	320c      	adds	r2, #12
 800470e:	d305      	bcc.n	800471c <memcpy+0xcc>
 8004710:	f851 3b04 	ldr.w	r3, [r1], #4
 8004714:	f840 3b04 	str.w	r3, [r0], #4
 8004718:	3a04      	subs	r2, #4
 800471a:	d2f9      	bcs.n	8004710 <memcpy+0xc0>
 800471c:	3204      	adds	r2, #4
 800471e:	d008      	beq.n	8004732 <memcpy+0xe2>
 8004720:	07d2      	lsls	r2, r2, #31
 8004722:	bf1c      	itt	ne
 8004724:	f811 3b01 	ldrbne.w	r3, [r1], #1
 8004728:	f800 3b01 	strbne.w	r3, [r0], #1
 800472c:	d301      	bcc.n	8004732 <memcpy+0xe2>
 800472e:	880b      	ldrh	r3, [r1, #0]
 8004730:	8003      	strh	r3, [r0, #0]
 8004732:	4660      	mov	r0, ip
 8004734:	4770      	bx	lr
 8004736:	bf00      	nop
 8004738:	2a08      	cmp	r2, #8
 800473a:	d313      	bcc.n	8004764 <memcpy+0x114>
 800473c:	078b      	lsls	r3, r1, #30
 800473e:	d08d      	beq.n	800465c <memcpy+0xc>
 8004740:	f010 0303 	ands.w	r3, r0, #3
 8004744:	d08a      	beq.n	800465c <memcpy+0xc>
 8004746:	f1c3 0304 	rsb	r3, r3, #4
 800474a:	1ad2      	subs	r2, r2, r3
 800474c:	07db      	lsls	r3, r3, #31
 800474e:	bf1c      	itt	ne
 8004750:	f811 3b01 	ldrbne.w	r3, [r1], #1
 8004754:	f800 3b01 	strbne.w	r3, [r0], #1
 8004758:	d380      	bcc.n	800465c <memcpy+0xc>
 800475a:	f831 3b02 	ldrh.w	r3, [r1], #2
 800475e:	f820 3b02 	strh.w	r3, [r0], #2
 8004762:	e77b      	b.n	800465c <memcpy+0xc>
 8004764:	3a04      	subs	r2, #4
 8004766:	d3d9      	bcc.n	800471c <memcpy+0xcc>
 8004768:	3a01      	subs	r2, #1
 800476a:	f811 3b01 	ldrb.w	r3, [r1], #1
 800476e:	f800 3b01 	strb.w	r3, [r0], #1
 8004772:	d2f9      	bcs.n	8004768 <memcpy+0x118>
 8004774:	780b      	ldrb	r3, [r1, #0]
 8004776:	7003      	strb	r3, [r0, #0]
 8004778:	784b      	ldrb	r3, [r1, #1]
 800477a:	7043      	strb	r3, [r0, #1]
 800477c:	788b      	ldrb	r3, [r1, #2]
 800477e:	7083      	strb	r3, [r0, #2]
 8004780:	4660      	mov	r0, ip
 8004782:	4770      	bx	lr

08004784 <memset>:
 8004784:	0783      	lsls	r3, r0, #30
 8004786:	b530      	push	{r4, r5, lr}
 8004788:	d048      	beq.n	800481c <memset+0x98>
 800478a:	1e54      	subs	r4, r2, #1
 800478c:	2a00      	cmp	r2, #0
 800478e:	d03f      	beq.n	8004810 <memset+0x8c>
 8004790:	b2ca      	uxtb	r2, r1
 8004792:	4603      	mov	r3, r0
 8004794:	e001      	b.n	800479a <memset+0x16>
 8004796:	3c01      	subs	r4, #1
 8004798:	d33a      	bcc.n	8004810 <memset+0x8c>
 800479a:	f803 2b01 	strb.w	r2, [r3], #1
 800479e:	079d      	lsls	r5, r3, #30
 80047a0:	d1f9      	bne.n	8004796 <memset+0x12>
 80047a2:	2c03      	cmp	r4, #3
 80047a4:	d92d      	bls.n	8004802 <memset+0x7e>
 80047a6:	b2cd      	uxtb	r5, r1
 80047a8:	ea45 2505 	orr.w	r5, r5, r5, lsl #8
 80047ac:	2c0f      	cmp	r4, #15
 80047ae:	ea45 4505 	orr.w	r5, r5, r5, lsl #16
 80047b2:	d936      	bls.n	8004822 <memset+0x9e>
 80047b4:	f1a4 0210 	sub.w	r2, r4, #16
 80047b8:	f022 0c0f 	bic.w	ip, r2, #15
 80047bc:	f103 0e20 	add.w	lr, r3, #32
 80047c0:	44e6      	add	lr, ip
 80047c2:	ea4f 1c12 	mov.w	ip, r2, lsr #4
 80047c6:	f103 0210 	add.w	r2, r3, #16
 80047ca:	e942 5504 	strd	r5, r5, [r2, #-16]
 80047ce:	e942 5502 	strd	r5, r5, [r2, #-8]
 80047d2:	3210      	adds	r2, #16
 80047d4:	4572      	cmp	r2, lr
 80047d6:	d1f8      	bne.n	80047ca <memset+0x46>
 80047d8:	f10c 0201 	add.w	r2, ip, #1
 80047dc:	f014 0f0c 	tst.w	r4, #12
 80047e0:	eb03 1202 	add.w	r2, r3, r2, lsl #4
 80047e4:	f004 0c0f 	and.w	ip, r4, #15
 80047e8:	d013      	beq.n	8004812 <memset+0x8e>
 80047ea:	f1ac 0304 	sub.w	r3, ip, #4
 80047ee:	f023 0303 	bic.w	r3, r3, #3
 80047f2:	3304      	adds	r3, #4
 80047f4:	4413      	add	r3, r2
 80047f6:	f842 5b04 	str.w	r5, [r2], #4
 80047fa:	4293      	cmp	r3, r2
 80047fc:	d1fb      	bne.n	80047f6 <memset+0x72>
 80047fe:	f00c 0403 	and.w	r4, ip, #3
 8004802:	b12c      	cbz	r4, 8004810 <memset+0x8c>
 8004804:	b2ca      	uxtb	r2, r1
 8004806:	441c      	add	r4, r3
 8004808:	f803 2b01 	strb.w	r2, [r3], #1
 800480c:	429c      	cmp	r4, r3
 800480e:	d1fb      	bne.n	8004808 <memset+0x84>
 8004810:	bd30      	pop	{r4, r5, pc}
 8004812:	4664      	mov	r4, ip
 8004814:	4613      	mov	r3, r2
 8004816:	2c00      	cmp	r4, #0
 8004818:	d1f4      	bne.n	8004804 <memset+0x80>
 800481a:	e7f9      	b.n	8004810 <memset+0x8c>
 800481c:	4603      	mov	r3, r0
 800481e:	4614      	mov	r4, r2
 8004820:	e7bf      	b.n	80047a2 <memset+0x1e>
 8004822:	461a      	mov	r2, r3
 8004824:	46a4      	mov	ip, r4
 8004826:	e7e0      	b.n	80047ea <memset+0x66>
	...

08004840 <strlen>:
 8004840:	f890 f000 	pld	[r0]
 8004844:	e96d 4502 	strd	r4, r5, [sp, #-8]!
 8004848:	f020 0107 	bic.w	r1, r0, #7
 800484c:	f06f 0c00 	mvn.w	ip, #0
 8004850:	f010 0407 	ands.w	r4, r0, #7
 8004854:	f891 f020 	pld	[r1, #32]
 8004858:	f040 8049 	bne.w	80048ee <strlen+0xae>
 800485c:	f04f 0400 	mov.w	r4, #0
 8004860:	f06f 0007 	mvn.w	r0, #7
 8004864:	e9d1 2300 	ldrd	r2, r3, [r1]
 8004868:	f891 f040 	pld	[r1, #64]	; 0x40
 800486c:	f100 0008 	add.w	r0, r0, #8
 8004870:	fa82 f24c 	uadd8	r2, r2, ip
 8004874:	faa4 f28c 	sel	r2, r4, ip
 8004878:	fa83 f34c 	uadd8	r3, r3, ip
 800487c:	faa2 f38c 	sel	r3, r2, ip
 8004880:	bb4b      	cbnz	r3, 80048d6 <strlen+0x96>
 8004882:	e9d1 2302 	ldrd	r2, r3, [r1, #8]
 8004886:	fa82 f24c 	uadd8	r2, r2, ip
 800488a:	f100 0008 	add.w	r0, r0, #8
 800488e:	faa4 f28c 	sel	r2, r4, ip
 8004892:	fa83 f34c 	uadd8	r3, r3, ip
 8004896:	faa2 f38c 	sel	r3, r2, ip
 800489a:	b9e3      	cbnz	r3, 80048d6 <strlen+0x96>
 800489c:	e9d1 2304 	ldrd	r2, r3, [r1, #16]
 80048a0:	fa82 f24c 	uadd8	r2, r2, ip
 80048a4:	f100 0008 	add.w	r0, r0, #8
 80048a8:	faa4 f28c 	sel	r2, r4, ip
 80048ac:	fa83 f34c 	uadd8	r3, r3, ip
 80048b0:	faa2 f38c 	sel	r3, r2, ip
 80048b4:	b97b      	cbnz	r3, 80048d6 <strlen+0x96>
 80048b6:	e9d1 2306 	ldrd	r2, r3, [r1, #24]
 80048ba:	f101 0120 	add.w	r1, r1, #32
 80048be:	fa82 f24c 	uadd8	r2, r2, ip
 80048c2:	f100 0008 	add.w	r0, r0, #8
 80048c6:	faa4 f28c 	sel	r2, r4, ip
 80048ca:	fa83 f34c 	uadd8	r3, r3, ip
 80048ce:	faa2 f38c 	sel	r3, r2, ip
 80048d2:	2b00      	cmp	r3, #0
 80048d4:	d0c6      	beq.n	8004864 <strlen+0x24>
 80048d6:	2a00      	cmp	r2, #0
 80048d8:	bf04      	itt	eq
 80048da:	3004      	addeq	r0, #4
 80048dc:	461a      	moveq	r2, r3
 80048de:	ba12      	rev	r2, r2
 80048e0:	fab2 f282 	clz	r2, r2
 80048e4:	e8fd 4502 	ldrd	r4, r5, [sp], #8
 80048e8:	eb00 00d2 	add.w	r0, r0, r2, lsr #3
 80048ec:	4770      	bx	lr
 80048ee:	e9d1 2300 	ldrd	r2, r3, [r1]
 80048f2:	f004 0503 	and.w	r5, r4, #3
 80048f6:	f1c4 0000 	rsb	r0, r4, #0
 80048fa:	ea4f 05c5 	mov.w	r5, r5, lsl #3
 80048fe:	f014 0f04 	tst.w	r4, #4
 8004902:	f891 f040 	pld	[r1, #64]	; 0x40
 8004906:	fa0c f505 	lsl.w	r5, ip, r5
 800490a:	ea62 0205 	orn	r2, r2, r5
 800490e:	bf1c      	itt	ne
 8004910:	ea63 0305 	ornne	r3, r3, r5
 8004914:	4662      	movne	r2, ip
 8004916:	f04f 0400 	mov.w	r4, #0
 800491a:	e7a9      	b.n	8004870 <strlen+0x30>

0800491c <out_config>:
 800491c:	0080 0000 0000 0001 0000 0000               ............

08004928 <in_config>:
 8004928:	0000 0000 0000 0001 0000 0000               ............

08004934 <ConfigurationDescriptor>:
 8004934:	0209 003e 0102 8000 0932 0004 0100 0202     ..>.....2.......
 8004944:	0001 2405 1000 0401 0224 0506 0624 0100     ...$....$...$...
 8004954:	0507 0381 0008 09ff 0104 0200 000a 0000     ................
 8004964:	0507 0203 0040 0705 8205 4002 0500 0000     ....@......@....

08004974 <DeviceDescriptor>:
 8004974:	0112 0110 0002 4000 058b 0058 0010 0201     .......@..X.....
 8004984:	0100 0000                                   ....

08004988 <CSWTCH.1>:
 8004988:	4a1c 0800 49c0 0800 499c 0800               .J...I...I..

08004994 <CSWTCH.2>:
 8004994:	0004 0058 0020 0000                         ..X. ...

0800499c <ProductString>:
 800499c:	0320 0049 0000 0046 0000 0058 0000 0020      .I...F...X... .
 80049ac:	0000 0043 0000 0044 0000 0043 0000 0000     ..C...D...C.....
 80049bc:	0000 0000                                   ....

080049c0 <ManufacturerString>:
 80049c0:	0358 0049 0000 006e 0000 0066 0000 0069     X.I...n...f...i.
 80049d0:	0000 006e 0000 0065 0000 006f 0000 006e     ..n...e...o...n.
 80049e0:	0000 0020 0000 0054 0000 0065 0000 0063     .. ...T...e...c.
 80049f0:	0000 0068 0000 006e 0000 006f 0000 006c     ..h...n...o...l.
 8004a00:	0000 006f 0000 0067 0000 0069 0000 0065     ..o...g...i...e.
 8004a10:	0000 0073 0000 0000 0000 0000               ..s.........

08004a1c <LanguageString>:
 8004a1c:	0304 0409 0000 0000                         ........

08004a24 <Driver_USBD0>:
 8004a24:	18c5 0800 1ddd 0800 1b3d 0800 18cd 0800     ........=.......
 8004a34:	18e5 0800 1fdd 0800 194d 0800 1b61 0800     ........M...a...
 8004a44:	1a21 0800 1965 0800 18fd 0800 1f3d 0800     !...e.......=...
 8004a54:	1f7d 0800 19e1 0800 1b0d 0800 1b21 0800     }...........!...
 8004a64:	20a1 0000 0000 0002                         . ......

08004a6c <_global_impure_ptr>:
 8004a6c:	0038 2000                                   8.. 
